
Dump of file pineBT.dll

File Type: DLL

  Section contains the following exports for pineBT.dll

    00000000 characteristics
    FFFFFFFF time date stamp
        0.00 version
           1 ordinal base
        3836 number of functions
        3836 number of names

    ordinal hint RVA      name

          1    0 000031D0 ??$?0$$V@?$_Compressed_pair@U?$default_delete@VBehaviorTree@pineBT@@@std@@PEAVBehaviorTree@pineBT@@$00@std@@QEAA@U_Zero_then_variadic_args_t@1@@Z
          2    1 00002000 ??$?0$$V@?$_Compressed_pair@V?$allocator@D@std@@V?$_String_val@U?$_Simple_types@D@std@@@2@$00@std@@QEAA@U_Zero_then_variadic_args_t@1@@Z
          3    2 00003E40 ??$?0$$V@?$_Compressed_pair@V?$allocator@D@std@@V?$_Vector_val@U?$_Simple_types@D@std@@@2@$00@std@@QEAA@U_Zero_then_variadic_args_t@1@@Z
          4    3 00003E40 ??$?0$$V@?$_Compressed_pair@V?$allocator@E@std@@V?$_Vector_val@U?$_Simple_types@E@std@@@2@$00@std@@QEAA@U_Zero_then_variadic_args_t@1@@Z
          5    4 00003E40 ??$?0$$V@?$_Compressed_pair@V?$allocator@I@std@@V?$_Vector_val@U?$_Simple_types@I@std@@@2@$00@std@@QEAA@U_Zero_then_variadic_args_t@1@@Z
          6    5 00003E40 ??$?0$$V@?$_Compressed_pair@V?$allocator@PEAV?$basic_json@Vmap@std@@Vvector@2@V?$basic_string@DU?$char_traits@D@std@@V?$allocator@D@2@@2@_N_J_KNVallocator@2@Uadl_serializer@json_abi_v3_11_2@nlohmann@@V?$vector@EV?$allocator@E@std@@@2@@json_abi_v3_11_2@nlohmann@@@std@@V?$_Vector_val@U?$_Simple_types@PEAV?$basic_json@Vmap@std@@Vvector@2@V?$basic_string@DU?$char_traits@D@std@@V?$allocator@D@2@@2@_N_J_KNVallocator@2@Uadl_serializer@json_abi_v3_11_2@nlohmann@@V?$vector@EV?$allocator@E@std@@@2@@json_abi_v3_11_2@nlohmann@@@std@@@2@$00@std@@QEAA@U_Zero_then_variadic_args_t@1@@Z
          7    6 00002B10 ??$?0$$V@?$_Compressed_pair@V?$allocator@PEAVBehavior@pineBT@@@std@@V?$_Deque_val@U?$_Deque_simple_types@PEAVBehavior@pineBT@@@std@@@2@$00@std@@QEAA@U_Zero_then_variadic_args_t@1@@Z
          8    7 00003E40 ??$?0$$V@?$_Compressed_pair@V?$allocator@PEAVBehavior@pineBT@@@std@@V?$_Vector_val@U?$_Simple_types@PEAVBehavior@pineBT@@@std@@@2@$00@std@@QEAA@U_Zero_then_variadic_args_t@1@@Z
          9    8 00003E60 ??$?0$$V@?$_Compressed_pair@V?$allocator@U?$_Tree_node@U?$pair@$$CBV?$basic_string@DU?$char_traits@D@std@@V?$allocator@D@2@@std@@V?$basic_json@Vmap@std@@Vvector@2@V?$basic_string@DU?$char_traits@D@std@@V?$allocator@D@2@@2@_N_J_KNVallocator@2@Uadl_serializer@json_abi_v3_11_2@nlohmann@@V?$vector@EV?$allocator@E@std@@@2@@json_abi_v3_11_2@nlohmann@@@std@@PEAX@std@@@std@@V?$_Tree_val@U?$_Tree_simple_types@U?$pair@$$CBV?$basic_string@DU?$char_traits@D@std@@V?$allocator@D@2@@std@@V?$basic_json@Vmap@std@@Vvector@2@V?$basic_string@DU?$char_traits@D@std@@V?$allocator@D@2@@2@_N_J_KNVallocator@2@Uadl_serializer@json_abi_v3_11_2@nlohmann@@V?$vector@EV?$allocator@E@std@@@2@@json_abi_v3_11_2@nlohmann@@@std@@@std@@@2@$00@std@@QEAA@U_Zero_then_variadic_args_t@1@@Z
         10    9 00003E40 ??$?0$$V@?$_Compressed_pair@V?$allocator@V?$basic_json@Vmap@std@@Vvector@2@V?$basic_string@DU?$char_traits@D@std@@V?$allocator@D@2@@2@_N_J_KNVallocator@2@Uadl_serializer@json_abi_v3_11_2@nlohmann@@V?$vector@EV?$allocator@E@std@@@2@@json_abi_v3_11_2@nlohmann@@@std@@V?$_Vector_val@U?$_Simple_types@V?$basic_json@Vmap@std@@Vvector@2@V?$basic_string@DU?$char_traits@D@std@@V?$allocator@D@2@@2@_N_J_KNVallocator@2@Uadl_serializer@json_abi_v3_11_2@nlohmann@@V?$vector@EV?$allocator@E@std@@@2@@json_abi_v3_11_2@nlohmann@@@std@@@2@$00@std@@QEAA@U_Zero_then_variadic_args_t@1@@Z
         11    A 00003E40 ??$?0$$V@?$_Compressed_pair@V?$allocator@V?$basic_string@DU?$char_traits@D@std@@V?$allocator@D@2@@std@@@std@@V?$_Vector_val@U?$_Simple_types@V?$basic_string@DU?$char_traits@D@std@@V?$allocator@D@2@@std@@@std@@@2@$00@std@@QEAA@U_Zero_then_variadic_args_t@1@@Z
         12    B 00002B10 ??$?0$$V@?$_Compressed_pair@V?$allocator@V?$unique_ptr@UBehaviorTreeBuilderContext@pineBT@@U?$default_delete@UBehaviorTreeBuilderContext@pineBT@@@std@@@std@@@std@@V?$_Deque_val@U?$_Deque_simple_types@V?$unique_ptr@UBehaviorTreeBuilderContext@pineBT@@U?$default_delete@UBehaviorTreeBuilderContext@pineBT@@@std@@@std@@@std@@@2@$00@std@@QEAA@U_Zero_then_variadic_args_t@1@@Z
         13    C 0002D800 ??$?0AEANN$0A@@?$basic_json@Vmap@std@@Vvector@2@V?$basic_string@DU?$char_traits@D@std@@V?$allocator@D@2@@2@_N_J_KNVallocator@2@Uadl_serializer@json_abi_v3_11_2@nlohmann@@V?$vector@EV?$allocator@E@std@@@2@@json_abi_v3_11_2@nlohmann@@QEAA@AEAN@Z
         14    D 00008860 ??$?0AEAPEADW4errc@std@@$0A@@?$pair@PEADW4errc@std@@@std@@QEAA@AEAPEAD$$QEAW4errc@1@@Z
         15    E 00005810 ??$?0AEAPEAU?$_List_node@U?$pair@$$CBHV?$unique_ptr@VBehaviorTree@pineBT@@U?$default_delete@VBehaviorTree@pineBT@@@std@@@std@@@std@@PEAX@std@@_N$0A@@?$pair@PEAU?$_List_node@U?$pair@$$CBHV?$unique_ptr@VBehaviorTree@pineBT@@U?$default_delete@VBehaviorTree@pineBT@@@std@@@std@@@std@@PEAX@std@@_N@std@@QEAA@AEAPEAU?$_List_node@U?$pair@$$CBHV?$unique_ptr@VBehaviorTree@pineBT@@U?$default_delete@VBehaviorTree@pineBT@@@std@@@std@@@std@@PEAX@1@$$QEA_N@Z
         16    F 00005810 ??$?0AEAPEAU?$_List_node@U?$pair@$$CBIW4Result@Behavior@pineBT@@@std@@PEAX@std@@_N$0A@@?$pair@PEAU?$_List_node@U?$pair@$$CBIW4Result@Behavior@pineBT@@@std@@PEAX@std@@_N@std@@QEAA@AEAPEAU?$_List_node@U?$pair@$$CBIW4Result@Behavior@pineBT@@@std@@PEAX@1@$$QEA_N@Z
         17   10 00005810 ??$?0AEAPEAU?$_List_node@U?$pair@$$CBV?$basic_string@DU?$char_traits@D@std@@V?$allocator@D@2@@std@@H@std@@PEAX@std@@_N$0A@@?$pair@PEAU?$_List_node@U?$pair@$$CBV?$basic_string@DU?$char_traits@D@std@@V?$allocator@D@2@@std@@H@std@@PEAX@std@@_N@std@@QEAA@AEAPEAU?$_List_node@U?$pair@$$CBV?$basic_string@DU?$char_traits@D@std@@V?$allocator@D@2@@std@@H@std@@PEAX@1@$$QEA_N@Z
         18   11 00005810 ??$?0AEAPEAU?$_List_node@U?$pair@$$CBV?$basic_string@DU?$char_traits@D@std@@V?$allocator@D@2@@std@@UBehaviorSchema@pineBT@@@std@@PEAX@std@@_N$0A@@?$pair@PEAU?$_List_node@U?$pair@$$CBV?$basic_string@DU?$char_traits@D@std@@V?$allocator@D@2@@std@@UBehaviorSchema@pineBT@@@std@@PEAX@std@@_N@std@@QEAA@AEAPEAU?$_List_node@U?$pair@$$CBV?$basic_string@DU?$char_traits@D@std@@V?$allocator@D@2@@std@@UBehaviorSchema@pineBT@@@std@@PEAX@1@$$QEA_N@Z
         19   12 00005810 ??$?0AEAPEAU?$_List_node@U?$pair@$$CBV?$basic_string@DU?$char_traits@D@std@@V?$allocator@D@2@@std@@V?$function@$$A6APEAVBehavior@pineBT@@AEBV?$basic_string@DU?$char_traits@D@std@@V?$allocator@D@2@@std@@AEAVBehaviorTree@2@@Z@2@@std@@PEAX@std@@_N$0A@@?$pair@PEAU?$_List_node@U?$pair@$$CBV?$basic_string@DU?$char_traits@D@std@@V?$allocator@D@2@@std@@V?$function@$$A6APEAVBehavior@pineBT@@AEBV?$basic_string@DU?$char_traits@D@std@@V?$allocator@D@2@@std@@AEAVBehaviorTree@2@@Z@2@@std@@PEAX@std@@_N@std@@QEAA@AEAPEAU?$_List_node@U?$pair@$$CBV?$basic_string@DU?$char_traits@D@std@@V?$allocator@D@2@@std@@V?$function@$$A6APEAVBehavior@pineBT@@AEBV?$basic_string@DU?$char_traits@D@std@@V?$allocator@D@2@@std@@AEAVBehaviorTree@2@@Z@2@@std@@PEAX@1@$$QEA_N@Z
         20   13 00005810 ??$?0AEAPEAU?$_Tree_node@U?$pair@$$CBV?$basic_string@DU?$char_traits@D@std@@V?$allocator@D@2@@std@@V?$basic_json@Vmap@std@@Vvector@2@V?$basic_string@DU?$char_traits@D@std@@V?$allocator@D@2@@2@_N_J_KNVallocator@2@Uadl_serializer@json_abi_v3_11_2@nlohmann@@V?$vector@EV?$allocator@E@std@@@2@@json_abi_v3_11_2@nlohmann@@@std@@PEAX@std@@_N$0A@@?$pair@PEAU?$_Tree_node@U?$pair@$$CBV?$basic_string@DU?$char_traits@D@std@@V?$allocator@D@2@@std@@V?$basic_json@Vmap@std@@Vvector@2@V?$basic_string@DU?$char_traits@D@std@@V?$allocator@D@2@@2@_N_J_KNVallocator@2@Uadl_serializer@json_abi_v3_11_2@nlohmann@@V?$vector@EV?$allocator@E@std@@@2@@json_abi_v3_11_2@nlohmann@@@std@@PEAX@std@@_N@std@@QEAA@AEAPEAU?$_Tree_node@U?$pair@$$CBV?$basic_string@DU?$char_traits@D@std@@V?$allocator@D@2@@std@@V?$basic_json@Vmap@std@@Vvector@2@V?$basic_string@DU?$char_traits@D@std@@V?$allocator@D@2@@2@_N_J_KNVallocator@2@Uadl_serializer@json_abi_v3_11_2@nlohmann@@V?$vector@EV?$allocator@E@std@@@2@@json_abi_v3_11_2@nlohmann@@@std@@PEAX@1@$$QEA_N@Z
         21   14 00008870 ??$?0AEAPEAUCompositeContext@pineBT@@@?$_Compressed_pair@U?$default_delete@UCompositeContext@pineBT@@@std@@PEAUCompositeContext@pineBT@@$00@std@@QEAA@U_Zero_then_variadic_args_t@1@AEAPEAUCompositeContext@pineBT@@@Z
         22   15 00008870 ??$?0AEAPEAUDecoratorContext@pineBT@@@?$_Compressed_pair@U?$default_delete@UDecoratorContext@pineBT@@@std@@PEAUDecoratorContext@pineBT@@$00@std@@QEAA@U_Zero_then_variadic_args_t@1@AEAPEAUDecoratorContext@pineBT@@@Z
         23   16 00008870 ??$?0AEAPEAVBehaviorTree@pineBT@@@?$_Compressed_pair@U?$default_delete@VBehaviorTree@pineBT@@@std@@PEAVBehaviorTree@pineBT@@$00@std@@QEAA@U_Zero_then_variadic_args_t@1@AEAPEAVBehaviorTree@pineBT@@@Z
         24   17 00008870 ??$?0AEAPEAV_Facet_base@std@@@?$_Compressed_pair@U?$default_delete@V_Facet_base@std@@@std@@PEAV_Facet_base@2@$00@std@@QEAA@U_Zero_then_variadic_args_t@1@AEAPEAV_Facet_base@1@@Z
         25   18 00008880 ??$?0AEAPEBDAEBIAEAV?$basic_string@DU?$char_traits@D@std@@V?$allocator@D@2@@std@@@?$basic_format_args@V?$basic_format_context@V?$back_insert_iterator@V?$_Fmt_buffer@D@std@@@std@@D@std@@@std@@QEAA@AEBV?$_Format_arg_store@V?$basic_format_context@V?$back_insert_iterator@V?$_Fmt_buffer@D@std@@@std@@D@std@@AEAPEBDAEBIAEAV?$basic_string@DU?$char_traits@D@std@@V?$allocator@D@2@@2@@1@@Z
         26   19 00008890 ??$?0AEAV?$basic_string@DU?$char_traits@D@std@@V?$allocator@D@2@@std@@@?$_Ref_count_obj2@V?$output_string_adapter@DV?$basic_string@DU?$char_traits@D@std@@V?$allocator@D@2@@std@@@detail@json_abi_v3_11_2@nlohmann@@@std@@QEAA@AEAV?$basic_string@DU?$char_traits@D@std@@V?$allocator@D@2@@1@@Z
         27   1A 000088C0 ??$?0AEAV?$basic_string@DU?$char_traits@D@std@@V?$allocator@D@2@@std@@@?$basic_format_args@V?$basic_format_context@V?$back_insert_iterator@V?$_Fmt_buffer@D@std@@@std@@D@std@@@std@@QEAA@AEBV?$_Format_arg_store@V?$basic_format_context@V?$back_insert_iterator@V?$_Fmt_buffer@D@std@@@std@@D@std@@AEAV?$basic_string@DU?$char_traits@D@std@@V?$allocator@D@2@@2@@1@@Z
         28   1B 00008C50 ??$?0AEAV?$basic_string@DU?$char_traits@D@std@@V?$allocator@D@2@@std@@V01@$0A@@?$basic_json@Vmap@std@@Vvector@2@V?$basic_string@DU?$char_traits@D@std@@V?$allocator@D@2@@2@_N_J_KNVallocator@2@Uadl_serializer@json_abi_v3_11_2@nlohmann@@V?$vector@EV?$allocator@E@std@@@2@@json_abi_v3_11_2@nlohmann@@QEAA@AEAV?$basic_string@DU?$char_traits@D@std@@V?$allocator@D@2@@std@@@Z
         29   1C 000088D0 ??$?0AEAY03$$CBD$$BY03D$0A@@?$basic_json@Vmap@std@@Vvector@2@V?$basic_string@DU?$char_traits@D@std@@V?$allocator@D@2@@2@_N_J_KNVallocator@2@Uadl_serializer@json_abi_v3_11_2@nlohmann@@V?$vector@EV?$allocator@E@std@@@2@@json_abi_v3_11_2@nlohmann@@QEAA@AEAY03$$CBD@Z
         30   1D 000088D0 ??$?0AEAY04$$CBD$$BY04D$0A@@?$basic_json@Vmap@std@@Vvector@2@V?$basic_string@DU?$char_traits@D@std@@V?$allocator@D@2@@2@_N_J_KNVallocator@2@Uadl_serializer@json_abi_v3_11_2@nlohmann@@V?$vector@EV?$allocator@E@std@@@2@@json_abi_v3_11_2@nlohmann@@QEAA@AEAY04$$CBD@Z
         31   1E 000088D0 ??$?0AEAY06$$CBD$$BY06D$0A@@?$basic_json@Vmap@std@@Vvector@2@V?$basic_string@DU?$char_traits@D@std@@V?$allocator@D@2@@2@_N_J_KNVallocator@2@Uadl_serializer@json_abi_v3_11_2@nlohmann@@V?$vector@EV?$allocator@E@std@@@2@@json_abi_v3_11_2@nlohmann@@QEAA@AEAY06$$CBD@Z
         32   1F 000088D0 ??$?0AEAY07$$CBD$$BY07D$0A@@?$basic_json@Vmap@std@@Vvector@2@V?$basic_string@DU?$char_traits@D@std@@V?$allocator@D@2@@2@_N_J_KNVallocator@2@Uadl_serializer@json_abi_v3_11_2@nlohmann@@V?$vector@EV?$allocator@E@std@@@2@@json_abi_v3_11_2@nlohmann@@QEAA@AEAY07$$CBD@Z
         33   20 0002D850 ??$?0AEA_J_J$0A@@?$basic_json@Vmap@std@@Vvector@2@V?$basic_string@DU?$char_traits@D@std@@V?$allocator@D@2@@2@_N_J_KNVallocator@2@Uadl_serializer@json_abi_v3_11_2@nlohmann@@V?$vector@EV?$allocator@E@std@@@2@@json_abi_v3_11_2@nlohmann@@QEAA@AEA_J@Z
         34   21 0002D8A0 ??$?0AEA_K_K$0A@@?$basic_json@Vmap@std@@Vvector@2@V?$basic_string@DU?$char_traits@D@std@@V?$allocator@D@2@@2@_N_J_KNVallocator@2@Uadl_serializer@json_abi_v3_11_2@nlohmann@@V?$vector@EV?$allocator@E@std@@@2@@json_abi_v3_11_2@nlohmann@@QEAA@AEA_K@Z
         35   22 0002D8F0 ??$?0AEA_N_N$0A@@?$basic_json@Vmap@std@@Vvector@2@V?$basic_string@DU?$char_traits@D@std@@V?$allocator@D@2@@2@_N_J_KNVallocator@2@Uadl_serializer@json_abi_v3_11_2@nlohmann@@V?$vector@EV?$allocator@E@std@@@2@@json_abi_v3_11_2@nlohmann@@QEAA@AEA_N@Z
         36   23 0003F810 ??$?0AEBH$$Z$$V@?$pair@$$CBHV?$unique_ptr@VBehaviorTree@pineBT@@U?$default_delete@VBehaviorTree@pineBT@@@std@@@std@@@std@@QEAA@Upiecewise_construct_t@1@V?$tuple@AEBH@1@V?$tuple@$$V@1@@Z
         37   24 000031C0 ??$?0AEBH$0A@@?$tuple@AEBH@std@@QEAA@AEBH@Z
         38   25 000031C0 ??$?0AEBH@?$_Tuple_val@AEBH@std@@QEAA@AEBH@Z
         39   26 00008970 ??$?0AEBHH$0A@@?$basic_json@Vmap@std@@Vvector@2@V?$basic_string@DU?$char_traits@D@std@@V?$allocator@D@2@@2@_N_J_KNVallocator@2@Uadl_serializer@json_abi_v3_11_2@nlohmann@@V?$vector@EV?$allocator@E@std@@@2@@json_abi_v3_11_2@nlohmann@@QEAA@AEBH@Z
         40   27 0002C250 ??$?0AEBI$$Z$$V@?$pair@$$CBIW4Result@Behavior@pineBT@@@std@@QEAA@Upiecewise_construct_t@1@V?$tuple@AEBI@1@V?$tuple@$$V@1@@Z
         41   28 000031C0 ??$?0AEBI$0A@@?$tuple@AEBI@std@@QEAA@AEBI@Z
         42   29 000031C0 ??$?0AEBI@?$_Tuple_val@AEBI@std@@QEAA@AEBI@Z
         43   2A 000089C0 ??$?0AEBIAEAV?$basic_string@DU?$char_traits@D@std@@V?$allocator@D@2@@std@@@?$basic_format_args@V?$basic_format_context@V?$back_insert_iterator@V?$_Fmt_buffer@D@std@@@std@@D@std@@@std@@QEAA@AEBV?$_Format_arg_store@V?$basic_format_context@V?$back_insert_iterator@V?$_Fmt_buffer@D@std@@@std@@D@std@@AEBIAEAV?$basic_string@DU?$char_traits@D@std@@V?$allocator@D@2@@2@@1@@Z
         44   2B 00008860 ??$?0AEBQEADW4errc@std@@$0A@@?$pair@PEADW4errc@std@@@std@@QEAA@AEBQEAD$$QEAW4errc@1@@Z
         45   2C 00005810 ??$?0AEBQEAU?$_Tree_node@U?$pair@$$CBV?$basic_string@DU?$char_traits@D@std@@V?$allocator@D@2@@std@@V?$basic_json@Vmap@std@@Vvector@2@V?$basic_string@DU?$char_traits@D@std@@V?$allocator@D@2@@2@_N_J_KNVallocator@2@Uadl_serializer@json_abi_v3_11_2@nlohmann@@V?$vector@EV?$allocator@E@std@@@2@@json_abi_v3_11_2@nlohmann@@@std@@PEAX@std@@_N$0A@@?$pair@PEAU?$_Tree_node@U?$pair@$$CBV?$basic_string@DU?$char_traits@D@std@@V?$allocator@D@2@@std@@V?$basic_json@Vmap@std@@Vvector@2@V?$basic_string@DU?$char_traits@D@std@@V?$allocator@D@2@@2@_N_J_KNVallocator@2@Uadl_serializer@json_abi_v3_11_2@nlohmann@@V?$vector@EV?$allocator@E@std@@@2@@json_abi_v3_11_2@nlohmann@@@std@@PEAX@std@@_N@std@@QEAA@AEBQEAU?$_Tree_node@U?$pair@$$CBV?$basic_string@DU?$char_traits@D@std@@V?$allocator@D@2@@std@@V?$basic_json@Vmap@std@@Vvector@2@V?$basic_string@DU?$char_traits@D@std@@V?$allocator@D@2@@2@_N_J_KNVallocator@2@Uadl_serializer@json_abi_v3_11_2@nlohmann@@V?$vector@EV?$allocator@E@std@@@2@@json_abi_v3_11_2@nlohmann@@@std@@PEAX@1@$$QEA_N@Z
         46   2D 00005310 ??$?0AEBQEAVBehavior@pineBT@@@?$_Alloc_temporary2@V?$allocator@PEAVBehavior@pineBT@@@std@@@std@@QEAA@AEAV?$allocator@PEAVBehavior@pineBT@@@1@AEBQEAVBehavior@pineBT@@@Z
         47   2E 00003E60 ??$?0AEBU?$less@X@std@@U_Zero_then_variadic_args_t@1@@?$_Compressed_pair@U?$less@X@std@@V?$_Compressed_pair@V?$allocator@U?$_Tree_node@U?$pair@$$CBV?$basic_string@DU?$char_traits@D@std@@V?$allocator@D@2@@std@@V?$basic_json@Vmap@std@@Vvector@2@V?$basic_string@DU?$char_traits@D@std@@V?$allocator@D@2@@2@_N_J_KNVallocator@2@Uadl_serializer@json_abi_v3_11_2@nlohmann@@V?$vector@EV?$allocator@E@std@@@2@@json_abi_v3_11_2@nlohmann@@@std@@PEAX@std@@@std@@V?$_Tree_val@U?$_Tree_simple_types@U?$pair@$$CBV?$basic_string@DU?$char_traits@D@std@@V?$allocator@D@2@@std@@V?$basic_json@Vmap@std@@Vvector@2@V?$basic_string@DU?$char_traits@D@std@@V?$allocator@D@2@@2@_N_J_KNVallocator@2@Uadl_serializer@json_abi_v3_11_2@nlohmann@@V?$vector@EV?$allocator@E@std@@@2@@json_abi_v3_11_2@nlohmann@@@std@@@std@@@2@$00@2@$00@std@@QEAA@U_One_then_variadic_args_t@1@AEBU?$less@X@1@$$QEAU_Zero_then_variadic_args_t@1@@Z
         48   2F 00005830 ??$?0AEBU?$pair@$$CBV?$basic_string@DU?$char_traits@D@std@@V?$allocator@D@2@@std@@H@std@@@?$_List_node_emplace_op2@V?$allocator@U?$_List_node@U?$pair@$$CBV?$basic_string@DU?$char_traits@D@std@@V?$allocator@D@2@@std@@H@std@@PEAX@std@@@std@@@std@@QEAA@AEAV?$allocator@U?$_List_node@U?$pair@$$CBV?$basic_string@DU?$char_traits@D@std@@V?$allocator@D@2@@std@@H@std@@PEAX@std@@@1@AEBU?$pair@$$CBV?$basic_string@DU?$char_traits@D@std@@V?$allocator@D@2@@std@@H@1@@Z
         49   30 0003F830 ??$?0AEBUpiecewise_construct_t@std@@V?$tuple@AEBH@1@V?$tuple@$$V@1@@?$_List_node_emplace_op2@V?$allocator@U?$_List_node@U?$pair@$$CBHV?$unique_ptr@VBehaviorTree@pineBT@@U?$default_delete@VBehaviorTree@pineBT@@@std@@@std@@@std@@PEAX@std@@@std@@@std@@QEAA@AEAV?$allocator@U?$_List_node@U?$pair@$$CBHV?$unique_ptr@VBehaviorTree@pineBT@@U?$default_delete@VBehaviorTree@pineBT@@@std@@@std@@@std@@PEAX@std@@@1@AEBUpiecewise_construct_t@1@$$QEAV?$tuple@AEBH@1@$$QEAV?$tuple@$$V@1@@Z
         50   31 0002C270 ??$?0AEBUpiecewise_construct_t@std@@V?$tuple@AEBI@1@V?$tuple@$$V@1@@?$_List_node_emplace_op2@V?$allocator@U?$_List_node@U?$pair@$$CBIW4Result@Behavior@pineBT@@@std@@PEAX@std@@@std@@@std@@QEAA@AEAV?$allocator@U?$_List_node@U?$pair@$$CBIW4Result@Behavior@pineBT@@@std@@PEAX@std@@@1@AEBUpiecewise_construct_t@1@$$QEAV?$tuple@AEBI@1@$$QEAV?$tuple@$$V@1@@Z
         51   32 00005890 ??$?0AEBUpiecewise_construct_t@std@@V?$tuple@AEBV?$basic_string@DU?$char_traits@D@std@@V?$allocator@D@2@@std@@@1@V?$tuple@$$V@1@@?$_List_node_emplace_op2@V?$allocator@U?$_List_node@U?$pair@$$CBV?$basic_string@DU?$char_traits@D@std@@V?$allocator@D@2@@std@@H@std@@PEAX@std@@@std@@@std@@QEAA@AEAV?$allocator@U?$_List_node@U?$pair@$$CBV?$basic_string@DU?$char_traits@D@std@@V?$allocator@D@2@@std@@H@std@@PEAX@std@@@1@AEBUpiecewise_construct_t@1@$$QEAV?$tuple@AEBV?$basic_string@DU?$char_traits@D@std@@V?$allocator@D@2@@std@@@1@$$QEAV?$tuple@$$V@1@@Z
         52   33 000089D0 ??$?0AEBUpiecewise_construct_t@std@@V?$tuple@AEBV?$basic_string@DU?$char_traits@D@std@@V?$allocator@D@2@@std@@@1@V?$tuple@$$V@1@@?$_List_node_emplace_op2@V?$allocator@U?$_List_node@U?$pair@$$CBV?$basic_string@DU?$char_traits@D@std@@V?$allocator@D@2@@std@@UBehaviorSchema@pineBT@@@std@@PEAX@std@@@std@@@std@@QEAA@AEAV?$allocator@U?$_List_node@U?$pair@$$CBV?$basic_string@DU?$char_traits@D@std@@V?$allocator@D@2@@std@@UBehaviorSchema@pineBT@@@std@@PEAX@std@@@1@AEBUpiecewise_construct_t@1@$$QEAV?$tuple@AEBV?$basic_string@DU?$char_traits@D@std@@V?$allocator@D@2@@std@@@1@$$QEAV?$tuple@$$V@1@@Z
         53   34 00008A40 ??$?0AEBUpiecewise_construct_t@std@@V?$tuple@AEBV?$basic_string@DU?$char_traits@D@std@@V?$allocator@D@2@@std@@@1@V?$tuple@$$V@1@@?$_List_node_emplace_op2@V?$allocator@U?$_List_node@U?$pair@$$CBV?$basic_string@DU?$char_traits@D@std@@V?$allocator@D@2@@std@@V?$function@$$A6APEAVBehavior@pineBT@@AEBV?$basic_string@DU?$char_traits@D@std@@V?$allocator@D@2@@std@@AEAVBehaviorTree@2@@Z@2@@std@@PEAX@std@@@std@@@std@@QEAA@AEAV?$allocator@U?$_List_node@U?$pair@$$CBV?$basic_string@DU?$char_traits@D@std@@V?$allocator@D@2@@std@@V?$function@$$A6APEAVBehavior@pineBT@@AEBV?$basic_string@DU?$char_traits@D@std@@V?$allocator@D@2@@std@@AEAVBehaviorTree@2@@Z@2@@std@@PEAX@std@@@1@AEBUpiecewise_construct_t@1@$$QEAV?$tuple@AEBV?$basic_string@DU?$char_traits@D@std@@V?$allocator@D@2@@std@@@1@$$QEAV?$tuple@$$V@1@@Z
         54   35 0002D940 ??$?0AEBUpiecewise_construct_t@std@@V?$tuple@AEBV?$basic_string@DU?$char_traits@D@std@@V?$allocator@D@2@@std@@@1@V?$tuple@$$V@1@@?$_Tree_temp_node@V?$allocator@U?$_Tree_node@U?$pair@$$CBV?$basic_string@DU?$char_traits@D@std@@V?$allocator@D@2@@std@@V?$basic_json@Vmap@std@@Vvector@2@V?$basic_string@DU?$char_traits@D@std@@V?$allocator@D@2@@2@_N_J_KNVallocator@2@Uadl_serializer@json_abi_v3_11_2@nlohmann@@V?$vector@EV?$allocator@E@std@@@2@@json_abi_v3_11_2@nlohmann@@@std@@PEAX@std@@@std@@@std@@QEAA@AEAV?$allocator@U?$_Tree_node@U?$pair@$$CBV?$basic_string@DU?$char_traits@D@std@@V?$allocator@D@2@@std@@V?$basic_json@Vmap@std@@Vvector@2@V?$basic_string@DU?$char_traits@D@std@@V?$allocator@D@2@@2@_N_J_KNVallocator@2@Uadl_serializer@json_abi_v3_11_2@nlohmann@@V?$vector@EV?$allocator@E@std@@@2@@json_abi_v3_11_2@nlohmann@@@std@@PEAX@std@@@1@PEAU?$_Tree_node@U?$pair@$$CBV?$basic_string@DU?$char_traits@D@std@@V?$allocator@D@2@@std@@V?$basic_json@Vmap@std@@Vvector@2@V?$basic_string@DU?$char_traits@D@std@@V?$allocator@D@2@@2@_N_J_KNVallocator@2@Uadl_serializer@json_abi_v3_11_2@nlohmann@@V?$vector@EV?$allocator@E@std@@@2@@json_abi_v3_11_2@nlohmann@@@std@@PEAX@1@AEBUpiecewise_construct_t@1@$$QEAV?$tuple@AEBV?$basic_string@DU?$char_traits@D@std@@V?$allocator@D@2@@std@@@1@$$QEAV?$tuple@$$V@1@@Z
         55   36 00008AB0 ??$?0AEBV<lambda_1>@?1???$add@VMockCondition@pineBT@@@BehaviorSchemaLibrary@pineBT@@QEAAXXZ@$0A@@?$_Func_impl_no_alloc@V<lambda_1>@?1???$add@VMockCondition@pineBT@@@BehaviorSchemaLibrary@pineBT@@QEAAXXZ@PEAVBehavior@3@AEBV?$basic_string@DU?$char_traits@D@std@@V?$allocator@D@2@@std@@AEAVBehaviorTree@3@@std@@QEAA@AEBV<lambda_1>@?1???$add@VMockCondition@pineBT@@@BehaviorSchemaLibrary@pineBT@@QEAAXXZ@@Z
         56   37 00008AC0 ??$?0AEBV<lambda_1>@?1???$add@VMockTask@pineBT@@@BehaviorSchemaLibrary@pineBT@@QEAAXXZ@$0A@@?$_Func_impl_no_alloc@V<lambda_1>@?1???$add@VMockTask@pineBT@@@BehaviorSchemaLibrary@pineBT@@QEAAXXZ@PEAVBehavior@3@AEBV?$basic_string@DU?$char_traits@D@std@@V?$allocator@D@2@@std@@AEAVBehaviorTree@3@@std@@QEAA@AEBV<lambda_1>@?1???$add@VMockTask@pineBT@@@BehaviorSchemaLibrary@pineBT@@QEAAXXZ@@Z
         57   38 00008AD0 ??$?0AEBV<lambda_1>@?1???$add@VParallel@pineBT@@@BehaviorSchemaLibrary@pineBT@@QEAAXXZ@$0A@@?$_Func_impl_no_alloc@V<lambda_1>@?1???$add@VParallel@pineBT@@@BehaviorSchemaLibrary@pineBT@@QEAAXXZ@PEAVBehavior@3@AEBV?$basic_string@DU?$char_traits@D@std@@V?$allocator@D@2@@std@@AEAVBehaviorTree@3@@std@@QEAA@AEBV<lambda_1>@?1???$add@VParallel@pineBT@@@BehaviorSchemaLibrary@pineBT@@QEAAXXZ@@Z
         58   39 00008AE0 ??$?0AEBV<lambda_1>@?1???$add@VSelector@pineBT@@@BehaviorSchemaLibrary@pineBT@@QEAAXXZ@$0A@@?$_Func_impl_no_alloc@V<lambda_1>@?1???$add@VSelector@pineBT@@@BehaviorSchemaLibrary@pineBT@@QEAAXXZ@PEAVBehavior@3@AEBV?$basic_string@DU?$char_traits@D@std@@V?$allocator@D@2@@std@@AEAVBehaviorTree@3@@std@@QEAA@AEBV<lambda_1>@?1???$add@VSelector@pineBT@@@BehaviorSchemaLibrary@pineBT@@QEAAXXZ@@Z
         59   3A 00008AF0 ??$?0AEBV<lambda_1>@?1???$add@VSequence@pineBT@@@BehaviorSchemaLibrary@pineBT@@QEAAXXZ@$0A@@?$_Func_impl_no_alloc@V<lambda_1>@?1???$add@VSequence@pineBT@@@BehaviorSchemaLibrary@pineBT@@QEAAXXZ@PEAVBehavior@3@AEBV?$basic_string@DU?$char_traits@D@std@@V?$allocator@D@2@@std@@AEAVBehaviorTree@3@@std@@QEAA@AEBV<lambda_1>@?1???$add@VSequence@pineBT@@@BehaviorSchemaLibrary@pineBT@@QEAAXXZ@@Z
         60   3B 00008B00 ??$?0AEBV<lambda_1>@?1???$create@V?$basic_string@DU?$char_traits@D@std@@V?$allocator@D@2@@std@@AEAY00$$CBD@?$basic_json@Vmap@std@@Vvector@2@V?$basic_string@DU?$char_traits@D@std@@V?$allocator@D@2@@2@_N_J_KNVallocator@2@Uadl_serializer@json_abi_v3_11_2@nlohmann@@V?$vector@EV?$allocator@E@std@@@2@@json_abi_v3_11_2@nlohmann@@CAPEAV?$basic_string@DU?$char_traits@D@std@@V?$allocator@D@2@@std@@AEAY00$$CBD@Z@AEAPEAV45@@?$_Compressed_pair@V<lambda_1>@?1???$create@V?$basic_string@DU?$char_traits@D@std@@V?$allocator@D@2@@std@@AEAY00$$CBD@?$basic_json@Vmap@std@@Vvector@2@V?$basic_string@DU?$char_traits@D@std@@V?$allocator@D@2@@2@_N_J_KNVallocator@2@Uadl_serializer@json_abi_v3_11_2@nlohmann@@V?$vector@EV?$allocator@E@std@@@2@@json_abi_v3_11_2@nlohmann@@CAPEAV?$basic_string@DU?$char_traits@D@std@@V?$allocator@D@2@@std@@AEAY00$$CBD@Z@PEAV56@$0A@@std@@QEAA@U_One_then_variadic_args_t@1@AEBV<lambda_1>@?1???$create@V?$basic_string@DU?$char_traits@D@std@@V?$allocator@D@2@@std@@AEAY00$$CBD@?$basic_json@Vmap@std@@Vvector@2@V?$basic_string@DU?$char_traits@D@std@@V?$allocator@D@2@@2@_N_J_KNVallocator@2@Uadl_serializer@json_abi_v3_11_2@nlohmann@@V?$vector@EV?$allocator@E@std@@@2@@json_abi_v3_11_2@nlohmann@@CAPEAV?$basic_string@DU?$char_traits@D@std@@V?$allocator@D@2@@1@AEAY00$$CBD@Z@AEAPEAV71@@Z
         61   3C 00008B00 ??$?0AEBV<lambda_1>@?1???$create@V?$basic_string@DU?$char_traits@D@std@@V?$allocator@D@2@@std@@AEAY03$$CBD@?$basic_json@Vmap@std@@Vvector@2@V?$basic_string@DU?$char_traits@D@std@@V?$allocator@D@2@@2@_N_J_KNVallocator@2@Uadl_serializer@json_abi_v3_11_2@nlohmann@@V?$vector@EV?$allocator@E@std@@@2@@json_abi_v3_11_2@nlohmann@@CAPEAV?$basic_string@DU?$char_traits@D@std@@V?$allocator@D@2@@std@@AEAY03$$CBD@Z@AEAPEAV45@@?$_Compressed_pair@V<lambda_1>@?1???$create@V?$basic_string@DU?$char_traits@D@std@@V?$allocator@D@2@@std@@AEAY03$$CBD@?$basic_json@Vmap@std@@Vvector@2@V?$basic_string@DU?$char_traits@D@std@@V?$allocator@D@2@@2@_N_J_KNVallocator@2@Uadl_serializer@json_abi_v3_11_2@nlohmann@@V?$vector@EV?$allocator@E@std@@@2@@json_abi_v3_11_2@nlohmann@@CAPEAV?$basic_string@DU?$char_traits@D@std@@V?$allocator@D@2@@std@@AEAY03$$CBD@Z@PEAV56@$0A@@std@@QEAA@U_One_then_variadic_args_t@1@AEBV<lambda_1>@?1???$create@V?$basic_string@DU?$char_traits@D@std@@V?$allocator@D@2@@std@@AEAY03$$CBD@?$basic_json@Vmap@std@@Vvector@2@V?$basic_string@DU?$char_traits@D@std@@V?$allocator@D@2@@2@_N_J_KNVallocator@2@Uadl_serializer@json_abi_v3_11_2@nlohmann@@V?$vector@EV?$allocator@E@std@@@2@@json_abi_v3_11_2@nlohmann@@CAPEAV?$basic_string@DU?$char_traits@D@std@@V?$allocator@D@2@@1@AEAY03$$CBD@Z@AEAPEAV71@@Z
         62   3D 00008B00 ??$?0AEBV<lambda_1>@?1???$create@V?$basic_string@DU?$char_traits@D@std@@V?$allocator@D@2@@std@@AEAY04$$CBD@?$basic_json@Vmap@std@@Vvector@2@V?$basic_string@DU?$char_traits@D@std@@V?$allocator@D@2@@2@_N_J_KNVallocator@2@Uadl_serializer@json_abi_v3_11_2@nlohmann@@V?$vector@EV?$allocator@E@std@@@2@@json_abi_v3_11_2@nlohmann@@CAPEAV?$basic_string@DU?$char_traits@D@std@@V?$allocator@D@2@@std@@AEAY04$$CBD@Z@AEAPEAV45@@?$_Compressed_pair@V<lambda_1>@?1???$create@V?$basic_string@DU?$char_traits@D@std@@V?$allocator@D@2@@std@@AEAY04$$CBD@?$basic_json@Vmap@std@@Vvector@2@V?$basic_string@DU?$char_traits@D@std@@V?$allocator@D@2@@2@_N_J_KNVallocator@2@Uadl_serializer@json_abi_v3_11_2@nlohmann@@V?$vector@EV?$allocator@E@std@@@2@@json_abi_v3_11_2@nlohmann@@CAPEAV?$basic_string@DU?$char_traits@D@std@@V?$allocator@D@2@@std@@AEAY04$$CBD@Z@PEAV56@$0A@@std@@QEAA@U_One_then_variadic_args_t@1@AEBV<lambda_1>@?1???$create@V?$basic_string@DU?$char_traits@D@std@@V?$allocator@D@2@@std@@AEAY04$$CBD@?$basic_json@Vmap@std@@Vvector@2@V?$basic_string@DU?$char_traits@D@std@@V?$allocator@D@2@@2@_N_J_KNVallocator@2@Uadl_serializer@json_abi_v3_11_2@nlohmann@@V?$vector@EV?$allocator@E@std@@@2@@json_abi_v3_11_2@nlohmann@@CAPEAV?$basic_string@DU?$char_traits@D@std@@V?$allocator@D@2@@1@AEAY04$$CBD@Z@AEAPEAV71@@Z
         63   3E 00008B00 ??$?0AEBV<lambda_1>@?1???$create@V?$basic_string@DU?$char_traits@D@std@@V?$allocator@D@2@@std@@AEAY06$$CBD@?$basic_json@Vmap@std@@Vvector@2@V?$basic_string@DU?$char_traits@D@std@@V?$allocator@D@2@@2@_N_J_KNVallocator@2@Uadl_serializer@json_abi_v3_11_2@nlohmann@@V?$vector@EV?$allocator@E@std@@@2@@json_abi_v3_11_2@nlohmann@@CAPEAV?$basic_string@DU?$char_traits@D@std@@V?$allocator@D@2@@std@@AEAY06$$CBD@Z@AEAPEAV45@@?$_Compressed_pair@V<lambda_1>@?1???$create@V?$basic_string@DU?$char_traits@D@std@@V?$allocator@D@2@@std@@AEAY06$$CBD@?$basic_json@Vmap@std@@Vvector@2@V?$basic_string@DU?$char_traits@D@std@@V?$allocator@D@2@@2@_N_J_KNVallocator@2@Uadl_serializer@json_abi_v3_11_2@nlohmann@@V?$vector@EV?$allocator@E@std@@@2@@json_abi_v3_11_2@nlohmann@@CAPEAV?$basic_string@DU?$char_traits@D@std@@V?$allocator@D@2@@std@@AEAY06$$CBD@Z@PEAV56@$0A@@std@@QEAA@U_One_then_variadic_args_t@1@AEBV<lambda_1>@?1???$create@V?$basic_string@DU?$char_traits@D@std@@V?$allocator@D@2@@std@@AEAY06$$CBD@?$basic_json@Vmap@std@@Vvector@2@V?$basic_string@DU?$char_traits@D@std@@V?$allocator@D@2@@2@_N_J_KNVallocator@2@Uadl_serializer@json_abi_v3_11_2@nlohmann@@V?$vector@EV?$allocator@E@std@@@2@@json_abi_v3_11_2@nlohmann@@CAPEAV?$basic_string@DU?$char_traits@D@std@@V?$allocator@D@2@@1@AEAY06$$CBD@Z@AEAPEAV71@@Z
         64   3F 00008B00 ??$?0AEBV<lambda_1>@?1???$create@V?$basic_string@DU?$char_traits@D@std@@V?$allocator@D@2@@std@@AEAY07$$CBD@?$basic_json@Vmap@std@@Vvector@2@V?$basic_string@DU?$char_traits@D@std@@V?$allocator@D@2@@2@_N_J_KNVallocator@2@Uadl_serializer@json_abi_v3_11_2@nlohmann@@V?$vector@EV?$allocator@E@std@@@2@@json_abi_v3_11_2@nlohmann@@CAPEAV?$basic_string@DU?$char_traits@D@std@@V?$allocator@D@2@@std@@AEAY07$$CBD@Z@AEAPEAV45@@?$_Compressed_pair@V<lambda_1>@?1???$create@V?$basic_string@DU?$char_traits@D@std@@V?$allocator@D@2@@std@@AEAY07$$CBD@?$basic_json@Vmap@std@@Vvector@2@V?$basic_string@DU?$char_traits@D@std@@V?$allocator@D@2@@2@_N_J_KNVallocator@2@Uadl_serializer@json_abi_v3_11_2@nlohmann@@V?$vector@EV?$allocator@E@std@@@2@@json_abi_v3_11_2@nlohmann@@CAPEAV?$basic_string@DU?$char_traits@D@std@@V?$allocator@D@2@@std@@AEAY07$$CBD@Z@PEAV56@$0A@@std@@QEAA@U_One_then_variadic_args_t@1@AEBV<lambda_1>@?1???$create@V?$basic_string@DU?$char_traits@D@std@@V?$allocator@D@2@@std@@AEAY07$$CBD@?$basic_json@Vmap@std@@Vvector@2@V?$basic_string@DU?$char_traits@D@std@@V?$allocator@D@2@@2@_N_J_KNVallocator@2@Uadl_serializer@json_abi_v3_11_2@nlohmann@@V?$vector@EV?$allocator@E@std@@@2@@json_abi_v3_11_2@nlohmann@@CAPEAV?$basic_string@DU?$char_traits@D@std@@V?$allocator@D@2@@1@AEAY07$$CBD@Z@AEAPEAV71@@Z
         65   40 00008B00 ??$?0AEBV<lambda_1>@?1???$create@V?$basic_string@DU?$char_traits@D@std@@V?$allocator@D@2@@std@@AEBV12@@?$basic_json@Vmap@std@@Vvector@2@V?$basic_string@DU?$char_traits@D@std@@V?$allocator@D@2@@2@_N_J_KNVallocator@2@Uadl_serializer@json_abi_v3_11_2@nlohmann@@V?$vector@EV?$allocator@E@std@@@2@@json_abi_v3_11_2@nlohmann@@CAPEAV?$basic_string@DU?$char_traits@D@std@@V?$allocator@D@2@@std@@AEBV45@@Z@AEAPEAV45@@?$_Compressed_pair@V<lambda_1>@?1???$create@V?$basic_string@DU?$char_traits@D@std@@V?$allocator@D@2@@std@@AEBV12@@?$basic_json@Vmap@std@@Vvector@2@V?$basic_string@DU?$char_traits@D@std@@V?$allocator@D@2@@2@_N_J_KNVallocator@2@Uadl_serializer@json_abi_v3_11_2@nlohmann@@V?$vector@EV?$allocator@E@std@@@2@@json_abi_v3_11_2@nlohmann@@CAPEAV?$basic_string@DU?$char_traits@D@std@@V?$allocator@D@2@@std@@AEBV56@@Z@PEAV56@$0A@@std@@QEAA@U_One_then_variadic_args_t@1@AEBV<lambda_1>@?1???$create@V?$basic_string@DU?$char_traits@D@std@@V?$allocator@D@2@@std@@AEBV12@@?$basic_json@Vmap@std@@Vvector@2@V?$basic_string@DU?$char_traits@D@std@@V?$allocator@D@2@@2@_N_J_KNVallocator@2@Uadl_serializer@json_abi_v3_11_2@nlohmann@@V?$vector@EV?$allocator@E@std@@@2@@json_abi_v3_11_2@nlohmann@@CAPEAV?$basic_string@DU?$char_traits@D@std@@V?$allocator@D@2@@1@AEBV71@@Z@AEAPEAV71@@Z
         66   41 00008B00 ??$?0AEBV<lambda_1>@?1???$create@V?$basic_string@DU?$char_traits@D@std@@V?$allocator@D@2@@std@@V12@@?$basic_json@Vmap@std@@Vvector@2@V?$basic_string@DU?$char_traits@D@std@@V?$allocator@D@2@@2@_N_J_KNVallocator@2@Uadl_serializer@json_abi_v3_11_2@nlohmann@@V?$vector@EV?$allocator@E@std@@@2@@json_abi_v3_11_2@nlohmann@@CAPEAV?$basic_string@DU?$char_traits@D@std@@V?$allocator@D@2@@std@@$$QEAV45@@Z@AEAPEAV45@@?$_Compressed_pair@V<lambda_1>@?1???$create@V?$basic_string@DU?$char_traits@D@std@@V?$allocator@D@2@@std@@V12@@?$basic_json@Vmap@std@@Vvector@2@V?$basic_string@DU?$char_traits@D@std@@V?$allocator@D@2@@2@_N_J_KNVallocator@2@Uadl_serializer@json_abi_v3_11_2@nlohmann@@V?$vector@EV?$allocator@E@std@@@2@@json_abi_v3_11_2@nlohmann@@CAPEAV?$basic_string@DU?$char_traits@D@std@@V?$allocator@D@2@@std@@$$QEAV56@@Z@PEAV56@$0A@@std@@QEAA@U_One_then_variadic_args_t@1@AEBV<lambda_1>@?1???$create@V?$basic_string@DU?$char_traits@D@std@@V?$allocator@D@2@@std@@V12@@?$basic_json@Vmap@std@@Vvector@2@V?$basic_string@DU?$char_traits@D@std@@V?$allocator@D@2@@2@_N_J_KNVallocator@2@Uadl_serializer@json_abi_v3_11_2@nlohmann@@V?$vector@EV?$allocator@E@std@@@2@@json_abi_v3_11_2@nlohmann@@CAPEAV?$basic_string@DU?$char_traits@D@std@@V?$allocator@D@2@@1@$$QEAV71@@Z@AEAPEAV71@@Z
         67   42 00008B00 ??$?0AEBV<lambda_1>@?1???$create@V?$byte_container_with_subtype@V?$vector@EV?$allocator@E@std@@@std@@@json_abi_v3_11_2@nlohmann@@$$V@?$basic_json@Vmap@std@@Vvector@2@V?$basic_string@DU?$char_traits@D@std@@V?$allocator@D@2@@2@_N_J_KNVallocator@2@Uadl_serializer@json_abi_v3_11_2@nlohmann@@V?$vector@EV?$allocator@E@std@@@2@@json_abi_v3_11_2@nlohmann@@CAPEAV?$byte_container_with_subtype@V?$vector@EV?$allocator@E@std@@@std@@@23@XZ@AEAPEAV423@@?$_Compressed_pair@V<lambda_1>@?1???$create@V?$byte_container_with_subtype@V?$vector@EV?$allocator@E@std@@@std@@@json_abi_v3_11_2@nlohmann@@$$V@?$basic_json@Vmap@std@@Vvector@2@V?$basic_string@DU?$char_traits@D@std@@V?$allocator@D@2@@2@_N_J_KNVallocator@2@Uadl_serializer@json_abi_v3_11_2@nlohmann@@V?$vector@EV?$allocator@E@std@@@2@@json_abi_v3_11_2@nlohmann@@CAPEAV?$byte_container_with_subtype@V?$vector@EV?$allocator@E@std@@@std@@@34@XZ@PEAV534@$0A@@std@@QEAA@U_One_then_variadic_args_t@1@AEBV<lambda_1>@?1???$create@V?$byte_container_with_subtype@V?$vector@EV?$allocator@E@std@@@std@@@json_abi_v3_11_2@nlohmann@@$$V@?$basic_json@Vmap@std@@Vvector@2@V?$basic_string@DU?$char_traits@D@std@@V?$allocator@D@2@@2@_N_J_KNVallocator@2@Uadl_serializer@json_abi_v3_11_2@nlohmann@@V?$vector@EV?$allocator@E@std@@@2@@json_abi_v3_11_2@nlohmann@@CAPEAV?$byte_container_with_subtype@V?$vector@EV?$allocator@E@std@@@std@@@56@XZ@AEAPEAV756@@Z
         68   43 00008B00 ??$?0AEBV<lambda_1>@?1???$create@V?$byte_container_with_subtype@V?$vector@EV?$allocator@E@std@@@std@@@json_abi_v3_11_2@nlohmann@@AEBV123@@?$basic_json@Vmap@std@@Vvector@2@V?$basic_string@DU?$char_traits@D@std@@V?$allocator@D@2@@2@_N_J_KNVallocator@2@Uadl_serializer@json_abi_v3_11_2@nlohmann@@V?$vector@EV?$allocator@E@std@@@2@@json_abi_v3_11_2@nlohmann@@CAPEAV?$byte_container_with_subtype@V?$vector@EV?$allocator@E@std@@@std@@@23@AEBV423@@Z@AEAPEAV423@@?$_Compressed_pair@V<lambda_1>@?1???$create@V?$byte_container_with_subtype@V?$vector@EV?$allocator@E@std@@@std@@@json_abi_v3_11_2@nlohmann@@AEBV123@@?$basic_json@Vmap@std@@Vvector@2@V?$basic_string@DU?$char_traits@D@std@@V?$allocator@D@2@@2@_N_J_KNVallocator@2@Uadl_serializer@json_abi_v3_11_2@nlohmann@@V?$vector@EV?$allocator@E@std@@@2@@json_abi_v3_11_2@nlohmann@@CAPEAV?$byte_container_with_subtype@V?$vector@EV?$allocator@E@std@@@std@@@34@AEBV534@@Z@PEAV534@$0A@@std@@QEAA@U_One_then_variadic_args_t@1@AEBV<lambda_1>@?1???$create@V?$byte_container_with_subtype@V?$vector@EV?$allocator@E@std@@@std@@@json_abi_v3_11_2@nlohmann@@AEBV123@@?$basic_json@Vmap@std@@Vvector@2@V?$basic_string@DU?$char_traits@D@std@@V?$allocator@D@2@@2@_N_J_KNVallocator@2@Uadl_serializer@json_abi_v3_11_2@nlohmann@@V?$vector@EV?$allocator@E@std@@@2@@json_abi_v3_11_2@nlohmann@@CAPEAV?$byte_container_with_subtype@V?$vector@EV?$allocator@E@std@@@std@@@56@AEBV756@@Z@AEAPEAV756@@Z
         69   44 00008B00 ??$?0AEBV<lambda_1>@?1???$create@V?$vector@V?$basic_json@Vmap@std@@Vvector@2@V?$basic_string@DU?$char_traits@D@std@@V?$allocator@D@2@@2@_N_J_KNVallocator@2@Uadl_serializer@json_abi_v3_11_2@nlohmann@@V?$vector@EV?$allocator@E@std@@@2@@json_abi_v3_11_2@nlohmann@@V?$allocator@V?$basic_json@Vmap@std@@Vvector@2@V?$basic_string@DU?$char_traits@D@std@@V?$allocator@D@2@@2@_N_J_KNVallocator@2@Uadl_serializer@json_abi_v3_11_2@nlohmann@@V?$vector@EV?$allocator@E@std@@@2@@json_abi_v3_11_2@nlohmann@@@std@@@std@@$$V@?$basic_json@Vmap@std@@Vvector@2@V?$basic_string@DU?$char_traits@D@std@@V?$allocator@D@2@@2@_N_J_KNVallocator@2@Uadl_serializer@json_abi_v3_11_2@nlohmann@@V?$vector@EV?$allocator@E@std@@@2@@json_abi_v3_11_2@nlohmann@@CAPEAV?$vector@V?$basic_json@Vmap@std@@Vvector@2@V?$basic_string@DU?$char_traits@D@std@@V?$allocator@D@2@@2@_N_J_KNVallocator@2@Uadl_serializer@json_abi_v3_11_2@nlohmann@@V?$vector@EV?$allocator@E@std@@@2@@json_abi_v3_11_2@nlohmann@@V?$allocator@V?$basic_json@Vmap@std@@Vvector@2@V?$basic_string@DU?$char_traits@D@std@@V?$allocator@D@2@@2@_N_J_KNVallocator@2@Uadl_serializer@json_abi_v3_11_2@nlohmann@@V?$vector@EV?$allocator@E@std@@@2@@json_abi_v3_11_2@nlohmann@@@std@@@std@@XZ@AEAPEAV45@@?$_Compressed_pair@V<lambda_1>@?1???$create@V?$vector@V?$basic_json@Vmap@std@@Vvector@2@V?$basic_string@DU?$char_traits@D@std@@V?$allocator@D@2@@2@_N_J_KNVallocator@2@Uadl_serializer@json_abi_v3_11_2@nlohmann@@V?$vector@EV?$allocator@E@std@@@2@@json_abi_v3_11_2@nlohmann@@V?$allocator@V?$basic_json@Vmap@std@@Vvector@2@V?$basic_string@DU?$char_traits@D@std@@V?$allocator@D@2@@2@_N_J_KNVallocator@2@Uadl_serializer@json_abi_v3_11_2@nlohmann@@V?$vector@EV?$allocator@E@std@@@2@@json_abi_v3_11_2@nlohmann@@@std@@@std@@$$V@?$basic_json@Vmap@std@@Vvector@2@V?$basic_string@DU?$char_traits@D@std@@V?$allocator@D@2@@2@_N_J_KNVallocator@2@Uadl_serializer@json_abi_v3_11_2@nlohmann@@V?$vector@EV?$allocator@E@std@@@2@@json_abi_v3_11_2@nlohmann@@CAPEAV?$vector@V?$basic_json@Vmap@std@@Vvector@2@V?$basic_string@DU?$char_traits@D@std@@V?$allocator@D@2@@2@_N_J_KNVallocator@2@Uadl_serializer@json_abi_v3_11_2@nlohmann@@V?$vector@EV?$allocator@E@std@@@2@@json_abi_v3_11_2@nlohmann@@V?$allocator@V?$basic_json@Vmap@std@@Vvector@2@V?$basic_string@DU?$char_traits@D@std@@V?$allocator@D@2@@2@_N_J_KNVallocator@2@Uadl_serializer@json_abi_v3_11_2@nlohmann@@V?$vector@EV?$allocator@E@std@@@2@@json_abi_v3_11_2@nlohmann@@@std@@@std@@XZ@PEAV56@$0A@@std@@QEAA@U_One_then_variadic_args_t@1@AEBV<lambda_1>@?1???$create@V?$vector@V?$basic_json@Vmap@std@@Vvector@2@V?$basic_string@DU?$char_traits@D@std@@V?$allocator@D@2@@2@_N_J_KNVallocator@2@Uadl_serializer@json_abi_v3_11_2@nlohmann@@V?$vector@EV?$allocator@E@std@@@2@@json_abi_v3_11_2@nlohmann@@V?$allocator@V?$basic_json@Vmap@std@@Vvector@2@V?$basic_string@DU?$char_traits@D@std@@V?$allocator@D@2@@2@_N_J_KNVallocator@2@Uadl_serializer@json_abi_v3_11_2@nlohmann@@V?$vector@EV?$allocator@E@std@@@2@@json_abi_v3_11_2@nlohmann@@@std@@@std@@$$V@?$basic_json@Vmap@std@@Vvector@2@V?$basic_string@DU?$char_traits@D@std@@V?$allocator@D@2@@2@_N_J_KNVallocator@2@Uadl_serializer@json_abi_v3_11_2@nlohmann@@V?$vector@EV?$allocator@E@std@@@2@@json_abi_v3_11_2@nlohmann@@CAPEAV?$vector@V?$basic_json@Vmap@std@@Vvector@2@V?$basic_string@DU?$char_traits@D@std@@V?$allocator@D@2@@2@_N_J_KNVallocator@2@Uadl_serializer@json_abi_v3_11_2@nlohmann@@V?$vector@EV?$allocator@E@std@@@2@@json_abi_v3_11_2@nlohmann@@V?$allocator@V?$basic_json@Vmap@std@@Vvector@2@V?$basic_string@DU?$char_traits@D@std@@V?$allocator@D@2@@2@_N_J_KNVallocator@2@Uadl_serializer@json_abi_v3_11_2@nlohmann@@V?$vector@EV?$allocator@E@std@@@2@@json_abi_v3_11_2@nlohmann@@@std@@@1@XZ@AEAPEAV71@@Z
         70   45 00008B00 ??$?0AEBV<lambda_1>@?1???$create@V?$vector@V?$basic_json@Vmap@std@@Vvector@2@V?$basic_string@DU?$char_traits@D@std@@V?$allocator@D@2@@2@_N_J_KNVallocator@2@Uadl_serializer@json_abi_v3_11_2@nlohmann@@V?$vector@EV?$allocator@E@std@@@2@@json_abi_v3_11_2@nlohmann@@V?$allocator@V?$basic_json@Vmap@std@@Vvector@2@V?$basic_string@DU?$char_traits@D@std@@V?$allocator@D@2@@2@_N_J_KNVallocator@2@Uadl_serializer@json_abi_v3_11_2@nlohmann@@V?$vector@EV?$allocator@E@std@@@2@@json_abi_v3_11_2@nlohmann@@@std@@@std@@AEBV12@@?$basic_json@Vmap@std@@Vvector@2@V?$basic_string@DU?$char_traits@D@std@@V?$allocator@D@2@@2@_N_J_KNVallocator@2@Uadl_serializer@json_abi_v3_11_2@nlohmann@@V?$vector@EV?$allocator@E@std@@@2@@json_abi_v3_11_2@nlohmann@@CAPEAV?$vector@V?$basic_json@Vmap@std@@Vvector@2@V?$basic_string@DU?$char_traits@D@std@@V?$allocator@D@2@@2@_N_J_KNVallocator@2@Uadl_serializer@json_abi_v3_11_2@nlohmann@@V?$vector@EV?$allocator@E@std@@@2@@json_abi_v3_11_2@nlohmann@@V?$allocator@V?$basic_json@Vmap@std@@Vvector@2@V?$basic_string@DU?$char_traits@D@std@@V?$allocator@D@2@@2@_N_J_KNVallocator@2@Uadl_serializer@json_abi_v3_11_2@nlohmann@@V?$vector@EV?$allocator@E@std@@@2@@json_abi_v3_11_2@nlohmann@@@std@@@std@@AEBV45@@Z@AEAPEAV45@@?$_Compressed_pair@V<lambda_1>@?1???$create@V?$vector@V?$basic_json@Vmap@std@@Vvector@2@V?$basic_string@DU?$char_traits@D@std@@V?$allocator@D@2@@2@_N_J_KNVallocator@2@Uadl_serializer@json_abi_v3_11_2@nlohmann@@V?$vector@EV?$allocator@E@std@@@2@@json_abi_v3_11_2@nlohmann@@V?$allocator@V?$basic_json@Vmap@std@@Vvector@2@V?$basic_string@DU?$char_traits@D@std@@V?$allocator@D@2@@2@_N_J_KNVallocator@2@Uadl_serializer@json_abi_v3_11_2@nlohmann@@V?$vector@EV?$allocator@E@std@@@2@@json_abi_v3_11_2@nlohmann@@@std@@@std@@AEBV12@@?$basic_json@Vmap@std@@Vvector@2@V?$basic_string@DU?$char_traits@D@std@@V?$allocator@D@2@@2@_N_J_KNVallocator@2@Uadl_serializer@json_abi_v3_11_2@nlohmann@@V?$vector@EV?$allocator@E@std@@@2@@json_abi_v3_11_2@nlohmann@@CAPEAV?$vector@V?$basic_json@Vmap@std@@Vvector@2@V?$basic_string@DU?$char_traits@D@std@@V?$allocator@D@2@@2@_N_J_KNVallocator@2@Uadl_serializer@json_abi_v3_11_2@nlohmann@@V?$vector@EV?$allocator@E@std@@@2@@json_abi_v3_11_2@nlohmann@@V?$allocator@V?$basic_json@Vmap@std@@Vvector@2@V?$basic_string@DU?$char_traits@D@std@@V?$allocator@D@2@@2@_N_J_KNVallocator@2@Uadl_serializer@json_abi_v3_11_2@nlohmann@@V?$vector@EV?$allocator@E@std@@@2@@json_abi_v3_11_2@nlohmann@@@std@@@std@@AEBV56@@Z@PEAV56@$0A@@std@@QEAA@U_One_then_variadic_args_t@1@AEBV<lambda_1>@?1???$create@V?$vector@V?$basic_json@Vmap@std@@Vvector@2@V?$basic_string@DU?$char_traits@D@std@@V?$allocator@D@2@@2@_N_J_KNVallocator@2@Uadl_serializer@json_abi_v3_11_2@nlohmann@@V?$vector@EV?$allocator@E@std@@@2@@json_abi_v3_11_2@nlohmann@@V?$allocator@V?$basic_json@Vmap@std@@Vvector@2@V?$basic_string@DU?$char_traits@D@std@@V?$allocator@D@2@@2@_N_J_KNVallocator@2@Uadl_serializer@json_abi_v3_11_2@nlohmann@@V?$vector@EV?$allocator@E@std@@@2@@json_abi_v3_11_2@nlohmann@@@std@@@std@@AEBV12@@?$basic_json@Vmap@std@@Vvector@2@V?$basic_string@DU?$char_traits@D@std@@V?$allocator@D@2@@2@_N_J_KNVallocator@2@Uadl_serializer@json_abi_v3_11_2@nlohmann@@V?$vector@EV?$allocator@E@std@@@2@@json_abi_v3_11_2@nlohmann@@CAPEAV?$vector@V?$basic_json@Vmap@std@@Vvector@2@V?$basic_string@DU?$char_traits@D@std@@V?$allocator@D@2@@2@_N_J_KNVallocator@2@Uadl_serializer@json_abi_v3_11_2@nlohmann@@V?$vector@EV?$allocator@E@std@@@2@@json_abi_v3_11_2@nlohmann@@V?$allocator@V?$basic_json@Vmap@std@@Vvector@2@V?$basic_string@DU?$char_traits@D@std@@V?$allocator@D@2@@2@_N_J_KNVallocator@2@Uadl_serializer@json_abi_v3_11_2@nlohmann@@V?$vector@EV?$allocator@E@std@@@2@@json_abi_v3_11_2@nlohmann@@@std@@@1@AEBV71@@Z@AEAPEAV71@@Z
         71   46 00002000 ??$?0AEBV?$allocator@D@std@@$$V@?$_Compressed_pair@V?$allocator@D@std@@V?$_String_val@U?$_Simple_types@D@std@@@2@$00@std@@QEAA@U_One_then_variadic_args_t@1@AEBV?$allocator@D@1@@Z
         72   47 00002B10 ??$?0AEBV?$allocator@PEAVBehavior@pineBT@@@std@@$$V@?$_Compressed_pair@V?$allocator@PEAVBehavior@pineBT@@@std@@V?$_Deque_val@U?$_Deque_simple_types@PEAVBehavior@pineBT@@@std@@@2@$00@std@@QEAA@U_One_then_variadic_args_t@1@AEBV?$allocator@PEAVBehavior@pineBT@@@1@@Z
         73   48 00003E40 ??$?0AEBV?$allocator@U?$_List_node@U?$pair@$$CBV?$basic_string@DU?$char_traits@D@std@@V?$allocator@D@2@@std@@H@std@@PEAX@std@@@std@@$$V@?$_Compressed_pair@V?$allocator@V?$_List_unchecked_iterator@V?$_List_val@U?$_List_simple_types@U?$pair@$$CBV?$basic_string@DU?$char_traits@D@std@@V?$allocator@D@2@@std@@H@std@@@std@@@std@@@std@@@std@@V?$_Vector_val@U?$_Simple_types@V?$_List_unchecked_iterator@V?$_List_val@U?$_List_simple_types@U?$pair@$$CBV?$basic_string@DU?$char_traits@D@std@@V?$allocator@D@2@@std@@H@std@@@std@@@std@@@std@@@std@@@2@$00@std@@QEAA@U_One_then_variadic_args_t@1@AEBV?$allocator@U?$_List_node@U?$pair@$$CBV?$basic_string@DU?$char_traits@D@std@@V?$allocator@D@2@@std@@H@std@@PEAX@std@@@1@@Z
         74   49 00003E40 ??$?0AEBV?$allocator@U?$_List_node@U?$pair@$$CBV?$basic_string@DU?$char_traits@D@std@@V?$allocator@D@2@@std@@H@std@@PEAX@std@@@std@@$0A@@?$_Hash_vec@V?$allocator@V?$_List_unchecked_iterator@V?$_List_val@U?$_List_simple_types@U?$pair@$$CBV?$basic_string@DU?$char_traits@D@std@@V?$allocator@D@2@@std@@H@std@@@std@@@std@@@std@@@std@@@std@@QEAA@AEBV?$allocator@U?$_List_node@U?$pair@$$CBV?$basic_string@DU?$char_traits@D@std@@V?$allocator@D@2@@std@@H@std@@PEAX@std@@@1@@Z
         75   4A 00003E60 ??$?0AEBV?$allocator@U?$pair@$$CBHV?$unique_ptr@VBehaviorTree@pineBT@@U?$default_delete@VBehaviorTree@pineBT@@@std@@@std@@@std@@@std@@$$V@?$_Compressed_pair@V?$allocator@U?$_List_node@U?$pair@$$CBHV?$unique_ptr@VBehaviorTree@pineBT@@U?$default_delete@VBehaviorTree@pineBT@@@std@@@std@@@std@@PEAX@std@@@std@@V?$_List_val@U?$_List_simple_types@U?$pair@$$CBHV?$unique_ptr@VBehaviorTree@pineBT@@U?$default_delete@VBehaviorTree@pineBT@@@std@@@std@@@std@@@std@@@2@$00@std@@QEAA@U_One_then_variadic_args_t@1@AEBV?$allocator@U?$pair@$$CBHV?$unique_ptr@VBehaviorTree@pineBT@@U?$default_delete@VBehaviorTree@pineBT@@@std@@@std@@@std@@@1@@Z
         76   4B 00003E40 ??$?0AEBV?$allocator@U?$pair@$$CBHV?$unique_ptr@VBehaviorTree@pineBT@@U?$default_delete@VBehaviorTree@pineBT@@@std@@@std@@@std@@@std@@$$V@?$_Compressed_pair@V?$allocator@V?$_List_unchecked_iterator@V?$_List_val@U?$_List_simple_types@U?$pair@$$CBHV?$unique_ptr@VBehaviorTree@pineBT@@U?$default_delete@VBehaviorTree@pineBT@@@std@@@std@@@std@@@std@@@std@@@std@@@std@@V?$_Vector_val@U?$_Simple_types@V?$_List_unchecked_iterator@V?$_List_val@U?$_List_simple_types@U?$pair@$$CBHV?$unique_ptr@VBehaviorTree@pineBT@@U?$default_delete@VBehaviorTree@pineBT@@@std@@@std@@@std@@@std@@@std@@@std@@@std@@@2@$00@std@@QEAA@U_One_then_variadic_args_t@1@AEBV?$allocator@U?$pair@$$CBHV?$unique_ptr@VBehaviorTree@pineBT@@U?$default_delete@VBehaviorTree@pineBT@@@std@@@std@@@std@@@1@@Z
         77   4C 00003E40 ??$?0AEBV?$allocator@U?$pair@$$CBHV?$unique_ptr@VBehaviorTree@pineBT@@U?$default_delete@VBehaviorTree@pineBT@@@std@@@std@@@std@@@std@@$0A@@?$_Hash_vec@V?$allocator@V?$_List_unchecked_iterator@V?$_List_val@U?$_List_simple_types@U?$pair@$$CBHV?$unique_ptr@VBehaviorTree@pineBT@@U?$default_delete@VBehaviorTree@pineBT@@@std@@@std@@@std@@@std@@@std@@@std@@@std@@@std@@QEAA@AEBV?$allocator@U?$pair@$$CBHV?$unique_ptr@VBehaviorTree@pineBT@@U?$default_delete@VBehaviorTree@pineBT@@@std@@@std@@@std@@@1@@Z
         78   4D 00003E60 ??$?0AEBV?$allocator@U?$pair@$$CBIW4Result@Behavior@pineBT@@@std@@@std@@$$V@?$_Compressed_pair@V?$allocator@U?$_List_node@U?$pair@$$CBIW4Result@Behavior@pineBT@@@std@@PEAX@std@@@std@@V?$_List_val@U?$_List_simple_types@U?$pair@$$CBIW4Result@Behavior@pineBT@@@std@@@std@@@2@$00@std@@QEAA@U_One_then_variadic_args_t@1@AEBV?$allocator@U?$pair@$$CBIW4Result@Behavior@pineBT@@@std@@@1@@Z
         79   4E 00003E40 ??$?0AEBV?$allocator@U?$pair@$$CBIW4Result@Behavior@pineBT@@@std@@@std@@$$V@?$_Compressed_pair@V?$allocator@V?$_List_unchecked_iterator@V?$_List_val@U?$_List_simple_types@U?$pair@$$CBIW4Result@Behavior@pineBT@@@std@@@std@@@std@@@std@@@std@@V?$_Vector_val@U?$_Simple_types@V?$_List_unchecked_iterator@V?$_List_val@U?$_List_simple_types@U?$pair@$$CBIW4Result@Behavior@pineBT@@@std@@@std@@@std@@@std@@@std@@@2@$00@std@@QEAA@U_One_then_variadic_args_t@1@AEBV?$allocator@U?$pair@$$CBIW4Result@Behavior@pineBT@@@std@@@1@@Z
         80   4F 00003E40 ??$?0AEBV?$allocator@U?$pair@$$CBIW4Result@Behavior@pineBT@@@std@@@std@@$0A@@?$_Hash_vec@V?$allocator@V?$_List_unchecked_iterator@V?$_List_val@U?$_List_simple_types@U?$pair@$$CBIW4Result@Behavior@pineBT@@@std@@@std@@@std@@@std@@@std@@@std@@QEAA@AEBV?$allocator@U?$pair@$$CBIW4Result@Behavior@pineBT@@@std@@@1@@Z
         81   50 00003E60 ??$?0AEBV?$allocator@U?$pair@$$CBV?$basic_string@DU?$char_traits@D@std@@V?$allocator@D@2@@std@@H@std@@@std@@$$V@?$_Compressed_pair@V?$allocator@U?$_List_node@U?$pair@$$CBV?$basic_string@DU?$char_traits@D@std@@V?$allocator@D@2@@std@@H@std@@PEAX@std@@@std@@V?$_List_val@U?$_List_simple_types@U?$pair@$$CBV?$basic_string@DU?$char_traits@D@std@@V?$allocator@D@2@@std@@H@std@@@std@@@2@$00@std@@QEAA@U_One_then_variadic_args_t@1@AEBV?$allocator@U?$pair@$$CBV?$basic_string@DU?$char_traits@D@std@@V?$allocator@D@2@@std@@H@std@@@1@@Z
         82   51 00003E40 ??$?0AEBV?$allocator@U?$pair@$$CBV?$basic_string@DU?$char_traits@D@std@@V?$allocator@D@2@@std@@H@std@@@std@@$$V@?$_Compressed_pair@V?$allocator@V?$_List_unchecked_iterator@V?$_List_val@U?$_List_simple_types@U?$pair@$$CBV?$basic_string@DU?$char_traits@D@std@@V?$allocator@D@2@@std@@H@std@@@std@@@std@@@std@@@std@@V?$_Vector_val@U?$_Simple_types@V?$_List_unchecked_iterator@V?$_List_val@U?$_List_simple_types@U?$pair@$$CBV?$basic_string@DU?$char_traits@D@std@@V?$allocator@D@2@@std@@H@std@@@std@@@std@@@std@@@std@@@2@$00@std@@QEAA@U_One_then_variadic_args_t@1@AEBV?$allocator@U?$pair@$$CBV?$basic_string@DU?$char_traits@D@std@@V?$allocator@D@2@@std@@H@std@@@1@@Z
         83   52 00003E40 ??$?0AEBV?$allocator@U?$pair@$$CBV?$basic_string@DU?$char_traits@D@std@@V?$allocator@D@2@@std@@H@std@@@std@@$0A@@?$_Hash_vec@V?$allocator@V?$_List_unchecked_iterator@V?$_List_val@U?$_List_simple_types@U?$pair@$$CBV?$basic_string@DU?$char_traits@D@std@@V?$allocator@D@2@@std@@H@std@@@std@@@std@@@std@@@std@@@std@@QEAA@AEBV?$allocator@U?$pair@$$CBV?$basic_string@DU?$char_traits@D@std@@V?$allocator@D@2@@std@@H@std@@@1@@Z
         84   53 00003E60 ??$?0AEBV?$allocator@U?$pair@$$CBV?$basic_string@DU?$char_traits@D@std@@V?$allocator@D@2@@std@@UBehaviorSchema@pineBT@@@std@@@std@@$$V@?$_Compressed_pair@V?$allocator@U?$_List_node@U?$pair@$$CBV?$basic_string@DU?$char_traits@D@std@@V?$allocator@D@2@@std@@UBehaviorSchema@pineBT@@@std@@PEAX@std@@@std@@V?$_List_val@U?$_List_simple_types@U?$pair@$$CBV?$basic_string@DU?$char_traits@D@std@@V?$allocator@D@2@@std@@UBehaviorSchema@pineBT@@@std@@@std@@@2@$00@std@@QEAA@U_One_then_variadic_args_t@1@AEBV?$allocator@U?$pair@$$CBV?$basic_string@DU?$char_traits@D@std@@V?$allocator@D@2@@std@@UBehaviorSchema@pineBT@@@std@@@1@@Z
         85   54 00003E40 ??$?0AEBV?$allocator@U?$pair@$$CBV?$basic_string@DU?$char_traits@D@std@@V?$allocator@D@2@@std@@UBehaviorSchema@pineBT@@@std@@@std@@$$V@?$_Compressed_pair@V?$allocator@V?$_List_unchecked_iterator@V?$_List_val@U?$_List_simple_types@U?$pair@$$CBV?$basic_string@DU?$char_traits@D@std@@V?$allocator@D@2@@std@@UBehaviorSchema@pineBT@@@std@@@std@@@std@@@std@@@std@@V?$_Vector_val@U?$_Simple_types@V?$_List_unchecked_iterator@V?$_List_val@U?$_List_simple_types@U?$pair@$$CBV?$basic_string@DU?$char_traits@D@std@@V?$allocator@D@2@@std@@UBehaviorSchema@pineBT@@@std@@@std@@@std@@@std@@@std@@@2@$00@std@@QEAA@U_One_then_variadic_args_t@1@AEBV?$allocator@U?$pair@$$CBV?$basic_string@DU?$char_traits@D@std@@V?$allocator@D@2@@std@@UBehaviorSchema@pineBT@@@std@@@1@@Z
         86   55 00003E40 ??$?0AEBV?$allocator@U?$pair@$$CBV?$basic_string@DU?$char_traits@D@std@@V?$allocator@D@2@@std@@UBehaviorSchema@pineBT@@@std@@@std@@$0A@@?$_Hash_vec@V?$allocator@V?$_List_unchecked_iterator@V?$_List_val@U?$_List_simple_types@U?$pair@$$CBV?$basic_string@DU?$char_traits@D@std@@V?$allocator@D@2@@std@@UBehaviorSchema@pineBT@@@std@@@std@@@std@@@std@@@std@@@std@@QEAA@AEBV?$allocator@U?$pair@$$CBV?$basic_string@DU?$char_traits@D@std@@V?$allocator@D@2@@std@@UBehaviorSchema@pineBT@@@std@@@1@@Z
         87   56 00003E60 ??$?0AEBV?$allocator@U?$pair@$$CBV?$basic_string@DU?$char_traits@D@std@@V?$allocator@D@2@@std@@V?$function@$$A6APEAVBehavior@pineBT@@AEBV?$basic_string@DU?$char_traits@D@std@@V?$allocator@D@2@@std@@AEAVBehaviorTree@2@@Z@2@@std@@@std@@$$V@?$_Compressed_pair@V?$allocator@U?$_List_node@U?$pair@$$CBV?$basic_string@DU?$char_traits@D@std@@V?$allocator@D@2@@std@@V?$function@$$A6APEAVBehavior@pineBT@@AEBV?$basic_string@DU?$char_traits@D@std@@V?$allocator@D@2@@std@@AEAVBehaviorTree@2@@Z@2@@std@@PEAX@std@@@std@@V?$_List_val@U?$_List_simple_types@U?$pair@$$CBV?$basic_string@DU?$char_traits@D@std@@V?$allocator@D@2@@std@@V?$function@$$A6APEAVBehavior@pineBT@@AEBV?$basic_string@DU?$char_traits@D@std@@V?$allocator@D@2@@std@@AEAVBehaviorTree@2@@Z@2@@std@@@std@@@2@$00@std@@QEAA@U_One_then_variadic_args_t@1@AEBV?$allocator@U?$pair@$$CBV?$basic_string@DU?$char_traits@D@std@@V?$allocator@D@2@@std@@V?$function@$$A6APEAVBehavior@pineBT@@AEBV?$basic_string@DU?$char_traits@D@std@@V?$allocator@D@2@@std@@AEAVBehaviorTree@2@@Z@2@@std@@@1@@Z
         88   57 00003E40 ??$?0AEBV?$allocator@U?$pair@$$CBV?$basic_string@DU?$char_traits@D@std@@V?$allocator@D@2@@std@@V?$function@$$A6APEAVBehavior@pineBT@@AEBV?$basic_string@DU?$char_traits@D@std@@V?$allocator@D@2@@std@@AEAVBehaviorTree@2@@Z@2@@std@@@std@@$$V@?$_Compressed_pair@V?$allocator@V?$_List_unchecked_iterator@V?$_List_val@U?$_List_simple_types@U?$pair@$$CBV?$basic_string@DU?$char_traits@D@std@@V?$allocator@D@2@@std@@V?$function@$$A6APEAVBehavior@pineBT@@AEBV?$basic_string@DU?$char_traits@D@std@@V?$allocator@D@2@@std@@AEAVBehaviorTree@2@@Z@2@@std@@@std@@@std@@@std@@@std@@V?$_Vector_val@U?$_Simple_types@V?$_List_unchecked_iterator@V?$_List_val@U?$_List_simple_types@U?$pair@$$CBV?$basic_string@DU?$char_traits@D@std@@V?$allocator@D@2@@std@@V?$function@$$A6APEAVBehavior@pineBT@@AEBV?$basic_string@DU?$char_traits@D@std@@V?$allocator@D@2@@std@@AEAVBehaviorTree@2@@Z@2@@std@@@std@@@std@@@std@@@std@@@2@$00@std@@QEAA@U_One_then_variadic_args_t@1@AEBV?$allocator@U?$pair@$$CBV?$basic_string@DU?$char_traits@D@std@@V?$allocator@D@2@@std@@V?$function@$$A6APEAVBehavior@pineBT@@AEBV?$basic_string@DU?$char_traits@D@std@@V?$allocator@D@2@@std@@AEAVBehaviorTree@2@@Z@2@@std@@@1@@Z
         89   58 00003E40 ??$?0AEBV?$allocator@U?$pair@$$CBV?$basic_string@DU?$char_traits@D@std@@V?$allocator@D@2@@std@@V?$function@$$A6APEAVBehavior@pineBT@@AEBV?$basic_string@DU?$char_traits@D@std@@V?$allocator@D@2@@std@@AEAVBehaviorTree@2@@Z@2@@std@@@std@@$0A@@?$_Hash_vec@V?$allocator@V?$_List_unchecked_iterator@V?$_List_val@U?$_List_simple_types@U?$pair@$$CBV?$basic_string@DU?$char_traits@D@std@@V?$allocator@D@2@@std@@V?$function@$$A6APEAVBehavior@pineBT@@AEBV?$basic_string@DU?$char_traits@D@std@@V?$allocator@D@2@@std@@AEAVBehaviorTree@2@@Z@2@@std@@@std@@@std@@@std@@@std@@@std@@QEAA@AEBV?$allocator@U?$pair@$$CBV?$basic_string@DU?$char_traits@D@std@@V?$allocator@D@2@@std@@V?$function@$$A6APEAVBehavior@pineBT@@AEBV?$basic_string@DU?$char_traits@D@std@@V?$allocator@D@2@@std@@AEAVBehaviorTree@2@@Z@2@@std@@@1@@Z
         90   59 00005900 ??$?0AEBV?$basic_string@DU?$char_traits@D@std@@V?$allocator@D@2@@std@@$$Z$$V@?$pair@$$CBV?$basic_string@DU?$char_traits@D@std@@V?$allocator@D@2@@std@@H@std@@QEAA@Upiecewise_construct_t@1@V?$tuple@AEBV?$basic_string@DU?$char_traits@D@std@@V?$allocator@D@2@@std@@@1@V?$tuple@$$V@1@@Z
         91   5A 00008B20 ??$?0AEBV?$basic_string@DU?$char_traits@D@std@@V?$allocator@D@2@@std@@$$Z$$V@?$pair@$$CBV?$basic_string@DU?$char_traits@D@std@@V?$allocator@D@2@@std@@UBehaviorSchema@pineBT@@@std@@QEAA@Upiecewise_construct_t@1@V?$tuple@AEBV?$basic_string@DU?$char_traits@D@std@@V?$allocator@D@2@@std@@@1@V?$tuple@$$V@1@@Z
         92   5B 0002D9D0 ??$?0AEBV?$basic_string@DU?$char_traits@D@std@@V?$allocator@D@2@@std@@$$Z$$V@?$pair@$$CBV?$basic_string@DU?$char_traits@D@std@@V?$allocator@D@2@@std@@V?$basic_json@Vmap@std@@Vvector@2@V?$basic_string@DU?$char_traits@D@std@@V?$allocator@D@2@@2@_N_J_KNVallocator@2@Uadl_serializer@json_abi_v3_11_2@nlohmann@@V?$vector@EV?$allocator@E@std@@@2@@json_abi_v3_11_2@nlohmann@@@std@@QEAA@Upiecewise_construct_t@1@V?$tuple@AEBV?$basic_string@DU?$char_traits@D@std@@V?$allocator@D@2@@std@@@1@V?$tuple@$$V@1@@Z
         93   5C 00008C20 ??$?0AEBV?$basic_string@DU?$char_traits@D@std@@V?$allocator@D@2@@std@@$$Z$$V@?$pair@$$CBV?$basic_string@DU?$char_traits@D@std@@V?$allocator@D@2@@std@@V?$function@$$A6APEAVBehavior@pineBT@@AEBV?$basic_string@DU?$char_traits@D@std@@V?$allocator@D@2@@std@@AEAVBehaviorTree@2@@Z@2@@std@@QEAA@Upiecewise_construct_t@1@V?$tuple@AEBV?$basic_string@DU?$char_traits@D@std@@V?$allocator@D@2@@std@@@1@V?$tuple@$$V@1@@Z
         94   5D 000031C0 ??$?0AEBV?$basic_string@DU?$char_traits@D@std@@V?$allocator@D@2@@std@@$0A@@?$tuple@AEBV?$basic_string@DU?$char_traits@D@std@@V?$allocator@D@2@@std@@@std@@QEAA@AEBV?$basic_string@DU?$char_traits@D@std@@V?$allocator@D@2@@1@@Z
         95   5E 000031C0 ??$?0AEBV?$basic_string@DU?$char_traits@D@std@@V?$allocator@D@2@@std@@@?$_Tuple_val@AEBV?$basic_string@DU?$char_traits@D@std@@V?$allocator@D@2@@std@@@std@@QEAA@AEBV?$basic_string@DU?$char_traits@D@std@@V?$allocator@D@2@@1@@Z
         96   5F 00008C50 ??$?0AEBV?$basic_string@DU?$char_traits@D@std@@V?$allocator@D@2@@std@@V01@$0A@@?$basic_json@Vmap@std@@Vvector@2@V?$basic_string@DU?$char_traits@D@std@@V?$allocator@D@2@@2@_N_J_KNVallocator@2@Uadl_serializer@json_abi_v3_11_2@nlohmann@@V?$vector@EV?$allocator@E@std@@@2@@json_abi_v3_11_2@nlohmann@@QEAA@AEBV?$basic_string@DU?$char_traits@D@std@@V?$allocator@D@2@@std@@@Z
         97   60 00003E70 ??$?0M@?$_Compressed_pair@U?$equal_to@H@std@@M$00@std@@QEAA@U_Zero_then_variadic_args_t@1@$$QEAM@Z
         98   61 00003E70 ??$?0M@?$_Compressed_pair@U?$equal_to@I@std@@M$00@std@@QEAA@U_Zero_then_variadic_args_t@1@$$QEAM@Z
         99   62 00003E70 ??$?0M@?$_Compressed_pair@U?$equal_to@V?$basic_string@DU?$char_traits@D@std@@V?$allocator@D@2@@std@@@std@@M$00@std@@QEAA@U_Zero_then_variadic_args_t@1@$$QEAM@Z
        100   63 00008CD0 ??$?0PEAD$0A@@?$basic_string@DU?$char_traits@D@std@@V?$allocator@D@2@@std@@QEAA@PEAD0AEBV?$allocator@D@1@@Z
        101   64 00008860 ??$?0PEADW4errc@std@@$0A@@?$pair@PEADW4errc@std@@@std@@QEAA@$$QEAPEAD$$QEAW4errc@1@@Z
        102   65 00005810 ??$?0PEAU?$_List_node@U?$pair@$$CBHV?$unique_ptr@VBehaviorTree@pineBT@@U?$default_delete@VBehaviorTree@pineBT@@@std@@@std@@@std@@PEAX@std@@_N$0A@@?$pair@PEAU?$_List_node@U?$pair@$$CBHV?$unique_ptr@VBehaviorTree@pineBT@@U?$default_delete@VBehaviorTree@pineBT@@@std@@@std@@@std@@PEAX@std@@_N@std@@QEAA@$$QEAPEAU?$_List_node@U?$pair@$$CBHV?$unique_ptr@VBehaviorTree@pineBT@@U?$default_delete@VBehaviorTree@pineBT@@@std@@@std@@@std@@PEAX@1@$$QEA_N@Z
        103   66 00005810 ??$?0PEAU?$_List_node@U?$pair@$$CBIW4Result@Behavior@pineBT@@@std@@PEAX@std@@_N$0A@@?$pair@PEAU?$_List_node@U?$pair@$$CBIW4Result@Behavior@pineBT@@@std@@PEAX@std@@_N@std@@QEAA@$$QEAPEAU?$_List_node@U?$pair@$$CBIW4Result@Behavior@pineBT@@@std@@PEAX@1@$$QEA_N@Z
        104   67 00005810 ??$?0PEAU?$_List_node@U?$pair@$$CBV?$basic_string@DU?$char_traits@D@std@@V?$allocator@D@2@@std@@H@std@@PEAX@std@@_N$0A@@?$pair@PEAU?$_List_node@U?$pair@$$CBV?$basic_string@DU?$char_traits@D@std@@V?$allocator@D@2@@std@@H@std@@PEAX@std@@_N@std@@QEAA@$$QEAPEAU?$_List_node@U?$pair@$$CBV?$basic_string@DU?$char_traits@D@std@@V?$allocator@D@2@@std@@H@std@@PEAX@1@$$QEA_N@Z
        105   68 00005810 ??$?0PEAU?$_List_node@U?$pair@$$CBV?$basic_string@DU?$char_traits@D@std@@V?$allocator@D@2@@std@@UBehaviorSchema@pineBT@@@std@@PEAX@std@@_N$0A@@?$pair@PEAU?$_List_node@U?$pair@$$CBV?$basic_string@DU?$char_traits@D@std@@V?$allocator@D@2@@std@@UBehaviorSchema@pineBT@@@std@@PEAX@std@@_N@std@@QEAA@$$QEAPEAU?$_List_node@U?$pair@$$CBV?$basic_string@DU?$char_traits@D@std@@V?$allocator@D@2@@std@@UBehaviorSchema@pineBT@@@std@@PEAX@1@$$QEA_N@Z
        106   69 00005810 ??$?0PEAU?$_List_node@U?$pair@$$CBV?$basic_string@DU?$char_traits@D@std@@V?$allocator@D@2@@std@@V?$function@$$A6APEAVBehavior@pineBT@@AEBV?$basic_string@DU?$char_traits@D@std@@V?$allocator@D@2@@std@@AEAVBehaviorTree@2@@Z@2@@std@@PEAX@std@@_N$0A@@?$pair@PEAU?$_List_node@U?$pair@$$CBV?$basic_string@DU?$char_traits@D@std@@V?$allocator@D@2@@std@@V?$function@$$A6APEAVBehavior@pineBT@@AEBV?$basic_string@DU?$char_traits@D@std@@V?$allocator@D@2@@std@@AEAVBehaviorTree@2@@Z@2@@std@@PEAX@std@@_N@std@@QEAA@$$QEAPEAU?$_List_node@U?$pair@$$CBV?$basic_string@DU?$char_traits@D@std@@V?$allocator@D@2@@std@@V?$function@$$A6APEAVBehavior@pineBT@@AEBV?$basic_string@DU?$char_traits@D@std@@V?$allocator@D@2@@std@@AEAVBehaviorTree@2@@Z@2@@std@@PEAX@1@$$QEA_N@Z
        107   6A 00005810 ??$?0PEAU?$_Tree_node@U?$pair@$$CBV?$basic_string@DU?$char_traits@D@std@@V?$allocator@D@2@@std@@V?$basic_json@Vmap@std@@Vvector@2@V?$basic_string@DU?$char_traits@D@std@@V?$allocator@D@2@@2@_N_J_KNVallocator@2@Uadl_serializer@json_abi_v3_11_2@nlohmann@@V?$vector@EV?$allocator@E@std@@@2@@json_abi_v3_11_2@nlohmann@@@std@@PEAX@std@@_N$0A@@?$pair@PEAU?$_Tree_node@U?$pair@$$CBV?$basic_string@DU?$char_traits@D@std@@V?$allocator@D@2@@std@@V?$basic_json@Vmap@std@@Vvector@2@V?$basic_string@DU?$char_traits@D@std@@V?$allocator@D@2@@2@_N_J_KNVallocator@2@Uadl_serializer@json_abi_v3_11_2@nlohmann@@V?$vector@EV?$allocator@E@std@@@2@@json_abi_v3_11_2@nlohmann@@@std@@PEAX@std@@_N@std@@QEAA@$$QEAPEAU?$_Tree_node@U?$pair@$$CBV?$basic_string@DU?$char_traits@D@std@@V?$allocator@D@2@@std@@V?$basic_json@Vmap@std@@Vvector@2@V?$basic_string@DU?$char_traits@D@std@@V?$allocator@D@2@@2@_N_J_KNVallocator@2@Uadl_serializer@json_abi_v3_11_2@nlohmann@@V?$vector@EV?$allocator@E@std@@@2@@json_abi_v3_11_2@nlohmann@@@std@@PEAX@1@$$QEA_N@Z
        108   6B 00002190 ??$?0PEAVBehavior@pineBT@@@?$allocator@PEAPEAVBehavior@pineBT@@@std@@QEAA@AEBV?$allocator@PEAVBehavior@pineBT@@@1@@Z
        109   6C 00002190 ??$?0PEAVBehavior@pineBT@@@?$allocator@U_Container_proxy@std@@@std@@QEAA@AEBV?$allocator@PEAVBehavior@pineBT@@@1@@Z
        110   6D 00008DC0 ??$?0PEBDPEBD@?$basic_string_view@DU?$char_traits@D@std@@@std@@QEAA@PEBD0@Z
        111   6E 00002190 ??$?0U?$_List_node@U?$pair@$$CBV?$basic_string@DU?$char_traits@D@std@@V?$allocator@D@2@@std@@H@std@@PEAX@std@@@?$allocator@U?$pair@$$CBV?$basic_string@DU?$char_traits@D@std@@V?$allocator@D@2@@std@@H@std@@@std@@QEAA@AEBV?$allocator@U?$_List_node@U?$pair@$$CBV?$basic_string@DU?$char_traits@D@std@@V?$allocator@D@2@@std@@H@std@@PEAX@std@@@1@@Z
        112   6F 00002190 ??$?0U?$_List_node@U?$pair@$$CBV?$basic_string@DU?$char_traits@D@std@@V?$allocator@D@2@@std@@H@std@@PEAX@std@@@?$allocator@V?$_List_unchecked_iterator@V?$_List_val@U?$_List_simple_types@U?$pair@$$CBV?$basic_string@DU?$char_traits@D@std@@V?$allocator@D@2@@std@@H@std@@@std@@@std@@@std@@@std@@QEAA@AEBV?$allocator@U?$_List_node@U?$pair@$$CBV?$basic_string@DU?$char_traits@D@std@@V?$allocator@D@2@@std@@H@std@@PEAX@std@@@1@@Z
        113   70 0002ADC0 ??$?0U?$default_delete@UBehaviorTreeBuilderContext@pineBT@@@std@@$0A@@?$unique_ptr@UBehaviorTreeBuilderContext@pineBT@@U?$default_delete@UBehaviorTreeBuilderContext@pineBT@@@std@@@std@@QEAA@$$QEAV01@@Z
        114   71 0002ADE0 ??$?0U?$default_delete@UBehaviorTreeBuilderContext@pineBT@@@std@@PEAUBehaviorTreeBuilderContext@pineBT@@@?$_Compressed_pair@U?$default_delete@UBehaviorTreeBuilderContext@pineBT@@@std@@PEAUBehaviorTreeBuilderContext@pineBT@@$00@std@@QEAA@U_One_then_variadic_args_t@1@$$QEAU?$default_delete@UBehaviorTreeBuilderContext@pineBT@@@1@$$QEAPEAUBehaviorTreeBuilderContext@pineBT@@@Z
        115   72 000031C0 ??$?0U?$default_delete@UCompositeContext@pineBT@@@std@@$0A@@?$unique_ptr@UCompositeContext@pineBT@@U?$default_delete@UCompositeContext@pineBT@@@std@@@std@@QEAA@PEAUCompositeContext@pineBT@@@Z
        116   73 0002ADE0 ??$?0U?$default_delete@UCompositeContext@pineBT@@@std@@PEAUCompositeContext@pineBT@@@?$_Compressed_pair@U?$default_delete@UBehaviorTreeBuilderContext@pineBT@@@std@@PEAUBehaviorTreeBuilderContext@pineBT@@$00@std@@QEAA@U_One_then_variadic_args_t@1@$$QEAU?$default_delete@UCompositeContext@pineBT@@@1@$$QEAPEAUCompositeContext@pineBT@@@Z
        117   74 000031C0 ??$?0U?$default_delete@UDecoratorContext@pineBT@@@std@@$0A@@?$unique_ptr@UDecoratorContext@pineBT@@U?$default_delete@UDecoratorContext@pineBT@@@std@@@std@@QEAA@PEAUDecoratorContext@pineBT@@@Z
        118   75 0002ADE0 ??$?0U?$default_delete@UDecoratorContext@pineBT@@@std@@PEAUDecoratorContext@pineBT@@@?$_Compressed_pair@U?$default_delete@UBehaviorTreeBuilderContext@pineBT@@@std@@PEAUBehaviorTreeBuilderContext@pineBT@@$00@std@@QEAA@U_One_then_variadic_args_t@1@$$QEAU?$default_delete@UDecoratorContext@pineBT@@@1@$$QEAPEAUDecoratorContext@pineBT@@@Z
        119   76 0002ADC0 ??$?0U?$default_delete@VBehaviorTree@pineBT@@@std@@$0A@@?$unique_ptr@VBehaviorTree@pineBT@@U?$default_delete@VBehaviorTree@pineBT@@@std@@@std@@QEAA@$$QEAV01@@Z
        120   77 000031C0 ??$?0U?$default_delete@VBehaviorTree@pineBT@@@std@@$0A@@?$unique_ptr@VBehaviorTree@pineBT@@U?$default_delete@VBehaviorTree@pineBT@@@std@@@std@@QEAA@PEAVBehaviorTree@pineBT@@@Z
        121   78 000031D0 ??$?0U?$default_delete@VBehaviorTree@pineBT@@@std@@$0A@@?$unique_ptr@VBehaviorTree@pineBT@@U?$default_delete@VBehaviorTree@pineBT@@@std@@@std@@QEAA@XZ
        122   79 0002ADE0 ??$?0U?$default_delete@VBehaviorTree@pineBT@@@std@@PEAVBehaviorTree@pineBT@@@?$_Compressed_pair@U?$default_delete@VBehaviorTree@pineBT@@@std@@PEAVBehaviorTree@pineBT@@$00@std@@QEAA@U_One_then_variadic_args_t@1@$$QEAU?$default_delete@VBehaviorTree@pineBT@@@1@$$QEAPEAVBehaviorTree@pineBT@@@Z
        123   7A 000031C0 ??$?0U?$default_delete@V_Facet_base@std@@@std@@$0A@@?$unique_ptr@V_Facet_base@std@@U?$default_delete@V_Facet_base@std@@@2@@std@@QEAA@PEAV_Facet_base@1@@Z
        124   7B 00003E60 ??$?0U?$less@X@std@@U_One_then_variadic_args_t@1@V?$allocator@U?$_Tree_node@U?$pair@$$CBV?$basic_string@DU?$char_traits@D@std@@V?$allocator@D@2@@std@@V?$basic_json@Vmap@std@@Vvector@2@V?$basic_string@DU?$char_traits@D@std@@V?$allocator@D@2@@2@_N_J_KNVallocator@2@Uadl_serializer@json_abi_v3_11_2@nlohmann@@V?$vector@EV?$allocator@E@std@@@2@@json_abi_v3_11_2@nlohmann@@@std@@PEAX@std@@@1@@?$_Compressed_pair@U?$less@X@std@@V?$_Compressed_pair@V?$allocator@U?$_Tree_node@U?$pair@$$CBV?$basic_string@DU?$char_traits@D@std@@V?$allocator@D@2@@std@@V?$basic_json@Vmap@std@@Vvector@2@V?$basic_string@DU?$char_traits@D@std@@V?$allocator@D@2@@2@_N_J_KNVallocator@2@Uadl_serializer@json_abi_v3_11_2@nlohmann@@V?$vector@EV?$allocator@E@std@@@2@@json_abi_v3_11_2@nlohmann@@@std@@PEAX@std@@@std@@V?$_Tree_val@U?$_Tree_simple_types@U?$pair@$$CBV?$basic_string@DU?$char_traits@D@std@@V?$allocator@D@2@@std@@V?$basic_json@Vmap@std@@Vvector@2@V?$basic_string@DU?$char_traits@D@std@@V?$allocator@D@2@@2@_N_J_KNVallocator@2@Uadl_serializer@json_abi_v3_11_2@nlohmann@@V?$vector@EV?$allocator@E@std@@@2@@json_abi_v3_11_2@nlohmann@@@std@@@std@@@2@$00@2@$00@std@@QEAA@U_One_then_variadic_args_t@1@$$QEAU?$less@X@1@$$QEAU21@$$QEAV?$allocator@U?$_Tree_node@U?$pair@$$CBV?$basic_string@DU?$char_traits@D@std@@V?$allocator@D@2@@std@@V?$basic_json@Vmap@std@@Vvector@2@V?$basic_string@DU?$char_traits@D@std@@V?$allocator@D@2@@2@_N_J_KNVallocator@2@Uadl_serializer@json_abi_v3_11_2@nlohmann@@V?$vector@EV?$allocator@E@std@@@2@@json_abi_v3_11_2@nlohmann@@@std@@PEAX@std@@@1@@Z
        125   7C 00002190 ??$?0U?$pair@$$CBHV?$unique_ptr@VBehaviorTree@pineBT@@U?$default_delete@VBehaviorTree@pineBT@@@std@@@std@@@std@@@?$allocator@U?$_List_node@U?$pair@$$CBHV?$unique_ptr@VBehaviorTree@pineBT@@U?$default_delete@VBehaviorTree@pineBT@@@std@@@std@@@std@@PEAX@std@@@std@@QEAA@AEBV?$allocator@U?$pair@$$CBHV?$unique_ptr@VBehaviorTree@pineBT@@U?$default_delete@VBehaviorTree@pineBT@@@std@@@std@@@std@@@1@@Z
        126   7D 00002190 ??$?0U?$pair@$$CBHV?$unique_ptr@VBehaviorTree@pineBT@@U?$default_delete@VBehaviorTree@pineBT@@@std@@@std@@@std@@@?$allocator@V?$_List_unchecked_iterator@V?$_List_val@U?$_List_simple_types@U?$pair@$$CBHV?$unique_ptr@VBehaviorTree@pineBT@@U?$default_delete@VBehaviorTree@pineBT@@@std@@@std@@@std@@@std@@@std@@@std@@@std@@QEAA@AEBV?$allocator@U?$pair@$$CBHV?$unique_ptr@VBehaviorTree@pineBT@@U?$default_delete@VBehaviorTree@pineBT@@@std@@@std@@@std@@@1@@Z
        127   7E 00002190 ??$?0U?$pair@$$CBIW4Result@Behavior@pineBT@@@std@@@?$allocator@U?$_List_node@U?$pair@$$CBIW4Result@Behavior@pineBT@@@std@@PEAX@std@@@std@@QEAA@AEBV?$allocator@U?$pair@$$CBIW4Result@Behavior@pineBT@@@std@@@1@@Z
        128   7F 00002190 ??$?0U?$pair@$$CBIW4Result@Behavior@pineBT@@@std@@@?$allocator@V?$_List_unchecked_iterator@V?$_List_val@U?$_List_simple_types@U?$pair@$$CBIW4Result@Behavior@pineBT@@@std@@@std@@@std@@@std@@@std@@QEAA@AEBV?$allocator@U?$pair@$$CBIW4Result@Behavior@pineBT@@@std@@@1@@Z
        129   80 00002190 ??$?0U?$pair@$$CBV?$basic_string@DU?$char_traits@D@std@@V?$allocator@D@2@@std@@H@std@@@?$allocator@U?$_List_node@U?$pair@$$CBV?$basic_string@DU?$char_traits@D@std@@V?$allocator@D@2@@std@@H@std@@PEAX@std@@@std@@QEAA@AEBV?$allocator@U?$pair@$$CBV?$basic_string@DU?$char_traits@D@std@@V?$allocator@D@2@@std@@H@std@@@1@@Z
        130   81 00002190 ??$?0U?$pair@$$CBV?$basic_string@DU?$char_traits@D@std@@V?$allocator@D@2@@std@@H@std@@@?$allocator@V?$_List_unchecked_iterator@V?$_List_val@U?$_List_simple_types@U?$pair@$$CBV?$basic_string@DU?$char_traits@D@std@@V?$allocator@D@2@@std@@H@std@@@std@@@std@@@std@@@std@@QEAA@AEBV?$allocator@U?$pair@$$CBV?$basic_string@DU?$char_traits@D@std@@V?$allocator@D@2@@std@@H@std@@@1@@Z
        131   82 00002190 ??$?0U?$pair@$$CBV?$basic_string@DU?$char_traits@D@std@@V?$allocator@D@2@@std@@UBehaviorSchema@pineBT@@@std@@@?$allocator@U?$_List_node@U?$pair@$$CBV?$basic_string@DU?$char_traits@D@std@@V?$allocator@D@2@@std@@UBehaviorSchema@pineBT@@@std@@PEAX@std@@@std@@QEAA@AEBV?$allocator@U?$pair@$$CBV?$basic_string@DU?$char_traits@D@std@@V?$allocator@D@2@@std@@UBehaviorSchema@pineBT@@@std@@@1@@Z
        132   83 00002190 ??$?0U?$pair@$$CBV?$basic_string@DU?$char_traits@D@std@@V?$allocator@D@2@@std@@UBehaviorSchema@pineBT@@@std@@@?$allocator@V?$_List_unchecked_iterator@V?$_List_val@U?$_List_simple_types@U?$pair@$$CBV?$basic_string@DU?$char_traits@D@std@@V?$allocator@D@2@@std@@UBehaviorSchema@pineBT@@@std@@@std@@@std@@@std@@@std@@QEAA@AEBV?$allocator@U?$pair@$$CBV?$basic_string@DU?$char_traits@D@std@@V?$allocator@D@2@@std@@UBehaviorSchema@pineBT@@@std@@@1@@Z
        133   84 00002190 ??$?0U?$pair@$$CBV?$basic_string@DU?$char_traits@D@std@@V?$allocator@D@2@@std@@V?$function@$$A6APEAVBehavior@pineBT@@AEBV?$basic_string@DU?$char_traits@D@std@@V?$allocator@D@2@@std@@AEAVBehaviorTree@2@@Z@2@@std@@@?$allocator@U?$_List_node@U?$pair@$$CBV?$basic_string@DU?$char_traits@D@std@@V?$allocator@D@2@@std@@V?$function@$$A6APEAVBehavior@pineBT@@AEBV?$basic_string@DU?$char_traits@D@std@@V?$allocator@D@2@@std@@AEAVBehaviorTree@2@@Z@2@@std@@PEAX@std@@@std@@QEAA@AEBV?$allocator@U?$pair@$$CBV?$basic_string@DU?$char_traits@D@std@@V?$allocator@D@2@@std@@V?$function@$$A6APEAVBehavior@pineBT@@AEBV?$basic_string@DU?$char_traits@D@std@@V?$allocator@D@2@@std@@AEAVBehaviorTree@2@@Z@2@@std@@@1@@Z
        134   85 00002190 ??$?0U?$pair@$$CBV?$basic_string@DU?$char_traits@D@std@@V?$allocator@D@2@@std@@V?$function@$$A6APEAVBehavior@pineBT@@AEBV?$basic_string@DU?$char_traits@D@std@@V?$allocator@D@2@@std@@AEAVBehaviorTree@2@@Z@2@@std@@@?$allocator@V?$_List_unchecked_iterator@V?$_List_val@U?$_List_simple_types@U?$pair@$$CBV?$basic_string@DU?$char_traits@D@std@@V?$allocator@D@2@@std@@V?$function@$$A6APEAVBehavior@pineBT@@AEBV?$basic_string@DU?$char_traits@D@std@@V?$allocator@D@2@@std@@AEAVBehaviorTree@2@@Z@2@@std@@@std@@@std@@@std@@@std@@QEAA@AEBV?$allocator@U?$pair@$$CBV?$basic_string@DU?$char_traits@D@std@@V?$allocator@D@2@@std@@V?$function@$$A6APEAVBehavior@pineBT@@AEBV?$basic_string@DU?$char_traits@D@std@@V?$allocator@D@2@@std@@AEAVBehaviorTree@2@@Z@2@@std@@@1@@Z
        135   86 00002190 ??$?0UCompositeContext@pineBT@@$0A@@?$default_delete@UBehaviorTreeBuilderContext@pineBT@@@std@@QEAA@AEBU?$default_delete@UCompositeContext@pineBT@@@1@@Z
        136   87 0002ADC0 ??$?0UCompositeContext@pineBT@@U?$default_delete@UCompositeContext@pineBT@@@std@@$0A@@?$unique_ptr@UBehaviorTreeBuilderContext@pineBT@@U?$default_delete@UBehaviorTreeBuilderContext@pineBT@@@std@@@std@@QEAA@$$QEAV?$unique_ptr@UCompositeContext@pineBT@@U?$default_delete@UCompositeContext@pineBT@@@std@@@1@@Z
        137   88 00002190 ??$?0UDecoratorContext@pineBT@@$0A@@?$default_delete@UBehaviorTreeBuilderContext@pineBT@@@std@@QEAA@AEBU?$default_delete@UDecoratorContext@pineBT@@@1@@Z
        138   89 0002ADC0 ??$?0UDecoratorContext@pineBT@@U?$default_delete@UDecoratorContext@pineBT@@@std@@$0A@@?$unique_ptr@UBehaviorTreeBuilderContext@pineBT@@U?$default_delete@UBehaviorTreeBuilderContext@pineBT@@@std@@@std@@QEAA@$$QEAV?$unique_ptr@UDecoratorContext@pineBT@@U?$default_delete@UDecoratorContext@pineBT@@@std@@@1@@Z
        139   8A 00002190 ??$?0U_Exact_args_t@std@@$0A@@?$tuple@$$V@std@@QEAA@U_Exact_args_t@1@@Z
        140   8B 00005930 ??$?0U_Exact_args_t@std@@AEBH$$V$0A@@?$tuple@AEBH@std@@QEAA@U_Exact_args_t@1@AEBH@Z
        141   8C 00005930 ??$?0U_Exact_args_t@std@@AEBI$$V$0A@@?$tuple@AEBI@std@@QEAA@U_Exact_args_t@1@AEBI@Z
        142   8D 00005930 ??$?0U_Exact_args_t@std@@AEBV?$basic_string@DU?$char_traits@D@std@@V?$allocator@D@2@@1@$$V$0A@@?$tuple@AEBV?$basic_string@DU?$char_traits@D@std@@V?$allocator@D@2@@std@@@std@@QEAA@U_Exact_args_t@1@AEBV?$basic_string@DU?$char_traits@D@std@@V?$allocator@D@2@@1@@Z
        143   8E 00003E80 ??$?0U_Zero_then_variadic_args_t@std@@M@?$_Compressed_pair@U?$hash@H@std@@V?$_Compressed_pair@U?$equal_to@H@std@@M$00@2@$00@std@@QEAA@U_Zero_then_variadic_args_t@1@$$QEAU21@$$QEAM@Z
        144   8F 00003E80 ??$?0U_Zero_then_variadic_args_t@std@@M@?$_Compressed_pair@U?$hash@I@std@@V?$_Compressed_pair@U?$equal_to@I@std@@M$00@2@$00@std@@QEAA@U_Zero_then_variadic_args_t@1@$$QEAU21@$$QEAM@Z
        145   90 00003E80 ??$?0U_Zero_then_variadic_args_t@std@@M@?$_Compressed_pair@U?$hash@V?$basic_string@DU?$char_traits@D@std@@V?$allocator@D@2@@std@@@std@@V?$_Compressed_pair@U?$equal_to@V?$basic_string@DU?$char_traits@D@std@@V?$allocator@D@2@@std@@@std@@M$00@2@$00@std@@QEAA@U_Zero_then_variadic_args_t@1@$$QEAU21@$$QEAM@Z
        146   91 00008AB0 ??$?0V<lambda_1>@?1???$add@VMockCondition@pineBT@@@BehaviorSchemaLibrary@pineBT@@QEAAXXZ@$0A@@?$_Func_impl_no_alloc@V<lambda_1>@?1???$add@VMockCondition@pineBT@@@BehaviorSchemaLibrary@pineBT@@QEAAXXZ@PEAVBehavior@3@AEBV?$basic_string@DU?$char_traits@D@std@@V?$allocator@D@2@@std@@AEAVBehaviorTree@3@@std@@QEAA@$$QEAV<lambda_1>@?1???$add@VMockCondition@pineBT@@@BehaviorSchemaLibrary@pineBT@@QEAAXXZ@@Z
        147   92 00008DD0 ??$?0V<lambda_1>@?1???$add@VMockCondition@pineBT@@@BehaviorSchemaLibrary@pineBT@@QEAAXXZ@$0A@@?$function@$$A6APEAVBehavior@pineBT@@AEBV?$basic_string@DU?$char_traits@D@std@@V?$allocator@D@2@@std@@AEAVBehaviorTree@2@@Z@std@@QEAA@$$QEAV<lambda_1>@?1???$add@VMockCondition@pineBT@@@BehaviorSchemaLibrary@pineBT@@QEAAXXZ@@Z
        148   93 00008AC0 ??$?0V<lambda_1>@?1???$add@VMockTask@pineBT@@@BehaviorSchemaLibrary@pineBT@@QEAAXXZ@$0A@@?$_Func_impl_no_alloc@V<lambda_1>@?1???$add@VMockTask@pineBT@@@BehaviorSchemaLibrary@pineBT@@QEAAXXZ@PEAVBehavior@3@AEBV?$basic_string@DU?$char_traits@D@std@@V?$allocator@D@2@@std@@AEAVBehaviorTree@3@@std@@QEAA@$$QEAV<lambda_1>@?1???$add@VMockTask@pineBT@@@BehaviorSchemaLibrary@pineBT@@QEAAXXZ@@Z
        149   94 00008DF0 ??$?0V<lambda_1>@?1???$add@VMockTask@pineBT@@@BehaviorSchemaLibrary@pineBT@@QEAAXXZ@$0A@@?$function@$$A6APEAVBehavior@pineBT@@AEBV?$basic_string@DU?$char_traits@D@std@@V?$allocator@D@2@@std@@AEAVBehaviorTree@2@@Z@std@@QEAA@$$QEAV<lambda_1>@?1???$add@VMockTask@pineBT@@@BehaviorSchemaLibrary@pineBT@@QEAAXXZ@@Z
        150   95 00008AD0 ??$?0V<lambda_1>@?1???$add@VParallel@pineBT@@@BehaviorSchemaLibrary@pineBT@@QEAAXXZ@$0A@@?$_Func_impl_no_alloc@V<lambda_1>@?1???$add@VParallel@pineBT@@@BehaviorSchemaLibrary@pineBT@@QEAAXXZ@PEAVBehavior@3@AEBV?$basic_string@DU?$char_traits@D@std@@V?$allocator@D@2@@std@@AEAVBehaviorTree@3@@std@@QEAA@$$QEAV<lambda_1>@?1???$add@VParallel@pineBT@@@BehaviorSchemaLibrary@pineBT@@QEAAXXZ@@Z
        151   96 00008E10 ??$?0V<lambda_1>@?1???$add@VParallel@pineBT@@@BehaviorSchemaLibrary@pineBT@@QEAAXXZ@$0A@@?$function@$$A6APEAVBehavior@pineBT@@AEBV?$basic_string@DU?$char_traits@D@std@@V?$allocator@D@2@@std@@AEAVBehaviorTree@2@@Z@std@@QEAA@$$QEAV<lambda_1>@?1???$add@VParallel@pineBT@@@BehaviorSchemaLibrary@pineBT@@QEAAXXZ@@Z
        152   97 00008AE0 ??$?0V<lambda_1>@?1???$add@VSelector@pineBT@@@BehaviorSchemaLibrary@pineBT@@QEAAXXZ@$0A@@?$_Func_impl_no_alloc@V<lambda_1>@?1???$add@VSelector@pineBT@@@BehaviorSchemaLibrary@pineBT@@QEAAXXZ@PEAVBehavior@3@AEBV?$basic_string@DU?$char_traits@D@std@@V?$allocator@D@2@@std@@AEAVBehaviorTree@3@@std@@QEAA@$$QEAV<lambda_1>@?1???$add@VSelector@pineBT@@@BehaviorSchemaLibrary@pineBT@@QEAAXXZ@@Z
        153   98 00008E30 ??$?0V<lambda_1>@?1???$add@VSelector@pineBT@@@BehaviorSchemaLibrary@pineBT@@QEAAXXZ@$0A@@?$function@$$A6APEAVBehavior@pineBT@@AEBV?$basic_string@DU?$char_traits@D@std@@V?$allocator@D@2@@std@@AEAVBehaviorTree@2@@Z@std@@QEAA@$$QEAV<lambda_1>@?1???$add@VSelector@pineBT@@@BehaviorSchemaLibrary@pineBT@@QEAAXXZ@@Z
        154   99 00008AF0 ??$?0V<lambda_1>@?1???$add@VSequence@pineBT@@@BehaviorSchemaLibrary@pineBT@@QEAAXXZ@$0A@@?$_Func_impl_no_alloc@V<lambda_1>@?1???$add@VSequence@pineBT@@@BehaviorSchemaLibrary@pineBT@@QEAAXXZ@PEAVBehavior@3@AEBV?$basic_string@DU?$char_traits@D@std@@V?$allocator@D@2@@std@@AEAVBehaviorTree@3@@std@@QEAA@$$QEAV<lambda_1>@?1???$add@VSequence@pineBT@@@BehaviorSchemaLibrary@pineBT@@QEAAXXZ@@Z
        155   9A 00008E50 ??$?0V<lambda_1>@?1???$add@VSequence@pineBT@@@BehaviorSchemaLibrary@pineBT@@QEAAXXZ@$0A@@?$function@$$A6APEAVBehavior@pineBT@@AEBV?$basic_string@DU?$char_traits@D@std@@V?$allocator@D@2@@std@@AEAVBehaviorTree@2@@Z@std@@QEAA@$$QEAV<lambda_1>@?1???$add@VSequence@pineBT@@@BehaviorSchemaLibrary@pineBT@@QEAAXXZ@@Z
        156   9B 00008E70 ??$?0V<lambda_1>@?1???$create@V?$basic_string@DU?$char_traits@D@std@@V?$allocator@D@2@@std@@AEAY00$$CBD@?$basic_json@Vmap@std@@Vvector@2@V?$basic_string@DU?$char_traits@D@std@@V?$allocator@D@2@@2@_N_J_KNVallocator@2@Uadl_serializer@json_abi_v3_11_2@nlohmann@@V?$vector@EV?$allocator@E@std@@@2@@json_abi_v3_11_2@nlohmann@@CAPEAV?$basic_string@DU?$char_traits@D@std@@V?$allocator@D@2@@std@@AEAY00$$CBD@Z@$0A@@?$unique_ptr@V?$basic_string@DU?$char_traits@D@std@@V?$allocator@D@2@@std@@V<lambda_1>@?1???$create@V?$basic_string@DU?$char_traits@D@std@@V?$allocator@D@2@@std@@AEAY00$$CBD@?$basic_json@Vmap@std@@Vvector@2@V?$basic_string@DU?$char_traits@D@std@@V?$allocator@D@2@@2@_N_J_KNVallocator@2@Uadl_serializer@json_abi_v3_11_2@nlohmann@@V?$vector@EV?$allocator@E@std@@@2@@json_abi_v3_11_2@nlohmann@@CAPEAV12@AEAY00$$CBD@Z@@std@@QEAA@PEAV?$basic_string@DU?$char_traits@D@std@@V?$allocator@D@2@@1@AEBV<lambda_1>@?1???$create@V?$basic_string@DU?$char_traits@D@std@@V?$allocator@D@2@@std@@AEAY00$$CBD@?$basic_json@Vmap@std@@Vvector@2@V?$basic_string@DU?$char_traits@D@std@@V?$allocator@D@2@@2@_N_J_KNVallocator@2@Uadl_serializer@json_abi_v3_11_2@nlohmann@@V?$vector@EV?$allocator@E@std@@@2@@json_abi_v3_11_2@nlohmann@@CAPEAV21@AEAY00$$CBD@Z@@Z
        157   9C 00008E70 ??$?0V<lambda_1>@?1???$create@V?$basic_string@DU?$char_traits@D@std@@V?$allocator@D@2@@std@@AEAY03$$CBD@?$basic_json@Vmap@std@@Vvector@2@V?$basic_string@DU?$char_traits@D@std@@V?$allocator@D@2@@2@_N_J_KNVallocator@2@Uadl_serializer@json_abi_v3_11_2@nlohmann@@V?$vector@EV?$allocator@E@std@@@2@@json_abi_v3_11_2@nlohmann@@CAPEAV?$basic_string@DU?$char_traits@D@std@@V?$allocator@D@2@@std@@AEAY03$$CBD@Z@$0A@@?$unique_ptr@V?$basic_string@DU?$char_traits@D@std@@V?$allocator@D@2@@std@@V<lambda_1>@?1???$create@V?$basic_string@DU?$char_traits@D@std@@V?$allocator@D@2@@std@@AEAY03$$CBD@?$basic_json@Vmap@std@@Vvector@2@V?$basic_string@DU?$char_traits@D@std@@V?$allocator@D@2@@2@_N_J_KNVallocator@2@Uadl_serializer@json_abi_v3_11_2@nlohmann@@V?$vector@EV?$allocator@E@std@@@2@@json_abi_v3_11_2@nlohmann@@CAPEAV12@AEAY03$$CBD@Z@@std@@QEAA@PEAV?$basic_string@DU?$char_traits@D@std@@V?$allocator@D@2@@1@AEBV<lambda_1>@?1???$create@V?$basic_string@DU?$char_traits@D@std@@V?$allocator@D@2@@std@@AEAY03$$CBD@?$basic_json@Vmap@std@@Vvector@2@V?$basic_string@DU?$char_traits@D@std@@V?$allocator@D@2@@2@_N_J_KNVallocator@2@Uadl_serializer@json_abi_v3_11_2@nlohmann@@V?$vector@EV?$allocator@E@std@@@2@@json_abi_v3_11_2@nlohmann@@CAPEAV21@AEAY03$$CBD@Z@@Z
        158   9D 00008E70 ??$?0V<lambda_1>@?1???$create@V?$basic_string@DU?$char_traits@D@std@@V?$allocator@D@2@@std@@AEAY04$$CBD@?$basic_json@Vmap@std@@Vvector@2@V?$basic_string@DU?$char_traits@D@std@@V?$allocator@D@2@@2@_N_J_KNVallocator@2@Uadl_serializer@json_abi_v3_11_2@nlohmann@@V?$vector@EV?$allocator@E@std@@@2@@json_abi_v3_11_2@nlohmann@@CAPEAV?$basic_string@DU?$char_traits@D@std@@V?$allocator@D@2@@std@@AEAY04$$CBD@Z@$0A@@?$unique_ptr@V?$basic_string@DU?$char_traits@D@std@@V?$allocator@D@2@@std@@V<lambda_1>@?1???$create@V?$basic_string@DU?$char_traits@D@std@@V?$allocator@D@2@@std@@AEAY04$$CBD@?$basic_json@Vmap@std@@Vvector@2@V?$basic_string@DU?$char_traits@D@std@@V?$allocator@D@2@@2@_N_J_KNVallocator@2@Uadl_serializer@json_abi_v3_11_2@nlohmann@@V?$vector@EV?$allocator@E@std@@@2@@json_abi_v3_11_2@nlohmann@@CAPEAV12@AEAY04$$CBD@Z@@std@@QEAA@PEAV?$basic_string@DU?$char_traits@D@std@@V?$allocator@D@2@@1@AEBV<lambda_1>@?1???$create@V?$basic_string@DU?$char_traits@D@std@@V?$allocator@D@2@@std@@AEAY04$$CBD@?$basic_json@Vmap@std@@Vvector@2@V?$basic_string@DU?$char_traits@D@std@@V?$allocator@D@2@@2@_N_J_KNVallocator@2@Uadl_serializer@json_abi_v3_11_2@nlohmann@@V?$vector@EV?$allocator@E@std@@@2@@json_abi_v3_11_2@nlohmann@@CAPEAV21@AEAY04$$CBD@Z@@Z
        159   9E 00008E70 ??$?0V<lambda_1>@?1???$create@V?$basic_string@DU?$char_traits@D@std@@V?$allocator@D@2@@std@@AEAY06$$CBD@?$basic_json@Vmap@std@@Vvector@2@V?$basic_string@DU?$char_traits@D@std@@V?$allocator@D@2@@2@_N_J_KNVallocator@2@Uadl_serializer@json_abi_v3_11_2@nlohmann@@V?$vector@EV?$allocator@E@std@@@2@@json_abi_v3_11_2@nlohmann@@CAPEAV?$basic_string@DU?$char_traits@D@std@@V?$allocator@D@2@@std@@AEAY06$$CBD@Z@$0A@@?$unique_ptr@V?$basic_string@DU?$char_traits@D@std@@V?$allocator@D@2@@std@@V<lambda_1>@?1???$create@V?$basic_string@DU?$char_traits@D@std@@V?$allocator@D@2@@std@@AEAY06$$CBD@?$basic_json@Vmap@std@@Vvector@2@V?$basic_string@DU?$char_traits@D@std@@V?$allocator@D@2@@2@_N_J_KNVallocator@2@Uadl_serializer@json_abi_v3_11_2@nlohmann@@V?$vector@EV?$allocator@E@std@@@2@@json_abi_v3_11_2@nlohmann@@CAPEAV12@AEAY06$$CBD@Z@@std@@QEAA@PEAV?$basic_string@DU?$char_traits@D@std@@V?$allocator@D@2@@1@AEBV<lambda_1>@?1???$create@V?$basic_string@DU?$char_traits@D@std@@V?$allocator@D@2@@std@@AEAY06$$CBD@?$basic_json@Vmap@std@@Vvector@2@V?$basic_string@DU?$char_traits@D@std@@V?$allocator@D@2@@2@_N_J_KNVallocator@2@Uadl_serializer@json_abi_v3_11_2@nlohmann@@V?$vector@EV?$allocator@E@std@@@2@@json_abi_v3_11_2@nlohmann@@CAPEAV21@AEAY06$$CBD@Z@@Z
        160   9F 00008E70 ??$?0V<lambda_1>@?1???$create@V?$basic_string@DU?$char_traits@D@std@@V?$allocator@D@2@@std@@AEAY07$$CBD@?$basic_json@Vmap@std@@Vvector@2@V?$basic_string@DU?$char_traits@D@std@@V?$allocator@D@2@@2@_N_J_KNVallocator@2@Uadl_serializer@json_abi_v3_11_2@nlohmann@@V?$vector@EV?$allocator@E@std@@@2@@json_abi_v3_11_2@nlohmann@@CAPEAV?$basic_string@DU?$char_traits@D@std@@V?$allocator@D@2@@std@@AEAY07$$CBD@Z@$0A@@?$unique_ptr@V?$basic_string@DU?$char_traits@D@std@@V?$allocator@D@2@@std@@V<lambda_1>@?1???$create@V?$basic_string@DU?$char_traits@D@std@@V?$allocator@D@2@@std@@AEAY07$$CBD@?$basic_json@Vmap@std@@Vvector@2@V?$basic_string@DU?$char_traits@D@std@@V?$allocator@D@2@@2@_N_J_KNVallocator@2@Uadl_serializer@json_abi_v3_11_2@nlohmann@@V?$vector@EV?$allocator@E@std@@@2@@json_abi_v3_11_2@nlohmann@@CAPEAV12@AEAY07$$CBD@Z@@std@@QEAA@PEAV?$basic_string@DU?$char_traits@D@std@@V?$allocator@D@2@@1@AEBV<lambda_1>@?1???$create@V?$basic_string@DU?$char_traits@D@std@@V?$allocator@D@2@@std@@AEAY07$$CBD@?$basic_json@Vmap@std@@Vvector@2@V?$basic_string@DU?$char_traits@D@std@@V?$allocator@D@2@@2@_N_J_KNVallocator@2@Uadl_serializer@json_abi_v3_11_2@nlohmann@@V?$vector@EV?$allocator@E@std@@@2@@json_abi_v3_11_2@nlohmann@@CAPEAV21@AEAY07$$CBD@Z@@Z
        161   A0 00008E70 ??$?0V<lambda_1>@?1???$create@V?$basic_string@DU?$char_traits@D@std@@V?$allocator@D@2@@std@@AEBV12@@?$basic_json@Vmap@std@@Vvector@2@V?$basic_string@DU?$char_traits@D@std@@V?$allocator@D@2@@2@_N_J_KNVallocator@2@Uadl_serializer@json_abi_v3_11_2@nlohmann@@V?$vector@EV?$allocator@E@std@@@2@@json_abi_v3_11_2@nlohmann@@CAPEAV?$basic_string@DU?$char_traits@D@std@@V?$allocator@D@2@@std@@AEBV45@@Z@$0A@@?$unique_ptr@V?$basic_string@DU?$char_traits@D@std@@V?$allocator@D@2@@std@@V<lambda_1>@?1???$create@V?$basic_string@DU?$char_traits@D@std@@V?$allocator@D@2@@std@@AEBV12@@?$basic_json@Vmap@std@@Vvector@2@V?$basic_string@DU?$char_traits@D@std@@V?$allocator@D@2@@2@_N_J_KNVallocator@2@Uadl_serializer@json_abi_v3_11_2@nlohmann@@V?$vector@EV?$allocator@E@std@@@2@@json_abi_v3_11_2@nlohmann@@CAPEAV12@AEBV12@@Z@@std@@QEAA@PEAV?$basic_string@DU?$char_traits@D@std@@V?$allocator@D@2@@1@AEBV<lambda_1>@?1???$create@V?$basic_string@DU?$char_traits@D@std@@V?$allocator@D@2@@std@@AEBV12@@?$basic_json@Vmap@std@@Vvector@2@V?$basic_string@DU?$char_traits@D@std@@V?$allocator@D@2@@2@_N_J_KNVallocator@2@Uadl_serializer@json_abi_v3_11_2@nlohmann@@V?$vector@EV?$allocator@E@std@@@2@@json_abi_v3_11_2@nlohmann@@CAPEAV21@AEBV21@@Z@@Z
        162   A1 00008E70 ??$?0V<lambda_1>@?1???$create@V?$basic_string@DU?$char_traits@D@std@@V?$allocator@D@2@@std@@V12@@?$basic_json@Vmap@std@@Vvector@2@V?$basic_string@DU?$char_traits@D@std@@V?$allocator@D@2@@2@_N_J_KNVallocator@2@Uadl_serializer@json_abi_v3_11_2@nlohmann@@V?$vector@EV?$allocator@E@std@@@2@@json_abi_v3_11_2@nlohmann@@CAPEAV?$basic_string@DU?$char_traits@D@std@@V?$allocator@D@2@@std@@$$QEAV45@@Z@$0A@@?$unique_ptr@V?$basic_string@DU?$char_traits@D@std@@V?$allocator@D@2@@std@@V<lambda_1>@?1???$create@V?$basic_string@DU?$char_traits@D@std@@V?$allocator@D@2@@std@@V12@@?$basic_json@Vmap@std@@Vvector@2@V?$basic_string@DU?$char_traits@D@std@@V?$allocator@D@2@@2@_N_J_KNVallocator@2@Uadl_serializer@json_abi_v3_11_2@nlohmann@@V?$vector@EV?$allocator@E@std@@@2@@json_abi_v3_11_2@nlohmann@@CAPEAV12@$$QEAV12@@Z@@std@@QEAA@PEAV?$basic_string@DU?$char_traits@D@std@@V?$allocator@D@2@@1@AEBV<lambda_1>@?1???$create@V?$basic_string@DU?$char_traits@D@std@@V?$allocator@D@2@@std@@V12@@?$basic_json@Vmap@std@@Vvector@2@V?$basic_string@DU?$char_traits@D@std@@V?$allocator@D@2@@2@_N_J_KNVallocator@2@Uadl_serializer@json_abi_v3_11_2@nlohmann@@V?$vector@EV?$allocator@E@std@@@2@@json_abi_v3_11_2@nlohmann@@CAPEAV21@$$QEAV21@@Z@@Z
        163   A2 00008E70 ??$?0V<lambda_1>@?1???$create@V?$byte_container_with_subtype@V?$vector@EV?$allocator@E@std@@@std@@@json_abi_v3_11_2@nlohmann@@$$V@?$basic_json@Vmap@std@@Vvector@2@V?$basic_string@DU?$char_traits@D@std@@V?$allocator@D@2@@2@_N_J_KNVallocator@2@Uadl_serializer@json_abi_v3_11_2@nlohmann@@V?$vector@EV?$allocator@E@std@@@2@@json_abi_v3_11_2@nlohmann@@CAPEAV?$byte_container_with_subtype@V?$vector@EV?$allocator@E@std@@@std@@@23@XZ@$0A@@?$unique_ptr@V?$byte_container_with_subtype@V?$vector@EV?$allocator@E@std@@@std@@@json_abi_v3_11_2@nlohmann@@V<lambda_1>@?1???$create@V?$byte_container_with_subtype@V?$vector@EV?$allocator@E@std@@@std@@@json_abi_v3_11_2@nlohmann@@$$V@?$basic_json@Vmap@std@@Vvector@2@V?$basic_string@DU?$char_traits@D@std@@V?$allocator@D@2@@2@_N_J_KNVallocator@2@Uadl_serializer@json_abi_v3_11_2@nlohmann@@V?$vector@EV?$allocator@E@std@@@2@@23@CAPEAV123@XZ@@std@@QEAA@PEAV?$byte_container_with_subtype@V?$vector@EV?$allocator@E@std@@@std@@@json_abi_v3_11_2@nlohmann@@AEBV<lambda_1>@?1???$create@V?$byte_container_with_subtype@V?$vector@EV?$allocator@E@std@@@std@@@json_abi_v3_11_2@nlohmann@@$$V@?$basic_json@Vmap@std@@Vvector@2@V?$basic_string@DU?$char_traits@D@std@@V?$allocator@D@2@@2@_N_J_KNVallocator@2@Uadl_serializer@json_abi_v3_11_2@nlohmann@@V?$vector@EV?$allocator@E@std@@@2@@34@CAPEAV234@XZ@@Z
        164   A3 00008E70 ??$?0V<lambda_1>@?1???$create@V?$byte_container_with_subtype@V?$vector@EV?$allocator@E@std@@@std@@@json_abi_v3_11_2@nlohmann@@AEBV123@@?$basic_json@Vmap@std@@Vvector@2@V?$basic_string@DU?$char_traits@D@std@@V?$allocator@D@2@@2@_N_J_KNVallocator@2@Uadl_serializer@json_abi_v3_11_2@nlohmann@@V?$vector@EV?$allocator@E@std@@@2@@json_abi_v3_11_2@nlohmann@@CAPEAV?$byte_container_with_subtype@V?$vector@EV?$allocator@E@std@@@std@@@23@AEBV423@@Z@$0A@@?$unique_ptr@V?$byte_container_with_subtype@V?$vector@EV?$allocator@E@std@@@std@@@json_abi_v3_11_2@nlohmann@@V<lambda_1>@?1???$create@V?$byte_container_with_subtype@V?$vector@EV?$allocator@E@std@@@std@@@json_abi_v3_11_2@nlohmann@@AEBV123@@?$basic_json@Vmap@std@@Vvector@2@V?$basic_string@DU?$char_traits@D@std@@V?$allocator@D@2@@2@_N_J_KNVallocator@2@Uadl_serializer@json_abi_v3_11_2@nlohmann@@V?$vector@EV?$allocator@E@std@@@2@@23@CAPEAV123@AEBV123@@Z@@std@@QEAA@PEAV?$byte_container_with_subtype@V?$vector@EV?$allocator@E@std@@@std@@@json_abi_v3_11_2@nlohmann@@AEBV<lambda_1>@?1???$create@V?$byte_container_with_subtype@V?$vector@EV?$allocator@E@std@@@std@@@json_abi_v3_11_2@nlohmann@@AEBV123@@?$basic_json@Vmap@std@@Vvector@2@V?$basic_string@DU?$char_traits@D@std@@V?$allocator@D@2@@2@_N_J_KNVallocator@2@Uadl_serializer@json_abi_v3_11_2@nlohmann@@V?$vector@EV?$allocator@E@std@@@2@@34@CAPEAV234@AEBV234@@Z@@Z
        165   A4 00008E70 ??$?0V<lambda_1>@?1???$create@V?$vector@V?$basic_json@Vmap@std@@Vvector@2@V?$basic_string@DU?$char_traits@D@std@@V?$allocator@D@2@@2@_N_J_KNVallocator@2@Uadl_serializer@json_abi_v3_11_2@nlohmann@@V?$vector@EV?$allocator@E@std@@@2@@json_abi_v3_11_2@nlohmann@@V?$allocator@V?$basic_json@Vmap@std@@Vvector@2@V?$basic_string@DU?$char_traits@D@std@@V?$allocator@D@2@@2@_N_J_KNVallocator@2@Uadl_serializer@json_abi_v3_11_2@nlohmann@@V?$vector@EV?$allocator@E@std@@@2@@json_abi_v3_11_2@nlohmann@@@std@@@std@@$$V@?$basic_json@Vmap@std@@Vvector@2@V?$basic_string@DU?$char_traits@D@std@@V?$allocator@D@2@@2@_N_J_KNVallocator@2@Uadl_serializer@json_abi_v3_11_2@nlohmann@@V?$vector@EV?$allocator@E@std@@@2@@json_abi_v3_11_2@nlohmann@@CAPEAV?$vector@V?$basic_json@Vmap@std@@Vvector@2@V?$basic_string@DU?$char_traits@D@std@@V?$allocator@D@2@@2@_N_J_KNVallocator@2@Uadl_serializer@json_abi_v3_11_2@nlohmann@@V?$vector@EV?$allocator@E@std@@@2@@json_abi_v3_11_2@nlohmann@@V?$allocator@V?$basic_json@Vmap@std@@Vvector@2@V?$basic_string@DU?$char_traits@D@std@@V?$allocator@D@2@@2@_N_J_KNVallocator@2@Uadl_serializer@json_abi_v3_11_2@nlohmann@@V?$vector@EV?$allocator@E@std@@@2@@json_abi_v3_11_2@nlohmann@@@std@@@std@@XZ@$0A@@?$unique_ptr@V?$vector@V?$basic_json@Vmap@std@@Vvector@2@V?$basic_string@DU?$char_traits@D@std@@V?$allocator@D@2@@2@_N_J_KNVallocator@2@Uadl_serializer@json_abi_v3_11_2@nlohmann@@V?$vector@EV?$allocator@E@std@@@2@@json_abi_v3_11_2@nlohmann@@V?$allocator@V?$basic_json@Vmap@std@@Vvector@2@V?$basic_string@DU?$char_traits@D@std@@V?$allocator@D@2@@2@_N_J_KNVallocator@2@Uadl_serializer@json_abi_v3_11_2@nlohmann@@V?$vector@EV?$allocator@E@std@@@2@@json_abi_v3_11_2@nlohmann@@@std@@@std@@V<lambda_1>@?1???$create@V?$vector@V?$basic_json@Vmap@std@@Vvector@2@V?$basic_string@DU?$char_traits@D@std@@V?$allocator@D@2@@2@_N_J_KNVallocator@2@Uadl_serializer@json_abi_v3_11_2@nlohmann@@V?$vector@EV?$allocator@E@std@@@2@@json_abi_v3_11_2@nlohmann@@V?$allocator@V?$basic_json@Vmap@std@@Vvector@2@V?$basic_string@DU?$char_traits@D@std@@V?$allocator@D@2@@2@_N_J_KNVallocator@2@Uadl_serializer@json_abi_v3_11_2@nlohmann@@V?$vector@EV?$allocator@E@std@@@2@@json_abi_v3_11_2@nlohmann@@@std@@@std@@$$V@?$basic_json@Vmap@std@@Vvector@2@V?$basic_string@DU?$char_traits@D@std@@V?$allocator@D@2@@2@_N_J_KNVallocator@2@Uadl_serializer@json_abi_v3_11_2@nlohmann@@V?$vector@EV?$allocator@E@std@@@2@@json_abi_v3_11_2@nlohmann@@CAPEAV12@XZ@@std@@QEAA@PEAV?$vector@V?$basic_json@Vmap@std@@Vvector@2@V?$basic_string@DU?$char_traits@D@std@@V?$allocator@D@2@@2@_N_J_KNVallocator@2@Uadl_serializer@json_abi_v3_11_2@nlohmann@@V?$vector@EV?$allocator@E@std@@@2@@json_abi_v3_11_2@nlohmann@@V?$allocator@V?$basic_json@Vmap@std@@Vvector@2@V?$basic_string@DU?$char_traits@D@std@@V?$allocator@D@2@@2@_N_J_KNVallocator@2@Uadl_serializer@json_abi_v3_11_2@nlohmann@@V?$vector@EV?$allocator@E@std@@@2@@json_abi_v3_11_2@nlohmann@@@std@@@1@AEBV<lambda_1>@?1???$create@V?$vector@V?$basic_json@Vmap@std@@Vvector@2@V?$basic_string@DU?$char_traits@D@std@@V?$allocator@D@2@@2@_N_J_KNVallocator@2@Uadl_serializer@json_abi_v3_11_2@nlohmann@@V?$vector@EV?$allocator@E@std@@@2@@json_abi_v3_11_2@nlohmann@@V?$allocator@V?$basic_json@Vmap@std@@Vvector@2@V?$basic_string@DU?$char_traits@D@std@@V?$allocator@D@2@@2@_N_J_KNVallocator@2@Uadl_serializer@json_abi_v3_11_2@nlohmann@@V?$vector@EV?$allocator@E@std@@@2@@json_abi_v3_11_2@nlohmann@@@std@@@std@@$$V@?$basic_json@Vmap@std@@Vvector@2@V?$basic_string@DU?$char_traits@D@std@@V?$allocator@D@2@@2@_N_J_KNVallocator@2@Uadl_serializer@json_abi_v3_11_2@nlohmann@@V?$vector@EV?$allocator@E@std@@@2@@json_abi_v3_11_2@nlohmann@@CAPEAV21@XZ@@Z
        166   A5 00008E70 ??$?0V<lambda_1>@?1???$create@V?$vector@V?$basic_json@Vmap@std@@Vvector@2@V?$basic_string@DU?$char_traits@D@std@@V?$allocator@D@2@@2@_N_J_KNVallocator@2@Uadl_serializer@json_abi_v3_11_2@nlohmann@@V?$vector@EV?$allocator@E@std@@@2@@json_abi_v3_11_2@nlohmann@@V?$allocator@V?$basic_json@Vmap@std@@Vvector@2@V?$basic_string@DU?$char_traits@D@std@@V?$allocator@D@2@@2@_N_J_KNVallocator@2@Uadl_serializer@json_abi_v3_11_2@nlohmann@@V?$vector@EV?$allocator@E@std@@@2@@json_abi_v3_11_2@nlohmann@@@std@@@std@@AEBV12@@?$basic_json@Vmap@std@@Vvector@2@V?$basic_string@DU?$char_traits@D@std@@V?$allocator@D@2@@2@_N_J_KNVallocator@2@Uadl_serializer@json_abi_v3_11_2@nlohmann@@V?$vector@EV?$allocator@E@std@@@2@@json_abi_v3_11_2@nlohmann@@CAPEAV?$vector@V?$basic_json@Vmap@std@@Vvector@2@V?$basic_string@DU?$char_traits@D@std@@V?$allocator@D@2@@2@_N_J_KNVallocator@2@Uadl_serializer@json_abi_v3_11_2@nlohmann@@V?$vector@EV?$allocator@E@std@@@2@@json_abi_v3_11_2@nlohmann@@V?$allocator@V?$basic_json@Vmap@std@@Vvector@2@V?$basic_string@DU?$char_traits@D@std@@V?$allocator@D@2@@2@_N_J_KNVallocator@2@Uadl_serializer@json_abi_v3_11_2@nlohmann@@V?$vector@EV?$allocator@E@std@@@2@@json_abi_v3_11_2@nlohmann@@@std@@@std@@AEBV45@@Z@$0A@@?$unique_ptr@V?$vector@V?$basic_json@Vmap@std@@Vvector@2@V?$basic_string@DU?$char_traits@D@std@@V?$allocator@D@2@@2@_N_J_KNVallocator@2@Uadl_serializer@json_abi_v3_11_2@nlohmann@@V?$vector@EV?$allocator@E@std@@@2@@json_abi_v3_11_2@nlohmann@@V?$allocator@V?$basic_json@Vmap@std@@Vvector@2@V?$basic_string@DU?$char_traits@D@std@@V?$allocator@D@2@@2@_N_J_KNVallocator@2@Uadl_serializer@json_abi_v3_11_2@nlohmann@@V?$vector@EV?$allocator@E@std@@@2@@json_abi_v3_11_2@nlohmann@@@std@@@std@@V<lambda_1>@?1???$create@V?$vector@V?$basic_json@Vmap@std@@Vvector@2@V?$basic_string@DU?$char_traits@D@std@@V?$allocator@D@2@@2@_N_J_KNVallocator@2@Uadl_serializer@json_abi_v3_11_2@nlohmann@@V?$vector@EV?$allocator@E@std@@@2@@json_abi_v3_11_2@nlohmann@@V?$allocator@V?$basic_json@Vmap@std@@Vvector@2@V?$basic_string@DU?$char_traits@D@std@@V?$allocator@D@2@@2@_N_J_KNVallocator@2@Uadl_serializer@json_abi_v3_11_2@nlohmann@@V?$vector@EV?$allocator@E@std@@@2@@json_abi_v3_11_2@nlohmann@@@std@@@std@@AEBV12@@?$basic_json@Vmap@std@@Vvector@2@V?$basic_string@DU?$char_traits@D@std@@V?$allocator@D@2@@2@_N_J_KNVallocator@2@Uadl_serializer@json_abi_v3_11_2@nlohmann@@V?$vector@EV?$allocator@E@std@@@2@@json_abi_v3_11_2@nlohmann@@CAPEAV12@AEBV12@@Z@@std@@QEAA@PEAV?$vector@V?$basic_json@Vmap@std@@Vvector@2@V?$basic_string@DU?$char_traits@D@std@@V?$allocator@D@2@@2@_N_J_KNVallocator@2@Uadl_serializer@json_abi_v3_11_2@nlohmann@@V?$vector@EV?$allocator@E@std@@@2@@json_abi_v3_11_2@nlohmann@@V?$allocator@V?$basic_json@Vmap@std@@Vvector@2@V?$basic_string@DU?$char_traits@D@std@@V?$allocator@D@2@@2@_N_J_KNVallocator@2@Uadl_serializer@json_abi_v3_11_2@nlohmann@@V?$vector@EV?$allocator@E@std@@@2@@json_abi_v3_11_2@nlohmann@@@std@@@1@AEBV<lambda_1>@?1???$create@V?$vector@V?$basic_json@Vmap@std@@Vvector@2@V?$basic_string@DU?$char_traits@D@std@@V?$allocator@D@2@@2@_N_J_KNVallocator@2@Uadl_serializer@json_abi_v3_11_2@nlohmann@@V?$vector@EV?$allocator@E@std@@@2@@json_abi_v3_11_2@nlohmann@@V?$allocator@V?$basic_json@Vmap@std@@Vvector@2@V?$basic_string@DU?$char_traits@D@std@@V?$allocator@D@2@@2@_N_J_KNVallocator@2@Uadl_serializer@json_abi_v3_11_2@nlohmann@@V?$vector@EV?$allocator@E@std@@@2@@json_abi_v3_11_2@nlohmann@@@std@@@std@@AEBV12@@?$basic_json@Vmap@std@@Vvector@2@V?$basic_string@DU?$char_traits@D@std@@V?$allocator@D@2@@2@_N_J_KNVallocator@2@Uadl_serializer@json_abi_v3_11_2@nlohmann@@V?$vector@EV?$allocator@E@std@@@2@@json_abi_v3_11_2@nlohmann@@CAPEAV21@AEBV21@@Z@@Z
        167   A6 00005810 ??$?0V?$_List_iterator@V?$_List_val@U?$_List_simple_types@U?$pair@$$CBV?$basic_string@DU?$char_traits@D@std@@V?$allocator@D@2@@std@@H@std@@@std@@@std@@@std@@_N$0A@@?$pair@V?$_List_iterator@V?$_List_val@U?$_List_simple_types@U?$pair@$$CBV?$basic_string@DU?$char_traits@D@std@@V?$allocator@D@2@@std@@H@std@@@std@@@std@@@std@@_N@std@@QEAA@$$QEAV?$_List_iterator@V?$_List_val@U?$_List_simple_types@U?$pair@$$CBV?$basic_string@DU?$char_traits@D@std@@V?$allocator@D@2@@std@@H@std@@@std@@@std@@@1@$$QEA_N@Z
        168   A7 00005810 ??$?0V?$_Tree_iterator@V?$_Tree_val@U?$_Tree_simple_types@U?$pair@$$CBV?$basic_string@DU?$char_traits@D@std@@V?$allocator@D@2@@std@@V?$basic_json@Vmap@std@@Vvector@2@V?$basic_string@DU?$char_traits@D@std@@V?$allocator@D@2@@2@_N_J_KNVallocator@2@Uadl_serializer@json_abi_v3_11_2@nlohmann@@V?$vector@EV?$allocator@E@std@@@2@@json_abi_v3_11_2@nlohmann@@@std@@@std@@@std@@@std@@AEB_N$0A@@?$pair@V?$_Tree_iterator@V?$_Tree_val@U?$_Tree_simple_types@U?$pair@$$CBV?$basic_string@DU?$char_traits@D@std@@V?$allocator@D@2@@std@@V?$basic_json@Vmap@std@@Vvector@2@V?$basic_string@DU?$char_traits@D@std@@V?$allocator@D@2@@2@_N_J_KNVallocator@2@Uadl_serializer@json_abi_v3_11_2@nlohmann@@V?$vector@EV?$allocator@E@std@@@2@@json_abi_v3_11_2@nlohmann@@@std@@@std@@@std@@@std@@_N@std@@QEAA@$$QEAV?$_Tree_iterator@V?$_Tree_val@U?$_Tree_simple_types@U?$pair@$$CBV?$basic_string@DU?$char_traits@D@std@@V?$allocator@D@2@@std@@V?$basic_json@Vmap@std@@Vvector@2@V?$basic_string@DU?$char_traits@D@std@@V?$allocator@D@2@@2@_N_J_KNVallocator@2@Uadl_serializer@json_abi_v3_11_2@nlohmann@@V?$vector@EV?$allocator@E@std@@@2@@json_abi_v3_11_2@nlohmann@@@std@@@std@@@std@@@1@AEB_N@Z
        169   A8 00002000 ??$?0V?$allocator@D@std@@$$V@?$_Compressed_pair@V?$allocator@D@std@@V?$_String_val@U?$_Simple_types@D@std@@@2@$00@std@@QEAA@U_One_then_variadic_args_t@1@$$QEAV?$allocator@D@1@@Z
        170   A9 00003E40 ??$?0V?$allocator@E@std@@$$V@?$_Compressed_pair@V?$allocator@E@std@@V?$_Vector_val@U?$_Simple_types@E@std@@@2@$00@std@@QEAA@U_One_then_variadic_args_t@1@$$QEAV?$allocator@E@1@@Z
        171   AA 00002B10 ??$?0V?$allocator@PEAVBehavior@pineBT@@@std@@$$V@?$_Compressed_pair@V?$allocator@PEAVBehavior@pineBT@@@std@@V?$_Deque_val@U?$_Deque_simple_types@PEAVBehavior@pineBT@@@std@@@2@$00@std@@QEAA@U_One_then_variadic_args_t@1@$$QEAV?$allocator@PEAVBehavior@pineBT@@@1@@Z
        172   AB 00003E40 ??$?0V?$allocator@PEAVBehavior@pineBT@@@std@@$$V@?$_Compressed_pair@V?$allocator@PEAVBehavior@pineBT@@@std@@V?$_Vector_val@U?$_Simple_types@PEAVBehavior@pineBT@@@std@@@2@$00@std@@QEAA@U_One_then_variadic_args_t@1@$$QEAV?$allocator@PEAVBehavior@pineBT@@@1@@Z
        173   AC 00003E60 ??$?0V?$allocator@U?$_List_node@U?$pair@$$CBIW4Result@Behavior@pineBT@@@std@@PEAX@std@@@std@@$$V@?$_Compressed_pair@V?$allocator@U?$_List_node@U?$pair@$$CBIW4Result@Behavior@pineBT@@@std@@PEAX@std@@@std@@V?$_List_val@U?$_List_simple_types@U?$pair@$$CBIW4Result@Behavior@pineBT@@@std@@@std@@@2@$00@std@@QEAA@U_One_then_variadic_args_t@1@$$QEAV?$allocator@U?$_List_node@U?$pair@$$CBIW4Result@Behavior@pineBT@@@std@@PEAX@std@@@1@@Z
        174   AD 0002C2D0 ??$?0V?$allocator@U?$_List_node@U?$pair@$$CBIW4Result@Behavior@pineBT@@@std@@PEAX@std@@@std@@@?$list@U?$pair@$$CBIW4Result@Behavior@pineBT@@@std@@V?$allocator@U?$pair@$$CBIW4Result@Behavior@pineBT@@@std@@@2@@std@@AEAA@U_Move_allocator_tag@1@AEAV?$allocator@U?$_List_node@U?$pair@$$CBIW4Result@Behavior@pineBT@@@std@@PEAX@std@@@1@@Z
        175   AE 00003E60 ??$?0V?$allocator@U?$_List_node@U?$pair@$$CBV?$basic_string@DU?$char_traits@D@std@@V?$allocator@D@2@@std@@H@std@@PEAX@std@@@std@@$$V@?$_Compressed_pair@V?$allocator@U?$_List_node@U?$pair@$$CBV?$basic_string@DU?$char_traits@D@std@@V?$allocator@D@2@@std@@H@std@@PEAX@std@@@std@@V?$_List_val@U?$_List_simple_types@U?$pair@$$CBV?$basic_string@DU?$char_traits@D@std@@V?$allocator@D@2@@std@@H@std@@@std@@@2@$00@std@@QEAA@U_One_then_variadic_args_t@1@$$QEAV?$allocator@U?$_List_node@U?$pair@$$CBV?$basic_string@DU?$char_traits@D@std@@V?$allocator@D@2@@std@@H@std@@PEAX@std@@@1@@Z
        176   AF 00005940 ??$?0V?$allocator@U?$_List_node@U?$pair@$$CBV?$basic_string@DU?$char_traits@D@std@@V?$allocator@D@2@@std@@H@std@@PEAX@std@@@std@@@?$_Hash@V?$_Umap_traits@V?$basic_string@DU?$char_traits@D@std@@V?$allocator@D@2@@std@@HV?$_Uhash_compare@V?$basic_string@DU?$char_traits@D@std@@V?$allocator@D@2@@std@@U?$hash@V?$basic_string@DU?$char_traits@D@std@@V?$allocator@D@2@@std@@@2@U?$equal_to@V?$basic_string@DU?$char_traits@D@std@@V?$allocator@D@2@@std@@@2@@2@V?$allocator@U?$pair@$$CBV?$basic_string@DU?$char_traits@D@std@@V?$allocator@D@2@@std@@H@std@@@2@$0A@@std@@@std@@IEAA@AEBV01@AEBV?$allocator@U?$_List_node@U?$pair@$$CBV?$basic_string@DU?$char_traits@D@std@@V?$allocator@D@2@@std@@H@std@@PEAX@std@@@1@@Z
        177   B0 000044F0 ??$?0V?$allocator@U?$_List_node@U?$pair@$$CBV?$basic_string@DU?$char_traits@D@std@@V?$allocator@D@2@@std@@H@std@@PEAX@std@@@std@@@?$list@U?$pair@$$CBV?$basic_string@DU?$char_traits@D@std@@V?$allocator@D@2@@std@@H@std@@V?$allocator@U?$pair@$$CBV?$basic_string@DU?$char_traits@D@std@@V?$allocator@D@2@@std@@H@std@@@2@@std@@AEAA@U_Move_allocator_tag@1@AEAV?$allocator@U?$_List_node@U?$pair@$$CBV?$basic_string@DU?$char_traits@D@std@@V?$allocator@D@2@@std@@H@std@@PEAX@std@@@1@@Z
        178   B1 00003E60 ??$?0V?$allocator@U?$_Tree_node@U?$pair@$$CBV?$basic_string@DU?$char_traits@D@std@@V?$allocator@D@2@@std@@V?$basic_json@Vmap@std@@Vvector@2@V?$basic_string@DU?$char_traits@D@std@@V?$allocator@D@2@@2@_N_J_KNVallocator@2@Uadl_serializer@json_abi_v3_11_2@nlohmann@@V?$vector@EV?$allocator@E@std@@@2@@json_abi_v3_11_2@nlohmann@@@std@@PEAX@std@@@std@@$$V@?$_Compressed_pair@V?$allocator@U?$_Tree_node@U?$pair@$$CBV?$basic_string@DU?$char_traits@D@std@@V?$allocator@D@2@@std@@V?$basic_json@Vmap@std@@Vvector@2@V?$basic_string@DU?$char_traits@D@std@@V?$allocator@D@2@@2@_N_J_KNVallocator@2@Uadl_serializer@json_abi_v3_11_2@nlohmann@@V?$vector@EV?$allocator@E@std@@@2@@json_abi_v3_11_2@nlohmann@@@std@@PEAX@std@@@std@@V?$_Tree_val@U?$_Tree_simple_types@U?$pair@$$CBV?$basic_string@DU?$char_traits@D@std@@V?$allocator@D@2@@std@@V?$basic_json@Vmap@std@@Vvector@2@V?$basic_string@DU?$char_traits@D@std@@V?$allocator@D@2@@2@_N_J_KNVallocator@2@Uadl_serializer@json_abi_v3_11_2@nlohmann@@V?$vector@EV?$allocator@E@std@@@2@@json_abi_v3_11_2@nlohmann@@@std@@@std@@@2@$00@std@@QEAA@U_One_then_variadic_args_t@1@$$QEAV?$allocator@U?$_Tree_node@U?$pair@$$CBV?$basic_string@DU?$char_traits@D@std@@V?$allocator@D@2@@std@@V?$basic_json@Vmap@std@@Vvector@2@V?$basic_string@DU?$char_traits@D@std@@V?$allocator@D@2@@2@_N_J_KNVallocator@2@Uadl_serializer@json_abi_v3_11_2@nlohmann@@V?$vector@EV?$allocator@E@std@@@2@@json_abi_v3_11_2@nlohmann@@@std@@PEAX@std@@@1@@Z
        179   B2 00008E80 ??$?0V?$allocator@U?$_Tree_node@U?$pair@$$CBV?$basic_string@DU?$char_traits@D@std@@V?$allocator@D@2@@std@@V?$basic_json@Vmap@std@@Vvector@2@V?$basic_string@DU?$char_traits@D@std@@V?$allocator@D@2@@2@_N_J_KNVallocator@2@Uadl_serializer@json_abi_v3_11_2@nlohmann@@V?$vector@EV?$allocator@E@std@@@2@@json_abi_v3_11_2@nlohmann@@@std@@PEAX@std@@@std@@@?$_Tree@V?$_Tmap_traits@V?$basic_string@DU?$char_traits@D@std@@V?$allocator@D@2@@std@@V?$basic_json@Vmap@std@@Vvector@2@V?$basic_string@DU?$char_traits@D@std@@V?$allocator@D@2@@2@_N_J_KNVallocator@2@Uadl_serializer@json_abi_v3_11_2@nlohmann@@V?$vector@EV?$allocator@E@std@@@2@@json_abi_v3_11_2@nlohmann@@U?$less@X@2@V?$allocator@U?$pair@$$CBV?$basic_string@DU?$char_traits@D@std@@V?$allocator@D@2@@std@@V?$basic_json@Vmap@std@@Vvector@2@V?$basic_string@DU?$char_traits@D@std@@V?$allocator@D@2@@2@_N_J_KNVallocator@2@Uadl_serializer@json_abi_v3_11_2@nlohmann@@V?$vector@EV?$allocator@E@std@@@2@@json_abi_v3_11_2@nlohmann@@@std@@@2@$0A@@std@@@std@@QEAA@AEBV01@$$QEAV?$allocator@U?$_Tree_node@U?$pair@$$CBV?$basic_string@DU?$char_traits@D@std@@V?$allocator@D@2@@std@@V?$basic_json@Vmap@std@@Vvector@2@V?$basic_string@DU?$char_traits@D@std@@V?$allocator@D@2@@2@_N_J_KNVallocator@2@Uadl_serializer@json_abi_v3_11_2@nlohmann@@V?$vector@EV?$allocator@E@std@@@2@@json_abi_v3_11_2@nlohmann@@@std@@PEAX@std@@@1@@Z
        180   B3 00003E40 ??$?0V?$allocator@V?$_List_unchecked_iterator@V?$_List_val@U?$_List_simple_types@U?$pair@$$CBIW4Result@Behavior@pineBT@@@std@@@std@@@std@@@std@@@std@@$$V@?$_Compressed_pair@V?$allocator@V?$_List_unchecked_iterator@V?$_List_val@U?$_List_simple_types@U?$pair@$$CBIW4Result@Behavior@pineBT@@@std@@@std@@@std@@@std@@@std@@V?$_Vector_val@U?$_Simple_types@V?$_List_unchecked_iterator@V?$_List_val@U?$_List_simple_types@U?$pair@$$CBIW4Result@Behavior@pineBT@@@std@@@std@@@std@@@std@@@std@@@2@$00@std@@QEAA@U_One_then_variadic_args_t@1@$$QEAV?$allocator@V?$_List_unchecked_iterator@V?$_List_val@U?$_List_simple_types@U?$pair@$$CBIW4Result@Behavior@pineBT@@@std@@@std@@@std@@@std@@@1@@Z
        181   B4 00003E40 ??$?0V?$allocator@V?$_List_unchecked_iterator@V?$_List_val@U?$_List_simple_types@U?$pair@$$CBIW4Result@Behavior@pineBT@@@std@@@std@@@std@@@std@@@std@@$0A@@?$_Hash_vec@V?$allocator@V?$_List_unchecked_iterator@V?$_List_val@U?$_List_simple_types@U?$pair@$$CBIW4Result@Behavior@pineBT@@@std@@@std@@@std@@@std@@@std@@@std@@QEAA@$$QEAV?$allocator@V?$_List_unchecked_iterator@V?$_List_val@U?$_List_simple_types@U?$pair@$$CBIW4Result@Behavior@pineBT@@@std@@@std@@@std@@@std@@@1@@Z
        182   B5 00003E40 ??$?0V?$allocator@V?$_List_unchecked_iterator@V?$_List_val@U?$_List_simple_types@U?$pair@$$CBV?$basic_string@DU?$char_traits@D@std@@V?$allocator@D@2@@std@@H@std@@@std@@@std@@@std@@@std@@$$V@?$_Compressed_pair@V?$allocator@V?$_List_unchecked_iterator@V?$_List_val@U?$_List_simple_types@U?$pair@$$CBV?$basic_string@DU?$char_traits@D@std@@V?$allocator@D@2@@std@@H@std@@@std@@@std@@@std@@@std@@V?$_Vector_val@U?$_Simple_types@V?$_List_unchecked_iterator@V?$_List_val@U?$_List_simple_types@U?$pair@$$CBV?$basic_string@DU?$char_traits@D@std@@V?$allocator@D@2@@std@@H@std@@@std@@@std@@@std@@@std@@@2@$00@std@@QEAA@U_One_then_variadic_args_t@1@$$QEAV?$allocator@V?$_List_unchecked_iterator@V?$_List_val@U?$_List_simple_types@U?$pair@$$CBV?$basic_string@DU?$char_traits@D@std@@V?$allocator@D@2@@std@@H@std@@@std@@@std@@@std@@@1@@Z
        183   B6 00003E40 ??$?0V?$allocator@V?$_List_unchecked_iterator@V?$_List_val@U?$_List_simple_types@U?$pair@$$CBV?$basic_string@DU?$char_traits@D@std@@V?$allocator@D@2@@std@@H@std@@@std@@@std@@@std@@@std@@$0A@@?$_Hash_vec@V?$allocator@V?$_List_unchecked_iterator@V?$_List_val@U?$_List_simple_types@U?$pair@$$CBV?$basic_string@DU?$char_traits@D@std@@V?$allocator@D@2@@std@@H@std@@@std@@@std@@@std@@@std@@@std@@QEAA@$$QEAV?$allocator@V?$_List_unchecked_iterator@V?$_List_val@U?$_List_simple_types@U?$pair@$$CBV?$basic_string@DU?$char_traits@D@std@@V?$allocator@D@2@@std@@H@std@@@std@@@std@@@std@@@1@@Z
        184   B7 00003E40 ??$?0V?$allocator@V?$basic_json@Vmap@std@@Vvector@2@V?$basic_string@DU?$char_traits@D@std@@V?$allocator@D@2@@2@_N_J_KNVallocator@2@Uadl_serializer@json_abi_v3_11_2@nlohmann@@V?$vector@EV?$allocator@E@std@@@2@@json_abi_v3_11_2@nlohmann@@@std@@$$V@?$_Compressed_pair@V?$allocator@V?$basic_json@Vmap@std@@Vvector@2@V?$basic_string@DU?$char_traits@D@std@@V?$allocator@D@2@@2@_N_J_KNVallocator@2@Uadl_serializer@json_abi_v3_11_2@nlohmann@@V?$vector@EV?$allocator@E@std@@@2@@json_abi_v3_11_2@nlohmann@@@std@@V?$_Vector_val@U?$_Simple_types@V?$basic_json@Vmap@std@@Vvector@2@V?$basic_string@DU?$char_traits@D@std@@V?$allocator@D@2@@2@_N_J_KNVallocator@2@Uadl_serializer@json_abi_v3_11_2@nlohmann@@V?$vector@EV?$allocator@E@std@@@2@@json_abi_v3_11_2@nlohmann@@@std@@@2@$00@std@@QEAA@U_One_then_variadic_args_t@1@$$QEAV?$allocator@V?$basic_json@Vmap@std@@Vvector@2@V?$basic_string@DU?$char_traits@D@std@@V?$allocator@D@2@@2@_N_J_KNVallocator@2@Uadl_serializer@json_abi_v3_11_2@nlohmann@@V?$vector@EV?$allocator@E@std@@@2@@json_abi_v3_11_2@nlohmann@@@1@@Z
        185   B8 00003E40 ??$?0V?$allocator@V?$basic_string@DU?$char_traits@D@std@@V?$allocator@D@2@@std@@@std@@$$V@?$_Compressed_pair@V?$allocator@V?$basic_string@DU?$char_traits@D@std@@V?$allocator@D@2@@std@@@std@@V?$_Vector_val@U?$_Simple_types@V?$basic_string@DU?$char_traits@D@std@@V?$allocator@D@2@@std@@@std@@@2@$00@std@@QEAA@U_One_then_variadic_args_t@1@$$QEAV?$allocator@V?$basic_string@DU?$char_traits@D@std@@V?$allocator@D@2@@std@@@1@@Z
        186   B9 000059E0 ??$?0V?$allocator@V?$basic_string@DU?$char_traits@D@std@@V?$allocator@D@2@@std@@@std@@PEAV?$basic_string@DU?$char_traits@D@std@@V?$allocator@D@2@@1@PEAV21@PEAV21@@?$_Compressed_pair@V?$allocator@V?$basic_string@DU?$char_traits@D@std@@V?$allocator@D@2@@std@@@std@@V?$_Vector_val@U?$_Simple_types@V?$basic_string@DU?$char_traits@D@std@@V?$allocator@D@2@@std@@@std@@@2@$00@std@@QEAA@U_One_then_variadic_args_t@1@$$QEAV?$allocator@V?$basic_string@DU?$char_traits@D@std@@V?$allocator@D@2@@std@@@1@$$QEAPEAV?$basic_string@DU?$char_traits@D@std@@V?$allocator@D@2@@1@22@Z
        187   BA 00008F50 ??$?0V?$basic_string@DU?$char_traits@D@std@@V?$allocator@D@2@@std@@$$T$0A@@?$pair@$$CBV?$basic_string@DU?$char_traits@D@std@@V?$allocator@D@2@@std@@V?$basic_json@Vmap@std@@Vvector@2@V?$basic_string@DU?$char_traits@D@std@@V?$allocator@D@2@@2@_N_J_KNVallocator@2@Uadl_serializer@json_abi_v3_11_2@nlohmann@@V?$vector@EV?$allocator@E@std@@@2@@json_abi_v3_11_2@nlohmann@@@std@@QEAA@$$QEAV?$basic_string@DU?$char_traits@D@std@@V?$allocator@D@2@@1@$$QEA$$T@Z
        188   BB 00008FA0 ??$?0V?$basic_string@DU?$char_traits@D@std@@V?$allocator@D@2@@std@@$$T@?$_Tree_temp_node@V?$allocator@U?$_Tree_node@U?$pair@$$CBV?$basic_string@DU?$char_traits@D@std@@V?$allocator@D@2@@std@@V?$basic_json@Vmap@std@@Vvector@2@V?$basic_string@DU?$char_traits@D@std@@V?$allocator@D@2@@2@_N_J_KNVallocator@2@Uadl_serializer@json_abi_v3_11_2@nlohmann@@V?$vector@EV?$allocator@E@std@@@2@@json_abi_v3_11_2@nlohmann@@@std@@PEAX@std@@@std@@@std@@QEAA@AEAV?$allocator@U?$_Tree_node@U?$pair@$$CBV?$basic_string@DU?$char_traits@D@std@@V?$allocator@D@2@@std@@V?$basic_json@Vmap@std@@Vvector@2@V?$basic_string@DU?$char_traits@D@std@@V?$allocator@D@2@@2@_N_J_KNVallocator@2@Uadl_serializer@json_abi_v3_11_2@nlohmann@@V?$vector@EV?$allocator@E@std@@@2@@json_abi_v3_11_2@nlohmann@@@std@@PEAX@std@@@1@PEAU?$_Tree_node@U?$pair@$$CBV?$basic_string@DU?$char_traits@D@std@@V?$allocator@D@2@@std@@V?$basic_json@Vmap@std@@Vvector@2@V?$basic_string@DU?$char_traits@D@std@@V?$allocator@D@2@@2@_N_J_KNVallocator@2@Uadl_serializer@json_abi_v3_11_2@nlohmann@@V?$vector@EV?$allocator@E@std@@@2@@json_abi_v3_11_2@nlohmann@@@std@@PEAX@1@$$QEAV?$basic_string@DU?$char_traits@D@std@@V?$allocator@D@2@@1@$$QEA$$T@Z
        189   BC 0003F890 ??$?0V?$basic_string@DU?$char_traits@D@std@@V?$allocator@D@2@@std@@V01@$0A@@?$basic_json@Vmap@std@@Vvector@2@V?$basic_string@DU?$char_traits@D@std@@V?$allocator@D@2@@2@_N_J_KNVallocator@2@Uadl_serializer@json_abi_v3_11_2@nlohmann@@V?$vector@EV?$allocator@E@std@@@2@@json_abi_v3_11_2@nlohmann@@QEAA@$$QEAV?$basic_string@DU?$char_traits@D@std@@V?$allocator@D@2@@std@@@Z
        190   BD 00009050 ??$?0V?$output_string_adapter@DV?$basic_string@DU?$char_traits@D@std@@V?$allocator@D@2@@std@@@detail@json_abi_v3_11_2@nlohmann@@$0A@@?$shared_ptr@U?$output_adapter_protocol@D@detail@json_abi_v3_11_2@nlohmann@@@std@@QEAA@$$QEAV?$shared_ptr@V?$output_string_adapter@DV?$basic_string@DU?$char_traits@D@std@@V?$allocator@D@2@@std@@@detail@json_abi_v3_11_2@nlohmann@@@1@@Z
        191   BE 0003F910 ??$?0V?$tuple@AEBH@std@@V?$tuple@$$V@1@$0A@$$Z$S@?$pair@$$CBHV?$unique_ptr@VBehaviorTree@pineBT@@U?$default_delete@VBehaviorTree@pineBT@@@std@@@std@@@std@@QEAA@AEAV?$tuple@AEBH@1@AEAV?$tuple@$$V@1@U?$integer_sequence@_K$0A@@1@U?$integer_sequence@_K$S@1@@Z
        192   BF 0002C300 ??$?0V?$tuple@AEBI@std@@V?$tuple@$$V@1@$0A@$$Z$S@?$pair@$$CBIW4Result@Behavior@pineBT@@@std@@QEAA@AEAV?$tuple@AEBI@1@AEAV?$tuple@$$V@1@U?$integer_sequence@_K$0A@@1@U?$integer_sequence@_K$S@1@@Z
        193   C0 00005A10 ??$?0V?$tuple@AEBV?$basic_string@DU?$char_traits@D@std@@V?$allocator@D@2@@std@@@std@@V?$tuple@$$V@1@$0A@$$Z$S@?$pair@$$CBV?$basic_string@DU?$char_traits@D@std@@V?$allocator@D@2@@std@@H@std@@QEAA@AEAV?$tuple@AEBV?$basic_string@DU?$char_traits@D@std@@V?$allocator@D@2@@std@@@1@AEAV?$tuple@$$V@1@U?$integer_sequence@_K$0A@@1@U?$integer_sequence@_K$S@1@@Z
        194   C1 00009080 ??$?0V?$tuple@AEBV?$basic_string@DU?$char_traits@D@std@@V?$allocator@D@2@@std@@@std@@V?$tuple@$$V@1@$0A@$$Z$S@?$pair@$$CBV?$basic_string@DU?$char_traits@D@std@@V?$allocator@D@2@@std@@UBehaviorSchema@pineBT@@@std@@QEAA@AEAV?$tuple@AEBV?$basic_string@DU?$char_traits@D@std@@V?$allocator@D@2@@std@@@1@AEAV?$tuple@$$V@1@U?$integer_sequence@_K$0A@@1@U?$integer_sequence@_K$S@1@@Z
        195   C2 0002DA00 ??$?0V?$tuple@AEBV?$basic_string@DU?$char_traits@D@std@@V?$allocator@D@2@@std@@@std@@V?$tuple@$$V@1@$0A@$$Z$S@?$pair@$$CBV?$basic_string@DU?$char_traits@D@std@@V?$allocator@D@2@@std@@V?$basic_json@Vmap@std@@Vvector@2@V?$basic_string@DU?$char_traits@D@std@@V?$allocator@D@2@@2@_N_J_KNVallocator@2@Uadl_serializer@json_abi_v3_11_2@nlohmann@@V?$vector@EV?$allocator@E@std@@@2@@json_abi_v3_11_2@nlohmann@@@std@@QEAA@AEAV?$tuple@AEBV?$basic_string@DU?$char_traits@D@std@@V?$allocator@D@2@@std@@@1@AEAV?$tuple@$$V@1@U?$integer_sequence@_K$0A@@1@U?$integer_sequence@_K$S@1@@Z
        196   C3 00009180 ??$?0V?$tuple@AEBV?$basic_string@DU?$char_traits@D@std@@V?$allocator@D@2@@std@@@std@@V?$tuple@$$V@1@$0A@$$Z$S@?$pair@$$CBV?$basic_string@DU?$char_traits@D@std@@V?$allocator@D@2@@std@@V?$function@$$A6APEAVBehavior@pineBT@@AEBV?$basic_string@DU?$char_traits@D@std@@V?$allocator@D@2@@std@@AEAVBehaviorTree@2@@Z@2@@std@@QEAA@AEAV?$tuple@AEBV?$basic_string@DU?$char_traits@D@std@@V?$allocator@D@2@@std@@@1@AEAV?$tuple@$$V@1@U?$integer_sequence@_K$0A@@1@U?$integer_sequence@_K$S@1@@Z
        197   C4 00002190 ??$?0V?$unique_ptr@UBehaviorTreeBuilderContext@pineBT@@U?$default_delete@UBehaviorTreeBuilderContext@pineBT@@@std@@@std@@@?$allocator@PEAV?$unique_ptr@UBehaviorTreeBuilderContext@pineBT@@U?$default_delete@UBehaviorTreeBuilderContext@pineBT@@@std@@@std@@@std@@QEAA@AEBV?$allocator@V?$unique_ptr@UBehaviorTreeBuilderContext@pineBT@@U?$default_delete@UBehaviorTreeBuilderContext@pineBT@@@std@@@std@@@1@@Z
        198   C5 00002190 ??$?0V?$unique_ptr@UBehaviorTreeBuilderContext@pineBT@@U?$default_delete@UBehaviorTreeBuilderContext@pineBT@@@std@@@std@@@?$allocator@U_Container_proxy@std@@@std@@QEAA@AEBV?$allocator@V?$unique_ptr@UBehaviorTreeBuilderContext@pineBT@@U?$default_delete@UBehaviorTreeBuilderContext@pineBT@@@std@@@std@@@1@@Z
        199   C6 0002DA30 ??$?0_N$$T$0A@@?$pair@_NPEAV?$basic_json@Vmap@std@@Vvector@2@V?$basic_string@DU?$char_traits@D@std@@V?$allocator@D@2@@2@_N_J_KNVallocator@2@Uadl_serializer@json_abi_v3_11_2@nlohmann@@V?$vector@EV?$allocator@E@std@@@2@@json_abi_v3_11_2@nlohmann@@@std@@QEAA@$$QEA_N$$QEA$$T@Z
        200   C7 0002DA30 ??$?0_NAEAPEAV?$basic_json@Vmap@std@@Vvector@2@V?$basic_string@DU?$char_traits@D@std@@V?$allocator@D@2@@2@_N_J_KNVallocator@2@Uadl_serializer@json_abi_v3_11_2@nlohmann@@V?$vector@EV?$allocator@E@std@@@2@@json_abi_v3_11_2@nlohmann@@$0A@@?$pair@_NPEAV?$basic_json@Vmap@std@@Vvector@2@V?$basic_string@DU?$char_traits@D@std@@V?$allocator@D@2@@2@_N_J_KNVallocator@2@Uadl_serializer@json_abi_v3_11_2@nlohmann@@V?$vector@EV?$allocator@E@std@@@2@@json_abi_v3_11_2@nlohmann@@@std@@QEAA@$$QEA_NAEAPEAV?$basic_json@Vmap@std@@Vvector@2@V?$basic_string@DU?$char_traits@D@std@@V?$allocator@D@2@@2@_N_J_KNVallocator@2@Uadl_serializer@json_abi_v3_11_2@nlohmann@@V?$vector@EV?$allocator@E@std@@@2@@json_abi_v3_11_2@nlohmann@@@Z
        201   C8 0002DA30 ??$?0_NPEAV?$basic_json@Vmap@std@@Vvector@2@V?$basic_string@DU?$char_traits@D@std@@V?$allocator@D@2@@2@_N_J_KNVallocator@2@Uadl_serializer@json_abi_v3_11_2@nlohmann@@V?$vector@EV?$allocator@E@std@@@2@@json_abi_v3_11_2@nlohmann@@$0A@@?$pair@_NPEAV?$basic_json@Vmap@std@@Vvector@2@V?$basic_string@DU?$char_traits@D@std@@V?$allocator@D@2@@2@_N_J_KNVallocator@2@Uadl_serializer@json_abi_v3_11_2@nlohmann@@V?$vector@EV?$allocator@E@std@@@2@@json_abi_v3_11_2@nlohmann@@@std@@QEAA@$$QEA_N$$QEAPEAV?$basic_json@Vmap@std@@Vvector@2@V?$basic_string@DU?$char_traits@D@std@@V?$allocator@D@2@@2@_N_J_KNVallocator@2@Uadl_serializer@json_abi_v3_11_2@nlohmann@@V?$vector@EV?$allocator@E@std@@@2@@json_abi_v3_11_2@nlohmann@@@Z
        202   C9 000091B0 ??$?4$$CBV?$basic_string@DU?$char_traits@D@std@@V?$allocator@D@2@@std@@H$0A@@?$pair@V?$basic_string@DU?$char_traits@D@std@@V?$allocator@D@2@@std@@H@std@@QEAAAEAU01@AEBU?$pair@$$CBV?$basic_string@DU?$char_traits@D@std@@V?$allocator@D@2@@std@@H@1@@Z
        203   CA 0003F930 ??$?4U?$default_delete@VBehaviorTree@pineBT@@@std@@$0A@@?$unique_ptr@VBehaviorTree@pineBT@@U?$default_delete@VBehaviorTree@pineBT@@@std@@@std@@QEAAAEAV01@$$QEAV01@@Z
        204   CB 00005A40 ??$?8DU?$char_traits@D@std@@V?$allocator@D@1@@std@@YA_NAEBV?$basic_string@DU?$char_traits@D@std@@V?$allocator@D@2@@0@0@Z
        205   CC 00004DC0 ??$?8DU?$char_traits@D@std@@V?$allocator@D@1@@std@@YA_NAEBV?$basic_string@DU?$char_traits@D@std@@V?$allocator@D@2@@0@QEBD@Z
        206   CD 0002DA40 ??$?8V?$iter_impl@$$CBV?$basic_json@Vmap@std@@Vvector@2@V?$basic_string@DU?$char_traits@D@std@@V?$allocator@D@2@@2@_N_J_KNVallocator@2@Uadl_serializer@json_abi_v3_11_2@nlohmann@@V?$vector@EV?$allocator@E@std@@@2@@json_abi_v3_11_2@nlohmann@@@detail@json_abi_v3_11_2@nlohmann@@$0A@@?$iter_impl@$$CBV?$basic_json@Vmap@std@@Vvector@2@V?$basic_string@DU?$char_traits@D@std@@V?$allocator@D@2@@2@_N_J_KNVallocator@2@Uadl_serializer@json_abi_v3_11_2@nlohmann@@V?$vector@EV?$allocator@E@std@@@2@@json_abi_v3_11_2@nlohmann@@@detail@json_abi_v3_11_2@nlohmann@@QEBA_NAEBV0123@@Z
        207   CE 0002DA40 ??$?8V?$iter_impl@V?$basic_json@Vmap@std@@Vvector@2@V?$basic_string@DU?$char_traits@D@std@@V?$allocator@D@2@@2@_N_J_KNVallocator@2@Uadl_serializer@json_abi_v3_11_2@nlohmann@@V?$vector@EV?$allocator@E@std@@@2@@json_abi_v3_11_2@nlohmann@@@detail@json_abi_v3_11_2@nlohmann@@$0A@@?$iter_impl@V?$basic_json@Vmap@std@@Vvector@2@V?$basic_string@DU?$char_traits@D@std@@V?$allocator@D@2@@2@_N_J_KNVallocator@2@Uadl_serializer@json_abi_v3_11_2@nlohmann@@V?$vector@EV?$allocator@E@std@@@2@@json_abi_v3_11_2@nlohmann@@@detail@json_abi_v3_11_2@nlohmann@@QEBA_NAEBV0123@@Z
        208   CF 0002BB30 ??$?9V?$_Vector_iterator@V?$_Vector_val@U?$_Simple_types@PEAVBehavior@pineBT@@@std@@@std@@@std@@V01@@std@@YA_NAEBV?$reverse_iterator@V?$_Vector_iterator@V?$_Vector_val@U?$_Simple_types@PEAVBehavior@pineBT@@@std@@@std@@@std@@@0@0@Z
        209   D0 0002DB20 ??$?9V?$iter_impl@$$CBV?$basic_json@Vmap@std@@Vvector@2@V?$basic_string@DU?$char_traits@D@std@@V?$allocator@D@2@@2@_N_J_KNVallocator@2@Uadl_serializer@json_abi_v3_11_2@nlohmann@@V?$vector@EV?$allocator@E@std@@@2@@json_abi_v3_11_2@nlohmann@@@detail@json_abi_v3_11_2@nlohmann@@$0A@@?$iter_impl@$$CBV?$basic_json@Vmap@std@@Vvector@2@V?$basic_string@DU?$char_traits@D@std@@V?$allocator@D@2@@2@_N_J_KNVallocator@2@Uadl_serializer@json_abi_v3_11_2@nlohmann@@V?$vector@EV?$allocator@E@std@@@2@@json_abi_v3_11_2@nlohmann@@@detail@json_abi_v3_11_2@nlohmann@@QEBA_NAEBV0123@@Z
        210   D1 0002DB20 ??$?9V?$iter_impl@V?$basic_json@Vmap@std@@Vvector@2@V?$basic_string@DU?$char_traits@D@std@@V?$allocator@D@2@@2@_N_J_KNVallocator@2@Uadl_serializer@json_abi_v3_11_2@nlohmann@@V?$vector@EV?$allocator@E@std@@@2@@json_abi_v3_11_2@nlohmann@@@detail@json_abi_v3_11_2@nlohmann@@$0A@@?$iter_impl@V?$basic_json@Vmap@std@@Vvector@2@V?$basic_string@DU?$char_traits@D@std@@V?$allocator@D@2@@2@_N_J_KNVallocator@2@Uadl_serializer@json_abi_v3_11_2@nlohmann@@V?$vector@EV?$allocator@E@std@@@2@@json_abi_v3_11_2@nlohmann@@@detail@json_abi_v3_11_2@nlohmann@@QEBA_NAEBV0123@@Z
        211   D2 000091F0 ??$?A$$CBD@?$basic_json@Vmap@std@@Vvector@2@V?$basic_string@DU?$char_traits@D@std@@V?$allocator@D@2@@2@_N_J_KNVallocator@2@Uadl_serializer@json_abi_v3_11_2@nlohmann@@V?$vector@EV?$allocator@E@std@@@2@@json_abi_v3_11_2@nlohmann@@QEAAAEAV012@PEBD@Z
        212   D3 00002E00 ??$?CU?$output_adapter_protocol@D@detail@json_abi_v3_11_2@nlohmann@@$0A@@?$shared_ptr@U?$output_adapter_protocol@D@detail@json_abi_v3_11_2@nlohmann@@@std@@QEBAPEAU?$output_adapter_protocol@D@detail@json_abi_v3_11_2@nlohmann@@XZ
        213   D4 00002690 ??$?RAEAD@identity@std@@QEBAAEADAEAD@Z
        214   D5 00009240 ??$?RAEAV?$basic_string_view@DU?$char_traits@D@std@@@std@@@_Cpo@_Begin@ranges@std@@QEBA?A_PAEAV?$basic_string_view@DU?$char_traits@D@std@@@3@@Z
        215   D6 00009250 ??$?RAEAV?$basic_string_view@DU?$char_traits@D@std@@@std@@@_Cpo@_Unchecked_end@ranges@std@@QEBA?A_PAEAV?$basic_string_view@DU?$char_traits@D@std@@@3@@Z
        216   D7 00009260 ??$?RAEAV?$basic_string_view@DU?$char_traits@D@std@@@std@@V?$back_insert_iterator@V?$_Fmt_buffer@D@std@@@1@U?$_Widen_char@D@1@Uidentity@1@@_Transform_fn@ranges@std@@QEBA?AU?$in_out_result@V?$_String_view_iterator@U?$char_traits@D@std@@@std@@V?$back_insert_iterator@V?$_Fmt_buffer@D@std@@@2@@12@AEAV?$basic_string_view@DU?$char_traits@D@std@@@2@V?$back_insert_iterator@V?$_Fmt_buffer@D@std@@@2@U?$_Widen_char@D@2@Uidentity@2@@Z
        217   D8 0002DC00 ??$?RAEAY02$$CBDAEBV?$basic_string@DU?$char_traits@D@std@@V?$allocator@D@2@@std@@@?$less@X@std@@QEBA_NAEAY02$$CBDAEBV?$basic_string@DU?$char_traits@D@std@@V?$allocator@D@2@@1@@Z
        218   D9 0002DC00 ??$?RAEAY04$$CBDAEBV?$basic_string@DU?$char_traits@D@std@@V?$allocator@D@2@@std@@@?$less@X@std@@QEBA_NAEAY04$$CBDAEBV?$basic_string@DU?$char_traits@D@std@@V?$allocator@D@2@@1@@Z
        219   DA 0002DC00 ??$?RAEAY06$$CBDAEBV?$basic_string@DU?$char_traits@D@std@@V?$allocator@D@2@@std@@@?$less@X@std@@QEBA_NAEAY06$$CBDAEBV?$basic_string@DU?$char_traits@D@std@@V?$allocator@D@2@@1@@Z
        220   DB 0002DC00 ??$?RAEAY07$$CBDAEBV?$basic_string@DU?$char_traits@D@std@@V?$allocator@D@2@@std@@@?$less@X@std@@QEBA_NAEAY07$$CBDAEBV?$basic_string@DU?$char_traits@D@std@@V?$allocator@D@2@@1@@Z
        221   DC 0002DC00 ??$?RAEAY08$$CBDAEBV?$basic_string@DU?$char_traits@D@std@@V?$allocator@D@2@@std@@@?$less@X@std@@QEBA_NAEAY08$$CBDAEBV?$basic_string@DU?$char_traits@D@std@@V?$allocator@D@2@@1@@Z
        222   DD 00002690 ??$?RAEBD@identity@std@@QEBAAEBDAEBD@Z
        223   DE 000092F0 ??$?RAEBIAEBI@?$less@X@std@@QEBA_NAEBI0@Z
        224   DF 0002DC20 ??$?RAEBV?$basic_string@DU?$char_traits@D@std@@V?$allocator@D@2@@std@@AEAY02$$CBD@?$less@X@std@@QEBA_NAEBV?$basic_string@DU?$char_traits@D@std@@V?$allocator@D@2@@1@AEAY02$$CBD@Z
        225   E0 0002DC20 ??$?RAEBV?$basic_string@DU?$char_traits@D@std@@V?$allocator@D@2@@std@@AEAY04$$CBD@?$less@X@std@@QEBA_NAEBV?$basic_string@DU?$char_traits@D@std@@V?$allocator@D@2@@1@AEAY04$$CBD@Z
        226   E1 0002DC20 ??$?RAEBV?$basic_string@DU?$char_traits@D@std@@V?$allocator@D@2@@std@@AEAY06$$CBD@?$less@X@std@@QEBA_NAEBV?$basic_string@DU?$char_traits@D@std@@V?$allocator@D@2@@1@AEAY06$$CBD@Z
        227   E2 0002DC20 ??$?RAEBV?$basic_string@DU?$char_traits@D@std@@V?$allocator@D@2@@std@@AEAY07$$CBD@?$less@X@std@@QEBA_NAEBV?$basic_string@DU?$char_traits@D@std@@V?$allocator@D@2@@1@AEAY07$$CBD@Z
        228   E3 0002DC20 ??$?RAEBV?$basic_string@DU?$char_traits@D@std@@V?$allocator@D@2@@std@@AEAY08$$CBD@?$less@X@std@@QEBA_NAEBV?$basic_string@DU?$char_traits@D@std@@V?$allocator@D@2@@1@AEAY08$$CBD@Z
        229   E4 00009300 ??$?RAEBV?$basic_string@DU?$char_traits@D@std@@V?$allocator@D@2@@std@@AEBV01@@?$less@X@std@@QEBA_NAEBV?$basic_string@DU?$char_traits@D@std@@V?$allocator@D@2@@1@0@Z
        230   E5 00009240 ??$?RAEBV?$basic_string_view@DU?$char_traits@D@std@@@std@@@_Cpo@_Begin@ranges@std@@QEBA?A_PAEBV?$basic_string_view@DU?$char_traits@D@std@@@3@@Z
        231   E6 00009250 ??$?RAEBV?$basic_string_view@DU?$char_traits@D@std@@@std@@@_Cpo@_Unchecked_end@ranges@std@@QEBA?A_PAEBV?$basic_string_view@DU?$char_traits@D@std@@@3@@Z
        232   E7 00009260 ??$?RAEBV?$basic_string_view@DU?$char_traits@D@std@@@std@@V?$back_insert_iterator@V?$_Fmt_buffer@D@std@@@1@@_Copy_fn@ranges@std@@QEBA?AU?$in_out_result@V?$_String_view_iterator@U?$char_traits@D@std@@@std@@V?$back_insert_iterator@V?$_Fmt_buffer@D@std@@@2@@12@AEBV?$basic_string_view@DU?$char_traits@D@std@@@2@V?$back_insert_iterator@V?$_Fmt_buffer@D@std@@@2@@Z
        233   E8 00009380 ??$?RAEB_KAEB_K@?$less@X@std@@QEBA_NAEB_K0@Z
        234   E9 00009390 ??$?RD@<lambda_1>@?1??_Estimate_required_capacity@?$basic_format_args@V?$basic_format_context@V?$back_insert_iterator@V?$_Fmt_buffer@D@std@@@std@@D@std@@@std@@QEBA_KXZ@QEBA?A_PD@Z
        235   EA 000093A0 ??$?RD@?$_Arg_formatter@V?$back_insert_iterator@V?$_Fmt_buffer@D@std@@@std@@D@std@@QEAA?AV?$back_insert_iterator@V?$_Fmt_buffer@D@std@@@1@D@Z
        236   EB 00009440 ??$?RD@?$_Default_arg_formatter@V?$back_insert_iterator@V?$_Fmt_buffer@D@std@@@std@@D@std@@QEHAA?AV?$back_insert_iterator@V?$_Fmt_buffer@D@std@@@1@D@Z
        237   EC 000094A0 ??$?RD@_Precision_checker@std@@QEBA_KD@Z
        238   ED 000094C0 ??$?RD@_Width_checker@std@@QEBA_KD@Z
        239   EE 000094E0 ??$?RDV?$back_insert_iterator@V?$_Fmt_buffer@D@std@@@std@@@_Fill_n_fn@ranges@std@@QEBA?AV?$back_insert_iterator@V?$_Fmt_buffer@D@std@@@2@V32@_JAEBD@Z
        240   EF 00009390 ??$?RH@<lambda_1>@?1??_Estimate_required_capacity@?$basic_format_args@V?$basic_format_context@V?$back_insert_iterator@V?$_Fmt_buffer@D@std@@@std@@D@std@@@std@@QEBA_KXZ@QEBA?A_PH@Z
        241   F0 00009580 ??$?RH@?$_Arg_formatter@V?$back_insert_iterator@V?$_Fmt_buffer@D@std@@@std@@D@std@@QEAA?AV?$back_insert_iterator@V?$_Fmt_buffer@D@std@@@1@H@Z
        242   F1 000095D0 ??$?RH@?$_Default_arg_formatter@V?$back_insert_iterator@V?$_Fmt_buffer@D@std@@@std@@D@std@@QEHAA?AV?$back_insert_iterator@V?$_Fmt_buffer@D@std@@@1@H@Z
        243   F2 0002C320 ??$?RH@?$_Uhash_compare@HU?$hash@H@std@@U?$equal_to@H@2@@std@@QEBA_KAEBH@Z
        244   F3 00009710 ??$?RH@_Precision_checker@std@@QEBA_KH@Z
        245   F4 00009730 ??$?RH@_Width_checker@std@@QEBA_KH@Z
        246   F5 0002C370 ??$?RHH@?$_Uhash_compare@HU?$hash@H@std@@U?$equal_to@H@2@@std@@QEBA_NAEBH0@Z
        247   F6 00009390 ??$?RI@<lambda_1>@?1??_Estimate_required_capacity@?$basic_format_args@V?$basic_format_context@V?$back_insert_iterator@V?$_Fmt_buffer@D@std@@@std@@D@std@@@std@@QEBA_KXZ@QEBA?A_PI@Z
        248   F7 00009750 ??$?RI@?$_Arg_formatter@V?$back_insert_iterator@V?$_Fmt_buffer@D@std@@@std@@D@std@@QEAA?AV?$back_insert_iterator@V?$_Fmt_buffer@D@std@@@1@I@Z
        249   F8 000097A0 ??$?RI@?$_Default_arg_formatter@V?$back_insert_iterator@V?$_Fmt_buffer@D@std@@@std@@D@std@@QEHAA?AV?$back_insert_iterator@V?$_Fmt_buffer@D@std@@@1@I@Z
        250   F9 0002C320 ??$?RI@?$_Uhash_compare@IU?$hash@I@std@@U?$equal_to@I@2@@std@@QEBA_KAEBI@Z
        251   FA 000098B0 ??$?RI@_Precision_checker@std@@QEBA_KI@Z
        252   FB 000098B0 ??$?RI@_Width_checker@std@@QEBA_KI@Z
        253   FC 0002C370 ??$?RII@?$_Uhash_compare@IU?$hash@I@std@@U?$equal_to@I@2@@std@@QEBA_NAEBI0@Z
        254   FD 00009390 ??$?RM@<lambda_1>@?1??_Estimate_required_capacity@?$basic_format_args@V?$basic_format_context@V?$back_insert_iterator@V?$_Fmt_buffer@D@std@@@std@@D@std@@@std@@QEBA_KXZ@QEBA?A_PM@Z
        255   FE 000098C0 ??$?RM@?$_Arg_formatter@V?$back_insert_iterator@V?$_Fmt_buffer@D@std@@@std@@D@std@@QEAA?AV?$back_insert_iterator@V?$_Fmt_buffer@D@std@@@1@M@Z
        256   FF 000098F0 ??$?RM@?$_Default_arg_formatter@V?$back_insert_iterator@V?$_Fmt_buffer@D@std@@@std@@D@std@@QEHAA?AV?$back_insert_iterator@V?$_Fmt_buffer@D@std@@@1@M@Z
        257  100 00009A00 ??$?RM@_Precision_checker@std@@QEBA_KM@Z
        258  101 00009A20 ??$?RM@_Width_checker@std@@QEBA_KM@Z
        259  102 00009390 ??$?RN@<lambda_1>@?1??_Estimate_required_capacity@?$basic_format_args@V?$basic_format_context@V?$back_insert_iterator@V?$_Fmt_buffer@D@std@@@std@@D@std@@@std@@QEBA_KXZ@QEBA?A_PN@Z
        260  103 00009A40 ??$?RN@?$_Arg_formatter@V?$back_insert_iterator@V?$_Fmt_buffer@D@std@@@std@@D@std@@QEAA?AV?$back_insert_iterator@V?$_Fmt_buffer@D@std@@@1@N@Z
        261  104 00009A70 ??$?RN@?$_Default_arg_formatter@V?$back_insert_iterator@V?$_Fmt_buffer@D@std@@@std@@D@std@@QEHAA?AV?$back_insert_iterator@V?$_Fmt_buffer@D@std@@@1@N@Z
        262  105 00009A00 ??$?RN@_Precision_checker@std@@QEBA_KN@Z
        263  106 00009A20 ??$?RN@_Width_checker@std@@QEBA_KN@Z
        264  107 00009390 ??$?RO@<lambda_1>@?1??_Estimate_required_capacity@?$basic_format_args@V?$basic_format_context@V?$back_insert_iterator@V?$_Fmt_buffer@D@std@@@std@@D@std@@@std@@QEBA_KXZ@QEBA?A_PO@Z
        265  108 00009B80 ??$?RO@?$_Arg_formatter@V?$back_insert_iterator@V?$_Fmt_buffer@D@std@@@std@@D@std@@QEAA?AV?$back_insert_iterator@V?$_Fmt_buffer@D@std@@@1@O@Z
        266  109 00009BB0 ??$?RO@?$_Default_arg_formatter@V?$back_insert_iterator@V?$_Fmt_buffer@D@std@@@std@@D@std@@QEHAA?AV?$back_insert_iterator@V?$_Fmt_buffer@D@std@@@1@O@Z
        267  10A 00009A00 ??$?RO@_Precision_checker@std@@QEBA_KO@Z
        268  10B 00009A20 ??$?RO@_Width_checker@std@@QEBA_KO@Z
        269  10C 00009CC0 ??$?RPEADPEADV?$back_insert_iterator@V?$_Fmt_buffer@D@std@@@std@@U?$_Widen_char@D@1@Uidentity@1@@_Transform_fn@ranges@std@@QEBA?AU?$in_out_result@PEADV?$back_insert_iterator@V?$_Fmt_buffer@D@std@@@std@@@12@PEAD0V?$back_insert_iterator@V?$_Fmt_buffer@D@std@@@2@U?$_Widen_char@D@2@Uidentity@2@@Z
        270  10D 00009D50 ??$?RPEBD@<lambda_1>@?1??_Estimate_required_capacity@?$basic_format_args@V?$basic_format_context@V?$back_insert_iterator@V?$_Fmt_buffer@D@std@@@std@@D@std@@@std@@QEBA_KXZ@QEBA?A_PQEBD@Z
        271  10E 00009D60 ??$?RPEBD@?$_Arg_formatter@V?$back_insert_iterator@V?$_Fmt_buffer@D@std@@@std@@D@std@@QEAA?AV?$back_insert_iterator@V?$_Fmt_buffer@D@std@@@1@PEBD@Z
        272  10F 00009DC0 ??$?RPEBD@?$_Default_arg_formatter@V?$back_insert_iterator@V?$_Fmt_buffer@D@std@@@std@@D@std@@QEHAA?AV?$back_insert_iterator@V?$_Fmt_buffer@D@std@@@1@PEBD@Z
        273  110 00009A00 ??$?RPEBD@_Precision_checker@std@@QEBA_KQEBD@Z
        274  111 00009A20 ??$?RPEBD@_Width_checker@std@@QEBA_KQEBD@Z
        275  112 00009CC0 ??$?RPEBDPEBDV?$back_insert_iterator@V?$_Fmt_buffer@D@std@@@std@@U?$_Widen_char@D@1@Uidentity@1@@_Transform_fn@ranges@std@@QEBA?AU?$in_out_result@PEBDV?$back_insert_iterator@V?$_Fmt_buffer@D@std@@@std@@@12@PEBD0V?$back_insert_iterator@V?$_Fmt_buffer@D@std@@@2@U?$_Widen_char@D@2@Uidentity@2@@Z
        276  113 00009390 ??$?RPEBX@<lambda_1>@?1??_Estimate_required_capacity@?$basic_format_args@V?$basic_format_context@V?$back_insert_iterator@V?$_Fmt_buffer@D@std@@@std@@D@std@@@std@@QEBA_KXZ@QEBA?A_PQEBX@Z
        277  114 00009E50 ??$?RPEBX@?$_Arg_formatter@V?$back_insert_iterator@V?$_Fmt_buffer@D@std@@@std@@D@std@@QEAA?AV?$back_insert_iterator@V?$_Fmt_buffer@D@std@@@1@PEBX@Z
        278  115 00009EE0 ??$?RPEBX@?$_Default_arg_formatter@V?$back_insert_iterator@V?$_Fmt_buffer@D@std@@@std@@D@std@@QEHAA?AV?$back_insert_iterator@V?$_Fmt_buffer@D@std@@@1@PEBX@Z
        279  116 00009A00 ??$?RPEBX@_Precision_checker@std@@QEBA_KQEBX@Z
        280  117 00009A20 ??$?RPEBX@_Width_checker@std@@QEBA_KQEBX@Z
        281  118 00009390 ??$?RUmonostate@std@@@<lambda_1>@?1??_Estimate_required_capacity@?$basic_format_args@V?$basic_format_context@V?$back_insert_iterator@V?$_Fmt_buffer@D@std@@@std@@D@std@@@std@@QEBA_KXZ@QEBA?A_PUmonostate@3@@Z
        282  119 00007FD0 ??$?RUmonostate@std@@@?$_Arg_formatter@V?$back_insert_iterator@V?$_Fmt_buffer@D@std@@@std@@D@std@@QEAA?AV?$back_insert_iterator@V?$_Fmt_buffer@D@std@@@1@Umonostate@1@@Z
        283  11A 00004BC0 ??$?RUmonostate@std@@@?$_Default_arg_formatter@V?$back_insert_iterator@V?$_Fmt_buffer@D@std@@@std@@D@std@@QEHAA?AV?$back_insert_iterator@V?$_Fmt_buffer@D@std@@@1@Umonostate@1@@Z
        284  11B 00009A00 ??$?RUmonostate@std@@@_Precision_checker@std@@QEBA_KUmonostate@1@@Z
        285  11C 00009A20 ??$?RUmonostate@std@@@_Width_checker@std@@QEBA_KUmonostate@1@@Z
        286  11D 0002DC40 ??$?RV?$basic_json@Vmap@std@@Vvector@2@V?$basic_string@DU?$char_traits@D@std@@V?$allocator@D@2@@2@_N_J_KNVallocator@2@Uadl_serializer@json_abi_v3_11_2@nlohmann@@V?$vector@EV?$allocator@E@std@@@2@@json_abi_v3_11_2@nlohmann@@AEAH@from_json_fn@detail@json_abi_v3_11_2@nlohmann@@QEBAXAEBV?$basic_json@Vmap@std@@Vvector@2@V?$basic_string@DU?$char_traits@D@std@@V?$allocator@D@2@@2@_N_J_KNVallocator@2@Uadl_serializer@json_abi_v3_11_2@nlohmann@@V?$vector@EV?$allocator@E@std@@@2@@23@AEAH@Z
        287  11E 0002DD70 ??$?RV?$basic_json@Vmap@std@@Vvector@2@V?$basic_string@DU?$char_traits@D@std@@V?$allocator@D@2@@2@_N_J_KNVallocator@2@Uadl_serializer@json_abi_v3_11_2@nlohmann@@V?$vector@EV?$allocator@E@std@@@2@@json_abi_v3_11_2@nlohmann@@AEAM@from_json_fn@detail@json_abi_v3_11_2@nlohmann@@QEBAXAEBV?$basic_json@Vmap@std@@Vvector@2@V?$basic_string@DU?$char_traits@D@std@@V?$allocator@D@2@@2@_N_J_KNVallocator@2@Uadl_serializer@json_abi_v3_11_2@nlohmann@@V?$vector@EV?$allocator@E@std@@@2@@23@AEAM@Z
        288  11F 0002DED0 ??$?RV?$basic_json@Vmap@std@@Vvector@2@V?$basic_string@DU?$char_traits@D@std@@V?$allocator@D@2@@2@_N_J_KNVallocator@2@Uadl_serializer@json_abi_v3_11_2@nlohmann@@V?$vector@EV?$allocator@E@std@@@2@@json_abi_v3_11_2@nlohmann@@AEAN@to_json_fn@detail@json_abi_v3_11_2@nlohmann@@QEBAXAEAV?$basic_json@Vmap@std@@Vvector@2@V?$basic_string@DU?$char_traits@D@std@@V?$allocator@D@2@@2@_N_J_KNVallocator@2@Uadl_serializer@json_abi_v3_11_2@nlohmann@@V?$vector@EV?$allocator@E@std@@@2@@23@AEAN@Z
        289  120 0002DF20 ??$?RV?$basic_json@Vmap@std@@Vvector@2@V?$basic_string@DU?$char_traits@D@std@@V?$allocator@D@2@@2@_N_J_KNVallocator@2@Uadl_serializer@json_abi_v3_11_2@nlohmann@@V?$vector@EV?$allocator@E@std@@@2@@json_abi_v3_11_2@nlohmann@@AEAV?$basic_string@DU?$char_traits@D@std@@V?$allocator@D@2@@std@@@from_json_fn@detail@json_abi_v3_11_2@nlohmann@@QEBAXAEBV?$basic_json@Vmap@std@@Vvector@2@V?$basic_string@DU?$char_traits@D@std@@V?$allocator@D@2@@2@_N_J_KNVallocator@2@Uadl_serializer@json_abi_v3_11_2@nlohmann@@V?$vector@EV?$allocator@E@std@@@2@@23@AEAV?$basic_string@DU?$char_traits@D@std@@V?$allocator@D@2@@std@@@Z
        290  121 00009FD0 ??$?RV?$basic_json@Vmap@std@@Vvector@2@V?$basic_string@DU?$char_traits@D@std@@V?$allocator@D@2@@2@_N_J_KNVallocator@2@Uadl_serializer@json_abi_v3_11_2@nlohmann@@V?$vector@EV?$allocator@E@std@@@2@@json_abi_v3_11_2@nlohmann@@AEAV?$basic_string@DU?$char_traits@D@std@@V?$allocator@D@2@@std@@@to_json_fn@detail@json_abi_v3_11_2@nlohmann@@QEBAXAEAV?$basic_json@Vmap@std@@Vvector@2@V?$basic_string@DU?$char_traits@D@std@@V?$allocator@D@2@@2@_N_J_KNVallocator@2@Uadl_serializer@json_abi_v3_11_2@nlohmann@@V?$vector@EV?$allocator@E@std@@@2@@23@AEAV?$basic_string@DU?$char_traits@D@std@@V?$allocator@D@2@@std@@@Z
        291  122 00009F00 ??$?RV?$basic_json@Vmap@std@@Vvector@2@V?$basic_string@DU?$char_traits@D@std@@V?$allocator@D@2@@2@_N_J_KNVallocator@2@Uadl_serializer@json_abi_v3_11_2@nlohmann@@V?$vector@EV?$allocator@E@std@@@2@@json_abi_v3_11_2@nlohmann@@AEAY03$$CBD@to_json_fn@detail@json_abi_v3_11_2@nlohmann@@QEBAXAEAV?$basic_json@Vmap@std@@Vvector@2@V?$basic_string@DU?$char_traits@D@std@@V?$allocator@D@2@@2@_N_J_KNVallocator@2@Uadl_serializer@json_abi_v3_11_2@nlohmann@@V?$vector@EV?$allocator@E@std@@@2@@23@AEAY03$$CBD@Z
        292  123 00009F00 ??$?RV?$basic_json@Vmap@std@@Vvector@2@V?$basic_string@DU?$char_traits@D@std@@V?$allocator@D@2@@2@_N_J_KNVallocator@2@Uadl_serializer@json_abi_v3_11_2@nlohmann@@V?$vector@EV?$allocator@E@std@@@2@@json_abi_v3_11_2@nlohmann@@AEAY04$$CBD@to_json_fn@detail@json_abi_v3_11_2@nlohmann@@QEBAXAEAV?$basic_json@Vmap@std@@Vvector@2@V?$basic_string@DU?$char_traits@D@std@@V?$allocator@D@2@@2@_N_J_KNVallocator@2@Uadl_serializer@json_abi_v3_11_2@nlohmann@@V?$vector@EV?$allocator@E@std@@@2@@23@AEAY04$$CBD@Z
        293  124 00009F00 ??$?RV?$basic_json@Vmap@std@@Vvector@2@V?$basic_string@DU?$char_traits@D@std@@V?$allocator@D@2@@2@_N_J_KNVallocator@2@Uadl_serializer@json_abi_v3_11_2@nlohmann@@V?$vector@EV?$allocator@E@std@@@2@@json_abi_v3_11_2@nlohmann@@AEAY06$$CBD@to_json_fn@detail@json_abi_v3_11_2@nlohmann@@QEBAXAEAV?$basic_json@Vmap@std@@Vvector@2@V?$basic_string@DU?$char_traits@D@std@@V?$allocator@D@2@@2@_N_J_KNVallocator@2@Uadl_serializer@json_abi_v3_11_2@nlohmann@@V?$vector@EV?$allocator@E@std@@@2@@23@AEAY06$$CBD@Z
        294  125 00009F00 ??$?RV?$basic_json@Vmap@std@@Vvector@2@V?$basic_string@DU?$char_traits@D@std@@V?$allocator@D@2@@2@_N_J_KNVallocator@2@Uadl_serializer@json_abi_v3_11_2@nlohmann@@V?$vector@EV?$allocator@E@std@@@2@@json_abi_v3_11_2@nlohmann@@AEAY07$$CBD@to_json_fn@detail@json_abi_v3_11_2@nlohmann@@QEBAXAEAV?$basic_json@Vmap@std@@Vvector@2@V?$basic_string@DU?$char_traits@D@std@@V?$allocator@D@2@@2@_N_J_KNVallocator@2@Uadl_serializer@json_abi_v3_11_2@nlohmann@@V?$vector@EV?$allocator@E@std@@@2@@23@AEAY07$$CBD@Z
        295  126 0002DFD0 ??$?RV?$basic_json@Vmap@std@@Vvector@2@V?$basic_string@DU?$char_traits@D@std@@V?$allocator@D@2@@2@_N_J_KNVallocator@2@Uadl_serializer@json_abi_v3_11_2@nlohmann@@V?$vector@EV?$allocator@E@std@@@2@@json_abi_v3_11_2@nlohmann@@AEA_J@to_json_fn@detail@json_abi_v3_11_2@nlohmann@@QEBAXAEAV?$basic_json@Vmap@std@@Vvector@2@V?$basic_string@DU?$char_traits@D@std@@V?$allocator@D@2@@2@_N_J_KNVallocator@2@Uadl_serializer@json_abi_v3_11_2@nlohmann@@V?$vector@EV?$allocator@E@std@@@2@@23@AEA_J@Z
        296  127 0002E010 ??$?RV?$basic_json@Vmap@std@@Vvector@2@V?$basic_string@DU?$char_traits@D@std@@V?$allocator@D@2@@2@_N_J_KNVallocator@2@Uadl_serializer@json_abi_v3_11_2@nlohmann@@V?$vector@EV?$allocator@E@std@@@2@@json_abi_v3_11_2@nlohmann@@AEA_K@to_json_fn@detail@json_abi_v3_11_2@nlohmann@@QEBAXAEAV?$basic_json@Vmap@std@@Vvector@2@V?$basic_string@DU?$char_traits@D@std@@V?$allocator@D@2@@2@_N_J_KNVallocator@2@Uadl_serializer@json_abi_v3_11_2@nlohmann@@V?$vector@EV?$allocator@E@std@@@2@@23@AEA_K@Z
        297  128 0002E050 ??$?RV?$basic_json@Vmap@std@@Vvector@2@V?$basic_string@DU?$char_traits@D@std@@V?$allocator@D@2@@2@_N_J_KNVallocator@2@Uadl_serializer@json_abi_v3_11_2@nlohmann@@V?$vector@EV?$allocator@E@std@@@2@@json_abi_v3_11_2@nlohmann@@AEA_N@from_json_fn@detail@json_abi_v3_11_2@nlohmann@@QEBAXAEBV?$basic_json@Vmap@std@@Vvector@2@V?$basic_string@DU?$char_traits@D@std@@V?$allocator@D@2@@2@_N_J_KNVallocator@2@Uadl_serializer@json_abi_v3_11_2@nlohmann@@V?$vector@EV?$allocator@E@std@@@2@@23@AEA_N@Z
        298  129 0002E0E0 ??$?RV?$basic_json@Vmap@std@@Vvector@2@V?$basic_string@DU?$char_traits@D@std@@V?$allocator@D@2@@2@_N_J_KNVallocator@2@Uadl_serializer@json_abi_v3_11_2@nlohmann@@V?$vector@EV?$allocator@E@std@@@2@@json_abi_v3_11_2@nlohmann@@AEA_N@to_json_fn@detail@json_abi_v3_11_2@nlohmann@@QEBAXAEAV?$basic_json@Vmap@std@@Vvector@2@V?$basic_string@DU?$char_traits@D@std@@V?$allocator@D@2@@2@_N_J_KNVallocator@2@Uadl_serializer@json_abi_v3_11_2@nlohmann@@V?$vector@EV?$allocator@E@std@@@2@@23@AEA_N@Z
        299  12A 00009F90 ??$?RV?$basic_json@Vmap@std@@Vvector@2@V?$basic_string@DU?$char_traits@D@std@@V?$allocator@D@2@@2@_N_J_KNVallocator@2@Uadl_serializer@json_abi_v3_11_2@nlohmann@@V?$vector@EV?$allocator@E@std@@@2@@json_abi_v3_11_2@nlohmann@@AEBH@to_json_fn@detail@json_abi_v3_11_2@nlohmann@@QEBAXAEAV?$basic_json@Vmap@std@@Vvector@2@V?$basic_string@DU?$char_traits@D@std@@V?$allocator@D@2@@2@_N_J_KNVallocator@2@Uadl_serializer@json_abi_v3_11_2@nlohmann@@V?$vector@EV?$allocator@E@std@@@2@@23@AEBH@Z
        300  12B 00009FD0 ??$?RV?$basic_json@Vmap@std@@Vvector@2@V?$basic_string@DU?$char_traits@D@std@@V?$allocator@D@2@@2@_N_J_KNVallocator@2@Uadl_serializer@json_abi_v3_11_2@nlohmann@@V?$vector@EV?$allocator@E@std@@@2@@json_abi_v3_11_2@nlohmann@@AEBV?$basic_string@DU?$char_traits@D@std@@V?$allocator@D@2@@std@@@to_json_fn@detail@json_abi_v3_11_2@nlohmann@@QEBAXAEAV?$basic_json@Vmap@std@@Vvector@2@V?$basic_string@DU?$char_traits@D@std@@V?$allocator@D@2@@2@_N_J_KNVallocator@2@Uadl_serializer@json_abi_v3_11_2@nlohmann@@V?$vector@EV?$allocator@E@std@@@2@@23@AEBV?$basic_string@DU?$char_traits@D@std@@V?$allocator@D@2@@std@@@Z
        301  12C 0003F970 ??$?RV?$basic_json@Vmap@std@@Vvector@2@V?$basic_string@DU?$char_traits@D@std@@V?$allocator@D@2@@2@_N_J_KNVallocator@2@Uadl_serializer@json_abi_v3_11_2@nlohmann@@V?$vector@EV?$allocator@E@std@@@2@@json_abi_v3_11_2@nlohmann@@V?$basic_string@DU?$char_traits@D@std@@V?$allocator@D@2@@std@@@to_json_fn@detail@json_abi_v3_11_2@nlohmann@@QEBAXAEAV?$basic_json@Vmap@std@@Vvector@2@V?$basic_string@DU?$char_traits@D@std@@V?$allocator@D@2@@2@_N_J_KNVallocator@2@Uadl_serializer@json_abi_v3_11_2@nlohmann@@V?$vector@EV?$allocator@E@std@@@2@@23@$$QEAV?$basic_string@DU?$char_traits@D@std@@V?$allocator@D@2@@std@@@Z
        302  12D 00005A80 ??$?RV?$basic_string@DU?$char_traits@D@std@@V?$allocator@D@2@@std@@@?$_Uhash_compare@V?$basic_string@DU?$char_traits@D@std@@V?$allocator@D@2@@std@@U?$hash@V?$basic_string@DU?$char_traits@D@std@@V?$allocator@D@2@@std@@@2@U?$equal_to@V?$basic_string@DU?$char_traits@D@std@@V?$allocator@D@2@@std@@@2@@std@@QEBA_KAEBV?$basic_string@DU?$char_traits@D@std@@V?$allocator@D@2@@1@@Z
        303  12E 00005AD0 ??$?RV?$basic_string@DU?$char_traits@D@std@@V?$allocator@D@2@@std@@V01@@?$_Uhash_compare@V?$basic_string@DU?$char_traits@D@std@@V?$allocator@D@2@@std@@U?$hash@V?$basic_string@DU?$char_traits@D@std@@V?$allocator@D@2@@std@@@2@U?$equal_to@V?$basic_string@DU?$char_traits@D@std@@V?$allocator@D@2@@std@@@2@@std@@QEBA_NAEBV?$basic_string@DU?$char_traits@D@std@@V?$allocator@D@2@@1@0@Z
        304  12F 0000A040 ??$?RV?$basic_string_view@DU?$char_traits@D@std@@@std@@@<lambda_1>@?1??_Estimate_required_capacity@?$basic_format_args@V?$basic_format_context@V?$back_insert_iterator@V?$_Fmt_buffer@D@std@@@std@@D@std@@@std@@QEBA_KXZ@QEBA?A_PV?$basic_string_view@DU?$char_traits@D@std@@@3@@Z
        305  130 0000A050 ??$?RV?$basic_string_view@DU?$char_traits@D@std@@@std@@@?$_Arg_formatter@V?$back_insert_iterator@V?$_Fmt_buffer@D@std@@@std@@D@std@@QEAA?AV?$back_insert_iterator@V?$_Fmt_buffer@D@std@@@1@V?$basic_string_view@DU?$char_traits@D@std@@@1@@Z
        306  131 0000A090 ??$?RV?$basic_string_view@DU?$char_traits@D@std@@@std@@@?$_Default_arg_formatter@V?$back_insert_iterator@V?$_Fmt_buffer@D@std@@@std@@D@std@@QEHAA?AV?$back_insert_iterator@V?$_Fmt_buffer@D@std@@@1@V?$basic_string_view@DU?$char_traits@D@std@@@1@@Z
        307  132 00009A00 ??$?RV?$basic_string_view@DU?$char_traits@D@std@@@std@@@_Precision_checker@std@@QEBA_KV?$basic_string_view@DU?$char_traits@D@std@@@1@@Z
        308  133 00009A20 ??$?RV?$basic_string_view@DU?$char_traits@D@std@@@std@@@_Width_checker@std@@QEBA_KV?$basic_string_view@DU?$char_traits@D@std@@@1@@Z
        309  134 00009390 ??$?RVhandle@?$basic_format_arg@V?$basic_format_context@V?$back_insert_iterator@V?$_Fmt_buffer@D@std@@@std@@D@std@@@std@@@<lambda_1>@?1??_Estimate_required_capacity@?$basic_format_args@V?$basic_format_context@V?$back_insert_iterator@V?$_Fmt_buffer@D@std@@@std@@D@std@@@std@@QEBA_KXZ@QEBA?A_PVhandle@?$basic_format_arg@V?$basic_format_context@V?$back_insert_iterator@V?$_Fmt_buffer@D@std@@@std@@D@std@@@3@@Z
        310  135 00009A00 ??$?RVhandle@?$basic_format_arg@V?$basic_format_context@V?$back_insert_iterator@V?$_Fmt_buffer@D@std@@@std@@D@std@@@std@@@_Precision_checker@std@@QEBA_KVhandle@?$basic_format_arg@V?$basic_format_context@V?$back_insert_iterator@V?$_Fmt_buffer@D@std@@@std@@D@std@@@1@@Z
        311  136 00009A20 ??$?RVhandle@?$basic_format_arg@V?$basic_format_context@V?$back_insert_iterator@V?$_Fmt_buffer@D@std@@@std@@D@std@@@std@@@_Width_checker@std@@QEBA_KVhandle@?$basic_format_arg@V?$basic_format_context@V?$back_insert_iterator@V?$_Fmt_buffer@D@std@@@std@@D@std@@@1@@Z
        312  137 00009390 ??$?R_J@<lambda_1>@?1??_Estimate_required_capacity@?$basic_format_args@V?$basic_format_context@V?$back_insert_iterator@V?$_Fmt_buffer@D@std@@@std@@D@std@@@std@@QEBA_KXZ@QEBA?A_P_J@Z
        313  138 0000A120 ??$?R_J@?$_Arg_formatter@V?$back_insert_iterator@V?$_Fmt_buffer@D@std@@@std@@D@std@@QEAA?AV?$back_insert_iterator@V?$_Fmt_buffer@D@std@@@1@_J@Z
        314  139 0000A170 ??$?R_J@?$_Default_arg_formatter@V?$back_insert_iterator@V?$_Fmt_buffer@D@std@@@std@@D@std@@QEHAA?AV?$back_insert_iterator@V?$_Fmt_buffer@D@std@@@1@_J@Z
        315  13A 0000A2D0 ??$?R_J@_Precision_checker@std@@QEBA_K_J@Z
        316  13B 0000A2F0 ??$?R_J@_Width_checker@std@@QEBA_K_J@Z
        317  13C 00009390 ??$?R_K@<lambda_1>@?1??_Estimate_required_capacity@?$basic_format_args@V?$basic_format_context@V?$back_insert_iterator@V?$_Fmt_buffer@D@std@@@std@@D@std@@@std@@QEBA_KXZ@QEBA?A_P_K@Z
        318  13D 0000A310 ??$?R_K@?$_Arg_formatter@V?$back_insert_iterator@V?$_Fmt_buffer@D@std@@@std@@D@std@@QEAA?AV?$back_insert_iterator@V?$_Fmt_buffer@D@std@@@1@_K@Z
        319  13E 0000A360 ??$?R_K@?$_Default_arg_formatter@V?$back_insert_iterator@V?$_Fmt_buffer@D@std@@@std@@D@std@@QEHAA?AV?$back_insert_iterator@V?$_Fmt_buffer@D@std@@@1@_K@Z
        320  13F 00002690 ??$?R_K@_Precision_checker@std@@QEBA_K_K@Z
        321  140 00002690 ??$?R_K@_Width_checker@std@@QEBA_K_K@Z
        322  141 00009390 ??$?R_N@<lambda_1>@?1??_Estimate_required_capacity@?$basic_format_args@V?$basic_format_context@V?$back_insert_iterator@V?$_Fmt_buffer@D@std@@@std@@D@std@@@std@@QEBA_KXZ@QEBA?A_P_N@Z
        323  142 0000A490 ??$?R_N@?$_Arg_formatter@V?$back_insert_iterator@V?$_Fmt_buffer@D@std@@@std@@D@std@@QEAA?AV?$back_insert_iterator@V?$_Fmt_buffer@D@std@@@1@_N@Z
        324  143 0000A4E0 ??$?R_N@?$_Default_arg_formatter@V?$back_insert_iterator@V?$_Fmt_buffer@D@std@@@std@@D@std@@QEHAA?AV?$back_insert_iterator@V?$_Fmt_buffer@D@std@@@1@_N@Z
        325  144 0000A590 ??$?R_N@_Precision_checker@std@@QEBA_K_N@Z
        326  145 0000A590 ??$?R_N@_Width_checker@std@@QEBA_K_N@Z
        327  146 0000A5A0 ??$?__MDU?$char_traits@D@std@@V?$allocator@D@1@@std@@YA?AUstrong_ordering@0@AEBV?$basic_string@DU?$char_traits@D@std@@V?$allocator@D@2@@0@0@Z
        328  147 0002E130 ??$?__MDU?$char_traits@D@std@@V?$allocator@D@1@@std@@YA?AUstrong_ordering@0@AEBV?$basic_string@DU?$char_traits@D@std@@V?$allocator@D@2@@0@QEBD@Z
        329  148 000021E0 ??$_Adl_verify_range@PEADPEAD@std@@YAXAEBQEAD0@Z
        330  149 000021E0 ??$_Adl_verify_range@PEAPEAPEAVBehavior@pineBT@@PEAPEAPEAV12@@std@@YAXAEBQEAPEAPEAVBehavior@pineBT@@0@Z
        331  14A 000021E0 ??$_Adl_verify_range@PEAPEAV?$unique_ptr@UBehaviorTreeBuilderContext@pineBT@@U?$default_delete@UBehaviorTreeBuilderContext@pineBT@@@std@@@std@@PEAPEAV12@@std@@YAXAEBQEAPEAV?$unique_ptr@UBehaviorTreeBuilderContext@pineBT@@U?$default_delete@UBehaviorTreeBuilderContext@pineBT@@@std@@@0@0@Z
        332  14B 000021E0 ??$_Adl_verify_range@PEAV?$_List_unchecked_iterator@V?$_List_val@U?$_List_simple_types@U?$pair@$$CBHV?$unique_ptr@VBehaviorTree@pineBT@@U?$default_delete@VBehaviorTree@pineBT@@@std@@@std@@@std@@@std@@@std@@@std@@PEAV12@@std@@YAXAEBQEAV?$_List_unchecked_iterator@V?$_List_val@U?$_List_simple_types@U?$pair@$$CBHV?$unique_ptr@VBehaviorTree@pineBT@@U?$default_delete@VBehaviorTree@pineBT@@@std@@@std@@@std@@@std@@@std@@@0@0@Z
        333  14C 000021E0 ??$_Adl_verify_range@PEAV?$_List_unchecked_iterator@V?$_List_val@U?$_List_simple_types@U?$pair@$$CBIW4Result@Behavior@pineBT@@@std@@@std@@@std@@@std@@PEAV12@@std@@YAXAEBQEAV?$_List_unchecked_iterator@V?$_List_val@U?$_List_simple_types@U?$pair@$$CBIW4Result@Behavior@pineBT@@@std@@@std@@@std@@@0@0@Z
        334  14D 000021E0 ??$_Adl_verify_range@PEAV?$_List_unchecked_iterator@V?$_List_val@U?$_List_simple_types@U?$pair@$$CBV?$basic_string@DU?$char_traits@D@std@@V?$allocator@D@2@@std@@H@std@@@std@@@std@@@std@@PEAV12@@std@@YAXAEBQEAV?$_List_unchecked_iterator@V?$_List_val@U?$_List_simple_types@U?$pair@$$CBV?$basic_string@DU?$char_traits@D@std@@V?$allocator@D@2@@std@@H@std@@@std@@@std@@@0@0@Z
        335  14E 000021E0 ??$_Adl_verify_range@PEAV?$_List_unchecked_iterator@V?$_List_val@U?$_List_simple_types@U?$pair@$$CBV?$basic_string@DU?$char_traits@D@std@@V?$allocator@D@2@@std@@UBehaviorSchema@pineBT@@@std@@@std@@@std@@@std@@PEAV12@@std@@YAXAEBQEAV?$_List_unchecked_iterator@V?$_List_val@U?$_List_simple_types@U?$pair@$$CBV?$basic_string@DU?$char_traits@D@std@@V?$allocator@D@2@@std@@UBehaviorSchema@pineBT@@@std@@@std@@@std@@@0@0@Z
        336  14F 000021E0 ??$_Adl_verify_range@PEAV?$_List_unchecked_iterator@V?$_List_val@U?$_List_simple_types@U?$pair@$$CBV?$basic_string@DU?$char_traits@D@std@@V?$allocator@D@2@@std@@V?$function@$$A6APEAVBehavior@pineBT@@AEBV?$basic_string@DU?$char_traits@D@std@@V?$allocator@D@2@@std@@AEAVBehaviorTree@2@@Z@2@@std@@@std@@@std@@@std@@PEAV12@@std@@YAXAEBQEAV?$_List_unchecked_iterator@V?$_List_val@U?$_List_simple_types@U?$pair@$$CBV?$basic_string@DU?$char_traits@D@std@@V?$allocator@D@2@@std@@V?$function@$$A6APEAVBehavior@pineBT@@AEBV?$basic_string@DU?$char_traits@D@std@@V?$allocator@D@2@@std@@AEAVBehaviorTree@2@@Z@2@@std@@@std@@@std@@@0@0@Z
        337  150 000021E0 ??$_Adl_verify_range@PEBDPEBD@std@@YAXAEBQEBD0@Z
        338  151 000021E0 ??$_Adl_verify_range@PEBIPEBI@std@@YAXAEBQEBI0@Z
        339  152 000021E0 ??$_Adl_verify_range@PEB_KPEB_K@std@@YAXAEBQEB_K0@Z
        340  153 000021E0 ??$_Adl_verify_range@V?$_List_const_iterator@V?$_List_val@U?$_List_simple_types@U?$pair@$$CBV?$basic_string@DU?$char_traits@D@std@@V?$allocator@D@2@@std@@H@std@@@std@@@std@@@std@@V12@@std@@YAXAEBV?$_List_const_iterator@V?$_List_val@U?$_List_simple_types@U?$pair@$$CBV?$basic_string@DU?$char_traits@D@std@@V?$allocator@D@2@@std@@H@std@@@std@@@std@@@0@0@Z
        341  154 000021E0 ??$_Adl_verify_range@V?$_String_view_iterator@U?$char_traits@D@std@@@std@@V12@@std@@YAXAEBV?$_String_view_iterator@U?$char_traits@D@std@@@0@0@Z
        342  155 000021E0 ??$_Adl_verify_range@V?$_Vb_iterator@U?$_Wrap_alloc@V?$allocator@I@std@@@std@@@std@@V12@@std@@YAXAEBV?$_Vb_iterator@U?$_Wrap_alloc@V?$allocator@I@std@@@std@@@0@0@Z
        343  156 000021E0 ??$_Adl_verify_range@V?$_Vector_const_iterator@V?$_Vector_val@U?$_Simple_types@V?$basic_string@DU?$char_traits@D@std@@V?$allocator@D@2@@std@@@std@@@std@@@std@@V12@@std@@YAXAEBV?$_Vector_const_iterator@V?$_Vector_val@U?$_Simple_types@V?$basic_string@DU?$char_traits@D@std@@V?$allocator@D@2@@std@@@std@@@std@@@0@0@Z
        344  157 000021E0 ??$_Adl_verify_range@V?$_Vector_iterator@V?$_Vector_val@U?$_Simple_types@V?$basic_json@Vmap@std@@Vvector@2@V?$basic_string@DU?$char_traits@D@std@@V?$allocator@D@2@@2@_N_J_KNVallocator@2@Uadl_serializer@json_abi_v3_11_2@nlohmann@@V?$vector@EV?$allocator@E@std@@@2@@json_abi_v3_11_2@nlohmann@@@std@@@std@@@std@@V12@@std@@YAXAEBV?$_Vector_iterator@V?$_Vector_val@U?$_Simple_types@V?$basic_json@Vmap@std@@Vvector@2@V?$basic_string@DU?$char_traits@D@std@@V?$allocator@D@2@@2@_N_J_KNVallocator@2@Uadl_serializer@json_abi_v3_11_2@nlohmann@@V?$vector@EV?$allocator@E@std@@@2@@json_abi_v3_11_2@nlohmann@@@std@@@std@@@0@0@Z
        345  158 00002B30 ??$_Alloc_proxy@V?$allocator@U_Container_proxy@std@@@std@@@_Container_base12@std@@QEAAX$$QEAV?$allocator@U_Container_proxy@std@@@1@@Z
        346  159 00002020 ??$_Allocate@$0BA@U_Default_allocate_traits@std@@$0A@@std@@YAPEAX_K@Z
        347  15A 00002080 ??$_Allocate_manually_vector_aligned@U_Default_allocate_traits@std@@@std@@YAPEAX_K@Z
        348  15B 0000A610 ??$_Append_range_unchecked@V?$_List_unchecked_const_iterator@V?$_List_val@U?$_List_simple_types@U?$pair@$$CBV?$basic_string@DU?$char_traits@D@std@@V?$allocator@D@2@@std@@H@std@@@std@@@std@@U_Iterator_base0@2@@std@@V12@@?$_List_node_insert_op2@V?$allocator@U?$_List_node@U?$pair@$$CBV?$basic_string@DU?$char_traits@D@std@@V?$allocator@D@2@@std@@H@std@@PEAX@std@@@std@@@std@@QEAAXV?$_List_unchecked_const_iterator@V?$_List_val@U?$_List_simple_types@U?$pair@$$CBV?$basic_string@DU?$char_traits@D@std@@V?$allocator@D@2@@std@@H@std@@@std@@@std@@U_Iterator_base0@2@@1@V21@@Z
        349  15C 0000A710 ??$_Assign_cast@AEAU?$pair@V?$basic_string@DU?$char_traits@D@std@@V?$allocator@D@2@@std@@H@std@@V?$_List_unchecked_const_iterator@V?$_List_val@U?$_List_simple_types@U?$pair@$$CBV?$basic_string@DU?$char_traits@D@std@@V?$allocator@D@2@@std@@H@std@@@std@@@std@@U_Iterator_base0@2@@2@@?$list@U?$pair@$$CBV?$basic_string@DU?$char_traits@D@std@@V?$allocator@D@2@@std@@H@std@@V?$allocator@U?$pair@$$CBV?$basic_string@DU?$char_traits@D@std@@V?$allocator@D@2@@std@@H@std@@@2@@std@@AEAAXV?$_List_unchecked_const_iterator@V?$_List_val@U?$_List_simple_types@U?$pair@$$CBV?$basic_string@DU?$char_traits@D@std@@V?$allocator@D@2@@std@@H@std@@@std@@@std@@U_Iterator_base0@2@@1@V21@@Z
        350  15D 0000A9E0 ??$_Assign_counted_range@PEAV?$basic_string@DU?$char_traits@D@std@@V?$allocator@D@2@@std@@@?$vector@V?$basic_string@DU?$char_traits@D@std@@V?$allocator@D@2@@std@@V?$allocator@V?$basic_string@DU?$char_traits@D@std@@V?$allocator@D@2@@std@@@2@@std@@AEAAXPEAV?$basic_string@DU?$char_traits@D@std@@V?$allocator@D@2@@1@_K@Z
        351  15E 0000AC00 ??$_Attach_at_end@U?$_List_simple_types@U?$pair@$$CBV?$basic_string@DU?$char_traits@D@std@@V?$allocator@D@2@@std@@H@std@@@std@@@?$_List_node_insert_op2@V?$allocator@U?$_List_node@U?$pair@$$CBV?$basic_string@DU?$char_traits@D@std@@V?$allocator@D@2@@std@@H@std@@PEAX@std@@@std@@@std@@QEAAXAEAV?$_List_val@U?$_List_simple_types@U?$pair@$$CBV?$basic_string@DU?$char_traits@D@std@@V?$allocator@D@2@@std@@H@std@@@std@@@1@@Z
        352  15F 0000AC40 ??$_Attach_before@U?$_List_simple_types@U?$pair@$$CBV?$basic_string@DU?$char_traits@D@std@@V?$allocator@D@2@@std@@H@std@@@std@@@?$_List_node_insert_op2@V?$allocator@U?$_List_node@U?$pair@$$CBV?$basic_string@DU?$char_traits@D@std@@V?$allocator@D@2@@std@@H@std@@PEAX@std@@@std@@@std@@QEAAPEAU?$_List_node@U?$pair@$$CBV?$basic_string@DU?$char_traits@D@std@@V?$allocator@D@2@@std@@H@std@@PEAX@1@AEAV?$_List_val@U?$_List_simple_types@U?$pair@$$CBV?$basic_string@DU?$char_traits@D@std@@V?$allocator@D@2@@std@@H@std@@@std@@@1@QEAU21@@Z
        353  160 0000AC80 ??$_Bit_cast@D$$BY00E$0A@@std@@YADAEAY00$$CBE@Z
        354  161 0000AC90 ??$_Bit_cast@H$$BY03E$0A@@std@@YAHAEAY03$$CBE@Z
        355  162 0000AC90 ??$_Bit_cast@I$$BY03E$0A@@std@@YAIAEAY03$$CBE@Z
        356  163 0000AC90 ??$_Bit_cast@IM$0A@@std@@YAIAEBM@Z
        357  164 0000ACA0 ??$_Bit_cast@M$$BY03E$0A@@std@@YAMAEAY03$$CBE@Z
        358  165 0000ACA0 ??$_Bit_cast@MI$0A@@std@@YAMAEBI@Z
        359  166 0000ACB0 ??$_Bit_cast@N$$BY07E$0A@@std@@YANAEAY07$$CBE@Z
        360  167 0000ACB0 ??$_Bit_cast@N_K$0A@@std@@YANAEB_K@Z
        361  168 0000ACB0 ??$_Bit_cast@O$$BY07E$0A@@std@@YAOAEAY07$$CBE@Z
        362  169 00002E00 ??$_Bit_cast@PEBD$$BY07E$0A@@std@@YAPEBDAEAY07$$CBE@Z
        363  16A 00002E00 ??$_Bit_cast@PEBX$$BY07E$0A@@std@@YAPEBXAEAY07$$CBE@Z
        364  16B 0000ACC0 ??$_Bit_cast@V?$basic_string_view@DU?$char_traits@D@std@@@std@@$$BY0BA@E$0A@@std@@YA?AV?$basic_string_view@DU?$char_traits@D@std@@@0@AEAY0BA@$$CBE@Z
        365  16C 0000ACC0 ??$_Bit_cast@Vhandle@?$basic_format_arg@V?$basic_format_context@V?$back_insert_iterator@V?$_Fmt_buffer@D@std@@@std@@D@std@@@std@@$$BY0BA@E$0A@@std@@YA?AVhandle@?$basic_format_arg@V?$basic_format_context@V?$back_insert_iterator@V?$_Fmt_buffer@D@std@@@std@@D@std@@@0@AEAY0BA@$$CBE@Z
        366  16D 00002E00 ??$_Bit_cast@_J$$BY07E$0A@@std@@YA_JAEAY07$$CBE@Z
        367  16E 00002E00 ??$_Bit_cast@_K$$BY07E$0A@@std@@YA_KAEAY07$$CBE@Z
        368  16F 00002E00 ??$_Bit_cast@_KN$0A@@std@@YA_KAEBN@Z
        369  170 0000AC80 ??$_Bit_cast@_N$$BY00E$0A@@std@@YA_NAEAY00$$CBE@Z
        370  171 0000ACD0 ??$_Buyheadnode@V?$allocator@U?$_Tree_node@U?$pair@$$CBV?$basic_string@DU?$char_traits@D@std@@V?$allocator@D@2@@std@@V?$basic_json@Vmap@std@@Vvector@2@V?$basic_string@DU?$char_traits@D@std@@V?$allocator@D@2@@2@_N_J_KNVallocator@2@Uadl_serializer@json_abi_v3_11_2@nlohmann@@V?$vector@EV?$allocator@E@std@@@2@@json_abi_v3_11_2@nlohmann@@@std@@PEAX@std@@@std@@@?$_Tree_node@U?$pair@$$CBV?$basic_string@DU?$char_traits@D@std@@V?$allocator@D@2@@std@@V?$basic_json@Vmap@std@@Vvector@2@V?$basic_string@DU?$char_traits@D@std@@V?$allocator@D@2@@2@_N_J_KNVallocator@2@Uadl_serializer@json_abi_v3_11_2@nlohmann@@V?$vector@EV?$allocator@E@std@@@2@@json_abi_v3_11_2@nlohmann@@@std@@PEAX@std@@SAPEAU01@AEAV?$allocator@U?$_Tree_node@U?$pair@$$CBV?$basic_string@DU?$char_traits@D@std@@V?$allocator@D@2@@std@@V?$basic_json@Vmap@std@@Vvector@2@V?$basic_string@DU?$char_traits@D@std@@V?$allocator@D@2@@2@_N_J_KNVallocator@2@Uadl_serializer@json_abi_v3_11_2@nlohmann@@V?$vector@EV?$allocator@E@std@@@2@@json_abi_v3_11_2@nlohmann@@@std@@PEAX@std@@@1@@Z
        371  172 0000AD00 ??$_Buynode@AEAU?$pair@$$CBV?$basic_string@DU?$char_traits@D@std@@V?$allocator@D@2@@std@@V?$basic_json@Vmap@std@@Vvector@2@V?$basic_string@DU?$char_traits@D@std@@V?$allocator@D@2@@2@_N_J_KNVallocator@2@Uadl_serializer@json_abi_v3_11_2@nlohmann@@V?$vector@EV?$allocator@E@std@@@2@@json_abi_v3_11_2@nlohmann@@@std@@@?$_Tree@V?$_Tmap_traits@V?$basic_string@DU?$char_traits@D@std@@V?$allocator@D@2@@std@@V?$basic_json@Vmap@std@@Vvector@2@V?$basic_string@DU?$char_traits@D@std@@V?$allocator@D@2@@2@_N_J_KNVallocator@2@Uadl_serializer@json_abi_v3_11_2@nlohmann@@V?$vector@EV?$allocator@E@std@@@2@@json_abi_v3_11_2@nlohmann@@U?$less@X@2@V?$allocator@U?$pair@$$CBV?$basic_string@DU?$char_traits@D@std@@V?$allocator@D@2@@std@@V?$basic_json@Vmap@std@@Vvector@2@V?$basic_string@DU?$char_traits@D@std@@V?$allocator@D@2@@2@_N_J_KNVallocator@2@Uadl_serializer@json_abi_v3_11_2@nlohmann@@V?$vector@EV?$allocator@E@std@@@2@@json_abi_v3_11_2@nlohmann@@@std@@@2@$0A@@std@@@std@@IEAAPEAU?$_Tree_node@U?$pair@$$CBV?$basic_string@DU?$char_traits@D@std@@V?$allocator@D@2@@std@@V?$basic_json@Vmap@std@@Vvector@2@V?$basic_string@DU?$char_traits@D@std@@V?$allocator@D@2@@2@_N_J_KNVallocator@2@Uadl_serializer@json_abi_v3_11_2@nlohmann@@V?$vector@EV?$allocator@E@std@@@2@@json_abi_v3_11_2@nlohmann@@@std@@PEAX@1@AEAU?$pair@$$CBV?$basic_string@DU?$char_traits@D@std@@V?$allocator@D@2@@std@@V?$basic_json@Vmap@std@@Vvector@2@V?$basic_string@DU?$char_traits@D@std@@V?$allocator@D@2@@2@_N_J_KNVallocator@2@Uadl_serializer@json_abi_v3_11_2@nlohmann@@V?$vector@EV?$allocator@E@std@@@2@@json_abi_v3_11_2@nlohmann@@@1@@Z
        372  173 0000AD90 ??$_Buynode@V?$allocator@U?$_Tree_node@U?$pair@$$CBV?$basic_string@DU?$char_traits@D@std@@V?$allocator@D@2@@std@@V?$basic_json@Vmap@std@@Vvector@2@V?$basic_string@DU?$char_traits@D@std@@V?$allocator@D@2@@2@_N_J_KNVallocator@2@Uadl_serializer@json_abi_v3_11_2@nlohmann@@V?$vector@EV?$allocator@E@std@@@2@@json_abi_v3_11_2@nlohmann@@@std@@PEAX@std@@@std@@AEAU?$pair@$$CBV?$basic_string@DU?$char_traits@D@std@@V?$allocator@D@2@@std@@V?$basic_json@Vmap@std@@Vvector@2@V?$basic_string@DU?$char_traits@D@std@@V?$allocator@D@2@@2@_N_J_KNVallocator@2@Uadl_serializer@json_abi_v3_11_2@nlohmann@@V?$vector@EV?$allocator@E@std@@@2@@json_abi_v3_11_2@nlohmann@@@2@@?$_Tree_node@U?$pair@$$CBV?$basic_string@DU?$char_traits@D@std@@V?$allocator@D@2@@std@@V?$basic_json@Vmap@std@@Vvector@2@V?$basic_string@DU?$char_traits@D@std@@V?$allocator@D@2@@2@_N_J_KNVallocator@2@Uadl_serializer@json_abi_v3_11_2@nlohmann@@V?$vector@EV?$allocator@E@std@@@2@@json_abi_v3_11_2@nlohmann@@@std@@PEAX@std@@SAPEAU01@AEAV?$allocator@U?$_Tree_node@U?$pair@$$CBV?$basic_string@DU?$char_traits@D@std@@V?$allocator@D@2@@std@@V?$basic_json@Vmap@std@@Vvector@2@V?$basic_string@DU?$char_traits@D@std@@V?$allocator@D@2@@2@_N_J_KNVallocator@2@Uadl_serializer@json_abi_v3_11_2@nlohmann@@V?$vector@EV?$allocator@E@std@@@2@@json_abi_v3_11_2@nlohmann@@@std@@PEAX@std@@@1@PEAU01@AEAU?$pair@$$CBV?$basic_string@DU?$char_traits@D@std@@V?$allocator@D@2@@std@@V?$basic_json@Vmap@std@@Vvector@2@V?$basic_string@DU?$char_traits@D@std@@V?$allocator@D@2@@2@_N_J_KNVallocator@2@Uadl_serializer@json_abi_v3_11_2@nlohmann@@V?$vector@EV?$allocator@E@std@@@2@@json_abi_v3_11_2@nlohmann@@@1@@Z
        373  174 0000AE20 ??$_Call@AEAV<lambda_1>@?1???$add@VMockCondition@pineBT@@@BehaviorSchemaLibrary@pineBT@@QEAAXXZ@AEBV?$basic_string@DU?$char_traits@D@std@@V?$allocator@D@2@@std@@AEAVBehaviorTree@3@@?$_Invoker_ret@PEAVBehavior@pineBT@@@std@@SAPEAVBehavior@pineBT@@AEAV<lambda_1>@?1???$add@VMockCondition@pineBT@@@BehaviorSchemaLibrary@3@QEAAXXZ@AEBV?$basic_string@DU?$char_traits@D@std@@V?$allocator@D@2@@1@AEAVBehaviorTree@3@@Z
        374  175 0000AE70 ??$_Call@AEAV<lambda_1>@?1???$add@VMockTask@pineBT@@@BehaviorSchemaLibrary@pineBT@@QEAAXXZ@AEBV?$basic_string@DU?$char_traits@D@std@@V?$allocator@D@2@@std@@AEAVBehaviorTree@3@@?$_Invoker_ret@PEAVBehavior@pineBT@@@std@@SAPEAVBehavior@pineBT@@AEAV<lambda_1>@?1???$add@VMockTask@pineBT@@@BehaviorSchemaLibrary@3@QEAAXXZ@AEBV?$basic_string@DU?$char_traits@D@std@@V?$allocator@D@2@@1@AEAVBehaviorTree@3@@Z
        375  176 0000AEB0 ??$_Call@AEAV<lambda_1>@?1???$add@VParallel@pineBT@@@BehaviorSchemaLibrary@pineBT@@QEAAXXZ@AEBV?$basic_string@DU?$char_traits@D@std@@V?$allocator@D@2@@std@@AEAVBehaviorTree@3@@?$_Invoker_ret@PEAVBehavior@pineBT@@@std@@SAPEAVBehavior@pineBT@@AEAV<lambda_1>@?1???$add@VParallel@pineBT@@@BehaviorSchemaLibrary@3@QEAAXXZ@AEBV?$basic_string@DU?$char_traits@D@std@@V?$allocator@D@2@@1@AEAVBehaviorTree@3@@Z
        376  177 0000AF00 ??$_Call@AEAV<lambda_1>@?1???$add@VSelector@pineBT@@@BehaviorSchemaLibrary@pineBT@@QEAAXXZ@AEBV?$basic_string@DU?$char_traits@D@std@@V?$allocator@D@2@@std@@AEAVBehaviorTree@3@@?$_Invoker_ret@PEAVBehavior@pineBT@@@std@@SAPEAVBehavior@pineBT@@AEAV<lambda_1>@?1???$add@VSelector@pineBT@@@BehaviorSchemaLibrary@3@QEAAXXZ@AEBV?$basic_string@DU?$char_traits@D@std@@V?$allocator@D@2@@1@AEAVBehaviorTree@3@@Z
        377  178 0000AF50 ??$_Call@AEAV<lambda_1>@?1???$add@VSequence@pineBT@@@BehaviorSchemaLibrary@pineBT@@QEAAXXZ@AEBV?$basic_string@DU?$char_traits@D@std@@V?$allocator@D@2@@std@@AEAVBehaviorTree@3@@?$_Invoker_ret@PEAVBehavior@pineBT@@@std@@SAPEAVBehavior@pineBT@@AEAV<lambda_1>@?1???$add@VSequence@pineBT@@@BehaviorSchemaLibrary@3@QEAAXXZ@AEBV?$basic_string@DU?$char_traits@D@std@@V?$allocator@D@2@@1@AEAVBehaviorTree@3@@Z
        378  179 0000AFA0 ??$_Checked_x86_x64_countl_zero@_K@std@@YAH_K@Z
        379  17A 000020C0 ??$_Construct@$00PEAD@?$basic_string@DU?$char_traits@D@std@@V?$allocator@D@2@@std@@AEAAXQEAD_K@Z
        380  17B 000020C0 ??$_Construct@$00PEBD@?$basic_string@DU?$char_traits@D@std@@V?$allocator@D@2@@std@@AEAAXQEBD_K@Z
        381  17C 00005B20 ??$_Construct@$01PEBD@?$basic_string@DU?$char_traits@D@std@@V?$allocator@D@2@@std@@AEAAXQEBD_K@Z
        382  17D 0000AFD0 ??$_Construct@$0A@D@?$basic_string@DU?$char_traits@D@std@@V?$allocator@D@2@@std@@AEAAXD_K@Z
        383  17E 0002C380 ??$_Construct@PEBQEAVBehavior@pineBT@@PEBQEAV12@@?$deque@PEAVBehavior@pineBT@@V?$allocator@PEAVBehavior@pineBT@@@std@@@std@@AEAAXPEBQEAVBehavior@pineBT@@QEBQEAV23@@Z
        384  17F 00002B60 ??$_Construct@V?$_Deque_unchecked_const_iterator@V?$_Deque_val@U?$_Deque_simple_types@PEAVBehavior@pineBT@@@std@@@std@@@std@@V12@@?$deque@PEAVBehavior@pineBT@@V?$allocator@PEAVBehavior@pineBT@@@std@@@std@@AEAAXV?$_Deque_unchecked_const_iterator@V?$_Deque_val@U?$_Deque_simple_types@PEAVBehavior@pineBT@@@std@@@std@@@1@V21@@Z
        385  180 00002920 ??$_Construct_in_place@DD@std@@YAXAEAD$$QEAD@Z
        386  181 00002180 ??$_Construct_in_place@PEADAEAPEAD@std@@YAXAEAPEAD0@Z
        387  182 00002180 ??$_Construct_in_place@PEADAEBQEAD@std@@YAXAEAPEADAEBQEAD@Z
        388  183 00002180 ??$_Construct_in_place@PEAPEAVBehavior@pineBT@@AEAPEAPEAV12@@std@@YAXAEAPEAPEAVBehavior@pineBT@@0@Z
        389  184 00002180 ??$_Construct_in_place@PEAU?$_List_node@U?$pair@$$CBHV?$unique_ptr@VBehaviorTree@pineBT@@U?$default_delete@VBehaviorTree@pineBT@@@std@@@std@@@std@@PEAX@std@@AEAPEAU12@@std@@YAXAEAPEAU?$_List_node@U?$pair@$$CBHV?$unique_ptr@VBehaviorTree@pineBT@@U?$default_delete@VBehaviorTree@pineBT@@@std@@@std@@@std@@PEAX@0@0@Z
        390  185 00002180 ??$_Construct_in_place@PEAU?$_List_node@U?$pair@$$CBHV?$unique_ptr@VBehaviorTree@pineBT@@U?$default_delete@VBehaviorTree@pineBT@@@std@@@std@@@std@@PEAX@std@@AEBQEAU12@@std@@YAXAEAPEAU?$_List_node@U?$pair@$$CBHV?$unique_ptr@VBehaviorTree@pineBT@@U?$default_delete@VBehaviorTree@pineBT@@@std@@@std@@@std@@PEAX@0@AEBQEAU10@@Z
        391  186 00002180 ??$_Construct_in_place@PEAU?$_List_node@U?$pair@$$CBIW4Result@Behavior@pineBT@@@std@@PEAX@std@@AEAPEAU12@@std@@YAXAEAPEAU?$_List_node@U?$pair@$$CBIW4Result@Behavior@pineBT@@@std@@PEAX@0@0@Z
        392  187 00002180 ??$_Construct_in_place@PEAU?$_List_node@U?$pair@$$CBIW4Result@Behavior@pineBT@@@std@@PEAX@std@@AEBQEAU12@@std@@YAXAEAPEAU?$_List_node@U?$pair@$$CBIW4Result@Behavior@pineBT@@@std@@PEAX@0@AEBQEAU10@@Z
        393  188 00002180 ??$_Construct_in_place@PEAU?$_List_node@U?$pair@$$CBV?$basic_string@DU?$char_traits@D@std@@V?$allocator@D@2@@std@@H@std@@PEAX@std@@AEAPEAU12@@std@@YAXAEAPEAU?$_List_node@U?$pair@$$CBV?$basic_string@DU?$char_traits@D@std@@V?$allocator@D@2@@std@@H@std@@PEAX@0@0@Z
        394  189 00002180 ??$_Construct_in_place@PEAU?$_List_node@U?$pair@$$CBV?$basic_string@DU?$char_traits@D@std@@V?$allocator@D@2@@std@@H@std@@PEAX@std@@AEBQEAU12@@std@@YAXAEAPEAU?$_List_node@U?$pair@$$CBV?$basic_string@DU?$char_traits@D@std@@V?$allocator@D@2@@std@@H@std@@PEAX@0@AEBQEAU10@@Z
        395  18A 00002180 ??$_Construct_in_place@PEAU?$_List_node@U?$pair@$$CBV?$basic_string@DU?$char_traits@D@std@@V?$allocator@D@2@@std@@H@std@@PEAX@std@@PEAU12@@std@@YAXAEAPEAU?$_List_node@U?$pair@$$CBV?$basic_string@DU?$char_traits@D@std@@V?$allocator@D@2@@std@@H@std@@PEAX@0@$$QEAPEAU10@@Z
        396  18B 00002180 ??$_Construct_in_place@PEAU?$_List_node@U?$pair@$$CBV?$basic_string@DU?$char_traits@D@std@@V?$allocator@D@2@@std@@UBehaviorSchema@pineBT@@@std@@PEAX@std@@AEAPEAU12@@std@@YAXAEAPEAU?$_List_node@U?$pair@$$CBV?$basic_string@DU?$char_traits@D@std@@V?$allocator@D@2@@std@@UBehaviorSchema@pineBT@@@std@@PEAX@0@0@Z
        397  18C 00002180 ??$_Construct_in_place@PEAU?$_List_node@U?$pair@$$CBV?$basic_string@DU?$char_traits@D@std@@V?$allocator@D@2@@std@@UBehaviorSchema@pineBT@@@std@@PEAX@std@@AEBQEAU12@@std@@YAXAEAPEAU?$_List_node@U?$pair@$$CBV?$basic_string@DU?$char_traits@D@std@@V?$allocator@D@2@@std@@UBehaviorSchema@pineBT@@@std@@PEAX@0@AEBQEAU10@@Z
        398  18D 00002180 ??$_Construct_in_place@PEAU?$_List_node@U?$pair@$$CBV?$basic_string@DU?$char_traits@D@std@@V?$allocator@D@2@@std@@V?$function@$$A6APEAVBehavior@pineBT@@AEBV?$basic_string@DU?$char_traits@D@std@@V?$allocator@D@2@@std@@AEAVBehaviorTree@2@@Z@2@@std@@PEAX@std@@AEAPEAU12@@std@@YAXAEAPEAU?$_List_node@U?$pair@$$CBV?$basic_string@DU?$char_traits@D@std@@V?$allocator@D@2@@std@@V?$function@$$A6APEAVBehavior@pineBT@@AEBV?$basic_string@DU?$char_traits@D@std@@V?$allocator@D@2@@std@@AEAVBehaviorTree@2@@Z@2@@std@@PEAX@0@0@Z
        399  18E 00002180 ??$_Construct_in_place@PEAU?$_List_node@U?$pair@$$CBV?$basic_string@DU?$char_traits@D@std@@V?$allocator@D@2@@std@@V?$function@$$A6APEAVBehavior@pineBT@@AEBV?$basic_string@DU?$char_traits@D@std@@V?$allocator@D@2@@std@@AEAVBehaviorTree@2@@Z@2@@std@@PEAX@std@@AEBQEAU12@@std@@YAXAEAPEAU?$_List_node@U?$pair@$$CBV?$basic_string@DU?$char_traits@D@std@@V?$allocator@D@2@@std@@V?$function@$$A6APEAVBehavior@pineBT@@AEBV?$basic_string@DU?$char_traits@D@std@@V?$allocator@D@2@@std@@AEAVBehaviorTree@2@@Z@2@@std@@PEAX@0@AEBQEAU10@@Z
        400  18F 00002180 ??$_Construct_in_place@PEAU?$_Tree_node@U?$pair@$$CBV?$basic_string@DU?$char_traits@D@std@@V?$allocator@D@2@@std@@V?$basic_json@Vmap@std@@Vvector@2@V?$basic_string@DU?$char_traits@D@std@@V?$allocator@D@2@@2@_N_J_KNVallocator@2@Uadl_serializer@json_abi_v3_11_2@nlohmann@@V?$vector@EV?$allocator@E@std@@@2@@json_abi_v3_11_2@nlohmann@@@std@@PEAX@std@@AEAPEAU12@@std@@YAXAEAPEAU?$_Tree_node@U?$pair@$$CBV?$basic_string@DU?$char_traits@D@std@@V?$allocator@D@2@@std@@V?$basic_json@Vmap@std@@Vvector@2@V?$basic_string@DU?$char_traits@D@std@@V?$allocator@D@2@@2@_N_J_KNVallocator@2@Uadl_serializer@json_abi_v3_11_2@nlohmann@@V?$vector@EV?$allocator@E@std@@@2@@json_abi_v3_11_2@nlohmann@@@std@@PEAX@0@0@Z
        401  190 00002180 ??$_Construct_in_place@PEAU?$_Tree_node@U?$pair@$$CBV?$basic_string@DU?$char_traits@D@std@@V?$allocator@D@2@@std@@V?$basic_json@Vmap@std@@Vvector@2@V?$basic_string@DU?$char_traits@D@std@@V?$allocator@D@2@@2@_N_J_KNVallocator@2@Uadl_serializer@json_abi_v3_11_2@nlohmann@@V?$vector@EV?$allocator@E@std@@@2@@json_abi_v3_11_2@nlohmann@@@std@@PEAX@std@@AEBQEAU12@@std@@YAXAEAPEAU?$_Tree_node@U?$pair@$$CBV?$basic_string@DU?$char_traits@D@std@@V?$allocator@D@2@@std@@V?$basic_json@Vmap@std@@Vvector@2@V?$basic_string@DU?$char_traits@D@std@@V?$allocator@D@2@@2@_N_J_KNVallocator@2@Uadl_serializer@json_abi_v3_11_2@nlohmann@@V?$vector@EV?$allocator@E@std@@@2@@json_abi_v3_11_2@nlohmann@@@std@@PEAX@0@AEBQEAU10@@Z
        402  191 00002180 ??$_Construct_in_place@PEAV?$basic_json@Vmap@std@@Vvector@2@V?$basic_string@DU?$char_traits@D@std@@V?$allocator@D@2@@2@_N_J_KNVallocator@2@Uadl_serializer@json_abi_v3_11_2@nlohmann@@V?$vector@EV?$allocator@E@std@@@2@@json_abi_v3_11_2@nlohmann@@AEBQEAV123@@std@@YAXAEAPEAV?$basic_json@Vmap@std@@Vvector@2@V?$basic_string@DU?$char_traits@D@std@@V?$allocator@D@2@@2@_N_J_KNVallocator@2@Uadl_serializer@json_abi_v3_11_2@nlohmann@@V?$vector@EV?$allocator@E@std@@@2@@json_abi_v3_11_2@nlohmann@@AEBQEAV123@@Z
        403  192 00002180 ??$_Construct_in_place@PEAV?$basic_json@Vmap@std@@Vvector@2@V?$basic_string@DU?$char_traits@D@std@@V?$allocator@D@2@@2@_N_J_KNVallocator@2@Uadl_serializer@json_abi_v3_11_2@nlohmann@@V?$vector@EV?$allocator@E@std@@@2@@json_abi_v3_11_2@nlohmann@@PEAV123@@std@@YAXAEAPEAV?$basic_json@Vmap@std@@Vvector@2@V?$basic_string@DU?$char_traits@D@std@@V?$allocator@D@2@@2@_N_J_KNVallocator@2@Uadl_serializer@json_abi_v3_11_2@nlohmann@@V?$vector@EV?$allocator@E@std@@@2@@json_abi_v3_11_2@nlohmann@@$$QEAPEAV123@@Z
        404  193 00002180 ??$_Construct_in_place@PEAV?$unique_ptr@UBehaviorTreeBuilderContext@pineBT@@U?$default_delete@UBehaviorTreeBuilderContext@pineBT@@@std@@@std@@AEAPEAV12@@std@@YAXAEAPEAV?$unique_ptr@UBehaviorTreeBuilderContext@pineBT@@U?$default_delete@UBehaviorTreeBuilderContext@pineBT@@@std@@@0@0@Z
        405  194 00002180 ??$_Construct_in_place@PEAVBehavior@pineBT@@AEBQEAV12@@std@@YAXAEAPEAVBehavior@pineBT@@AEBQEAV12@@Z
        406  195 00002C80 ??$_Construct_in_place@U_Container_proxy@std@@PEAU_Container_base12@2@@std@@YAXAEAU_Container_proxy@0@$$QEAPEAU_Container_base12@0@@Z
        407  196 00002180 ??$_Construct_in_place@V?$_List_unchecked_iterator@V?$_List_val@U?$_List_simple_types@U?$pair@$$CBHV?$unique_ptr@VBehaviorTree@pineBT@@U?$default_delete@VBehaviorTree@pineBT@@@std@@@std@@@std@@@std@@@std@@@std@@AEBV12@@std@@YAXAEAV?$_List_unchecked_iterator@V?$_List_val@U?$_List_simple_types@U?$pair@$$CBHV?$unique_ptr@VBehaviorTree@pineBT@@U?$default_delete@VBehaviorTree@pineBT@@@std@@@std@@@std@@@std@@@std@@@0@AEBV10@@Z
        408  197 00002180 ??$_Construct_in_place@V?$_List_unchecked_iterator@V?$_List_val@U?$_List_simple_types@U?$pair@$$CBIW4Result@Behavior@pineBT@@@std@@@std@@@std@@@std@@AEBV12@@std@@YAXAEAV?$_List_unchecked_iterator@V?$_List_val@U?$_List_simple_types@U?$pair@$$CBIW4Result@Behavior@pineBT@@@std@@@std@@@std@@@0@AEBV10@@Z
        409  198 00002180 ??$_Construct_in_place@V?$_List_unchecked_iterator@V?$_List_val@U?$_List_simple_types@U?$pair@$$CBV?$basic_string@DU?$char_traits@D@std@@V?$allocator@D@2@@std@@H@std@@@std@@@std@@@std@@AEBV12@@std@@YAXAEAV?$_List_unchecked_iterator@V?$_List_val@U?$_List_simple_types@U?$pair@$$CBV?$basic_string@DU?$char_traits@D@std@@V?$allocator@D@2@@std@@H@std@@@std@@@std@@@0@AEBV10@@Z
        410  199 00002180 ??$_Construct_in_place@V?$_List_unchecked_iterator@V?$_List_val@U?$_List_simple_types@U?$pair@$$CBV?$basic_string@DU?$char_traits@D@std@@V?$allocator@D@2@@std@@UBehaviorSchema@pineBT@@@std@@@std@@@std@@@std@@AEBV12@@std@@YAXAEAV?$_List_unchecked_iterator@V?$_List_val@U?$_List_simple_types@U?$pair@$$CBV?$basic_string@DU?$char_traits@D@std@@V?$allocator@D@2@@std@@UBehaviorSchema@pineBT@@@std@@@std@@@std@@@0@AEBV10@@Z
        411  19A 00002180 ??$_Construct_in_place@V?$_List_unchecked_iterator@V?$_List_val@U?$_List_simple_types@U?$pair@$$CBV?$basic_string@DU?$char_traits@D@std@@V?$allocator@D@2@@std@@V?$function@$$A6APEAVBehavior@pineBT@@AEBV?$basic_string@DU?$char_traits@D@std@@V?$allocator@D@2@@std@@AEAVBehaviorTree@2@@Z@2@@std@@@std@@@std@@@std@@AEBV12@@std@@YAXAEAV?$_List_unchecked_iterator@V?$_List_val@U?$_List_simple_types@U?$pair@$$CBV?$basic_string@DU?$char_traits@D@std@@V?$allocator@D@2@@std@@V?$function@$$A6APEAVBehavior@pineBT@@AEBV?$basic_string@DU?$char_traits@D@std@@V?$allocator@D@2@@std@@AEAVBehaviorTree@2@@Z@2@@std@@@std@@@std@@@0@AEBV10@@Z
        412  19B 0002E1A0 ??$_Construct_in_place@V?$basic_json@Vmap@std@@Vvector@2@V?$basic_string@DU?$char_traits@D@std@@V?$allocator@D@2@@2@_N_J_KNVallocator@2@Uadl_serializer@json_abi_v3_11_2@nlohmann@@V?$vector@EV?$allocator@E@std@@@2@@json_abi_v3_11_2@nlohmann@@$$T@std@@YAXAEAV?$basic_json@Vmap@std@@Vvector@2@V?$basic_string@DU?$char_traits@D@std@@V?$allocator@D@2@@2@_N_J_KNVallocator@2@Uadl_serializer@json_abi_v3_11_2@nlohmann@@V?$vector@EV?$allocator@E@std@@@2@@json_abi_v3_11_2@nlohmann@@$$QEA$$T@Z
        413  19C 0002E1C0 ??$_Construct_in_place@V?$basic_json@Vmap@std@@Vvector@2@V?$basic_string@DU?$char_traits@D@std@@V?$allocator@D@2@@2@_N_J_KNVallocator@2@Uadl_serializer@json_abi_v3_11_2@nlohmann@@V?$vector@EV?$allocator@E@std@@@2@@json_abi_v3_11_2@nlohmann@@AEAN@std@@YAXAEAV?$basic_json@Vmap@std@@Vvector@2@V?$basic_string@DU?$char_traits@D@std@@V?$allocator@D@2@@2@_N_J_KNVallocator@2@Uadl_serializer@json_abi_v3_11_2@nlohmann@@V?$vector@EV?$allocator@E@std@@@2@@json_abi_v3_11_2@nlohmann@@AEAN@Z
        414  19D 0002E210 ??$_Construct_in_place@V?$basic_json@Vmap@std@@Vvector@2@V?$basic_string@DU?$char_traits@D@std@@V?$allocator@D@2@@2@_N_J_KNVallocator@2@Uadl_serializer@json_abi_v3_11_2@nlohmann@@V?$vector@EV?$allocator@E@std@@@2@@json_abi_v3_11_2@nlohmann@@AEA_J@std@@YAXAEAV?$basic_json@Vmap@std@@Vvector@2@V?$basic_string@DU?$char_traits@D@std@@V?$allocator@D@2@@2@_N_J_KNVallocator@2@Uadl_serializer@json_abi_v3_11_2@nlohmann@@V?$vector@EV?$allocator@E@std@@@2@@json_abi_v3_11_2@nlohmann@@AEA_J@Z
        415  19E 0002E260 ??$_Construct_in_place@V?$basic_json@Vmap@std@@Vvector@2@V?$basic_string@DU?$char_traits@D@std@@V?$allocator@D@2@@2@_N_J_KNVallocator@2@Uadl_serializer@json_abi_v3_11_2@nlohmann@@V?$vector@EV?$allocator@E@std@@@2@@json_abi_v3_11_2@nlohmann@@AEA_K@std@@YAXAEAV?$basic_json@Vmap@std@@Vvector@2@V?$basic_string@DU?$char_traits@D@std@@V?$allocator@D@2@@2@_N_J_KNVallocator@2@Uadl_serializer@json_abi_v3_11_2@nlohmann@@V?$vector@EV?$allocator@E@std@@@2@@json_abi_v3_11_2@nlohmann@@AEA_K@Z
        416  19F 0002E2B0 ??$_Construct_in_place@V?$basic_json@Vmap@std@@Vvector@2@V?$basic_string@DU?$char_traits@D@std@@V?$allocator@D@2@@2@_N_J_KNVallocator@2@Uadl_serializer@json_abi_v3_11_2@nlohmann@@V?$vector@EV?$allocator@E@std@@@2@@json_abi_v3_11_2@nlohmann@@AEA_N@std@@YAXAEAV?$basic_json@Vmap@std@@Vvector@2@V?$basic_string@DU?$char_traits@D@std@@V?$allocator@D@2@@2@_N_J_KNVallocator@2@Uadl_serializer@json_abi_v3_11_2@nlohmann@@V?$vector@EV?$allocator@E@std@@@2@@json_abi_v3_11_2@nlohmann@@AEA_N@Z
        417  1A0 0000B090 ??$_Construct_in_place@V?$basic_json@Vmap@std@@Vvector@2@V?$basic_string@DU?$char_traits@D@std@@V?$allocator@D@2@@2@_N_J_KNVallocator@2@Uadl_serializer@json_abi_v3_11_2@nlohmann@@V?$vector@EV?$allocator@E@std@@@2@@json_abi_v3_11_2@nlohmann@@V123@@std@@YAXAEAV?$basic_json@Vmap@std@@Vvector@2@V?$basic_string@DU?$char_traits@D@std@@V?$allocator@D@2@@2@_N_J_KNVallocator@2@Uadl_serializer@json_abi_v3_11_2@nlohmann@@V?$vector@EV?$allocator@E@std@@@2@@json_abi_v3_11_2@nlohmann@@$$QEAV123@@Z
        418  1A1 0000B0B0 ??$_Construct_in_place@V?$output_string_adapter@DV?$basic_string@DU?$char_traits@D@std@@V?$allocator@D@2@@std@@@detail@json_abi_v3_11_2@nlohmann@@AEAV?$basic_string@DU?$char_traits@D@std@@V?$allocator@D@2@@std@@@std@@YAXAEAV?$output_string_adapter@DV?$basic_string@DU?$char_traits@D@std@@V?$allocator@D@2@@std@@@detail@json_abi_v3_11_2@nlohmann@@AEAV?$basic_string@DU?$char_traits@D@std@@V?$allocator@D@2@@0@@Z
        419  1A2 0000B0C0 ??$_Construct_n@AEBQEAEAEBQEAE@?$vector@EV?$allocator@E@std@@@std@@AEAAX_KAEBQEAE1@Z
        420  1A3 0002BB40 ??$_Construct_n@AEBQEAPEAVBehavior@pineBT@@AEBQEAPEAV12@@?$vector@PEAVBehavior@pineBT@@V?$allocator@PEAVBehavior@pineBT@@@std@@@std@@AEAAX_KAEBQEAPEAVBehavior@pineBT@@1@Z
        421  1A4 0000B190 ??$_Construct_n@AEBQEAV?$basic_json@Vmap@std@@Vvector@2@V?$basic_string@DU?$char_traits@D@std@@V?$allocator@D@2@@2@_N_J_KNVallocator@2@Uadl_serializer@json_abi_v3_11_2@nlohmann@@V?$vector@EV?$allocator@E@std@@@2@@json_abi_v3_11_2@nlohmann@@AEBQEAV123@@?$vector@V?$basic_json@Vmap@std@@Vvector@2@V?$basic_string@DU?$char_traits@D@std@@V?$allocator@D@2@@2@_N_J_KNVallocator@2@Uadl_serializer@json_abi_v3_11_2@nlohmann@@V?$vector@EV?$allocator@E@std@@@2@@json_abi_v3_11_2@nlohmann@@V?$allocator@V?$basic_json@Vmap@std@@Vvector@2@V?$basic_string@DU?$char_traits@D@std@@V?$allocator@D@2@@2@_N_J_KNVallocator@2@Uadl_serializer@json_abi_v3_11_2@nlohmann@@V?$vector@EV?$allocator@E@std@@@2@@json_abi_v3_11_2@nlohmann@@@std@@@std@@AEAAX_KAEBQEAV?$basic_json@Vmap@std@@Vvector@2@V?$basic_string@DU?$char_traits@D@std@@V?$allocator@D@2@@2@_N_J_KNVallocator@2@Uadl_serializer@json_abi_v3_11_2@nlohmann@@V?$vector@EV?$allocator@E@std@@@2@@json_abi_v3_11_2@nlohmann@@1@Z
        422  1A5 00005BD0 ??$_Construct_n@AEBQEAV?$basic_string@DU?$char_traits@D@std@@V?$allocator@D@2@@std@@AEBQEAV12@@?$vector@V?$basic_string@DU?$char_traits@D@std@@V?$allocator@D@2@@std@@V?$allocator@V?$basic_string@DU?$char_traits@D@std@@V?$allocator@D@2@@std@@@2@@std@@AEAAX_KAEBQEAV?$basic_string@DU?$char_traits@D@std@@V?$allocator@D@2@@1@1@Z
        423  1A6 00002190 ??$_Convert_size@_K_K@std@@YA_K_K@Z
        424  1A7 0000B240 ??$_Copy@$0A@@?$_Tree@V?$_Tmap_traits@V?$basic_string@DU?$char_traits@D@std@@V?$allocator@D@2@@std@@V?$basic_json@Vmap@std@@Vvector@2@V?$basic_string@DU?$char_traits@D@std@@V?$allocator@D@2@@2@_N_J_KNVallocator@2@Uadl_serializer@json_abi_v3_11_2@nlohmann@@V?$vector@EV?$allocator@E@std@@@2@@json_abi_v3_11_2@nlohmann@@U?$less@X@2@V?$allocator@U?$pair@$$CBV?$basic_string@DU?$char_traits@D@std@@V?$allocator@D@2@@std@@V?$basic_json@Vmap@std@@Vvector@2@V?$basic_string@DU?$char_traits@D@std@@V?$allocator@D@2@@2@_N_J_KNVallocator@2@Uadl_serializer@json_abi_v3_11_2@nlohmann@@V?$vector@EV?$allocator@E@std@@@2@@json_abi_v3_11_2@nlohmann@@@std@@@2@$0A@@std@@@std@@IEAAXAEBV01@@Z
        425  1A8 00005320 ??$_Copy_backward_memmove@PEAPEAVBehavior@pineBT@@PEAPEAV12@@std@@YAPEAPEAVBehavior@pineBT@@PEAPEAV12@00@Z
        426  1A9 0002E300 ??$_Copy_backward_unchecked@V?$_Vb_iterator@U?$_Wrap_alloc@V?$allocator@I@std@@@std@@@std@@V12@@std@@YA?AV?$_Vb_iterator@U?$_Wrap_alloc@V?$allocator@I@std@@@std@@@0@V10@00@Z
        427  1AA 0000B2F0 ??$_Copy_construct_from@U?$output_adapter_protocol@D@detail@json_abi_v3_11_2@nlohmann@@@?$_Ptr_base@U?$output_adapter_protocol@D@detail@json_abi_v3_11_2@nlohmann@@@std@@IEAAXAEBV?$shared_ptr@U?$output_adapter_protocol@D@detail@json_abi_v3_11_2@nlohmann@@@1@@Z
        428  1AB 00002C90 ??$_Copy_memmove@PEADPEAD@std@@YAPEADPEAD00@Z
        429  1AC 00002C90 ??$_Copy_memmove@PEAEPEAE@std@@YAPEAEPEAE00@Z
        430  1AD 00002C90 ??$_Copy_memmove@PEAIPEAI@std@@YAPEAIPEAI00@Z
        431  1AE 00002C90 ??$_Copy_memmove@PEAPEAPEAVBehavior@pineBT@@PEAPEAPEAV12@@std@@YAPEAPEAPEAVBehavior@pineBT@@PEAPEAPEAV12@00@Z
        432  1AF 00002C90 ??$_Copy_memmove@PEAPEAV?$basic_json@Vmap@std@@Vvector@2@V?$basic_string@DU?$char_traits@D@std@@V?$allocator@D@2@@2@_N_J_KNVallocator@2@Uadl_serializer@json_abi_v3_11_2@nlohmann@@V?$vector@EV?$allocator@E@std@@@2@@json_abi_v3_11_2@nlohmann@@PEAPEAV123@@std@@YAPEAPEAV?$basic_json@Vmap@std@@Vvector@2@V?$basic_string@DU?$char_traits@D@std@@V?$allocator@D@2@@2@_N_J_KNVallocator@2@Uadl_serializer@json_abi_v3_11_2@nlohmann@@V?$vector@EV?$allocator@E@std@@@2@@json_abi_v3_11_2@nlohmann@@PEAPEAV123@00@Z
        433  1B0 00002C90 ??$_Copy_memmove@PEAPEAV?$unique_ptr@UBehaviorTreeBuilderContext@pineBT@@U?$default_delete@UBehaviorTreeBuilderContext@pineBT@@@std@@@std@@PEAPEAV12@@std@@YAPEAPEAV?$unique_ptr@UBehaviorTreeBuilderContext@pineBT@@U?$default_delete@UBehaviorTreeBuilderContext@pineBT@@@std@@@0@PEAPEAV10@00@Z
        434  1B1 00002C90 ??$_Copy_memmove@PEAPEAVBehavior@pineBT@@PEAPEAV12@@std@@YAPEAPEAVBehavior@pineBT@@PEAPEAV12@00@Z
        435  1B2 00002C90 ??$_Copy_memmove@PEBDPEAD@std@@YAPEADPEBD0PEAD@Z
        436  1B3 0000B310 ??$_Copy_memmove_n@PEADPEAD@std@@YAPEADPEAD_K0@Z
        437  1B4 0000B310 ??$_Copy_n_unchecked4@PEAD_JPEAD@std@@YAPEADPEAD_J0@Z
        438  1B5 0000B340 ??$_Copy_n_unchecked4@PEAV?$basic_string@DU?$char_traits@D@std@@V?$allocator@D@2@@std@@_KPEAV12@@std@@YAPEAV?$basic_string@DU?$char_traits@D@std@@V?$allocator@D@2@@0@PEAV10@_K0@Z
        439  1B6 0000B3A0 ??$_Copy_nodes@$0A@@?$_Tree@V?$_Tmap_traits@V?$basic_string@DU?$char_traits@D@std@@V?$allocator@D@2@@std@@V?$basic_json@Vmap@std@@Vvector@2@V?$basic_string@DU?$char_traits@D@std@@V?$allocator@D@2@@2@_N_J_KNVallocator@2@Uadl_serializer@json_abi_v3_11_2@nlohmann@@V?$vector@EV?$allocator@E@std@@@2@@json_abi_v3_11_2@nlohmann@@U?$less@X@2@V?$allocator@U?$pair@$$CBV?$basic_string@DU?$char_traits@D@std@@V?$allocator@D@2@@std@@V?$basic_json@Vmap@std@@Vvector@2@V?$basic_string@DU?$char_traits@D@std@@V?$allocator@D@2@@2@_N_J_KNVallocator@2@Uadl_serializer@json_abi_v3_11_2@nlohmann@@V?$vector@EV?$allocator@E@std@@@2@@json_abi_v3_11_2@nlohmann@@@std@@@2@$0A@@std@@@std@@IEAAPEAU?$_Tree_node@U?$pair@$$CBV?$basic_string@DU?$char_traits@D@std@@V?$allocator@D@2@@std@@V?$basic_json@Vmap@std@@Vvector@2@V?$basic_string@DU?$char_traits@D@std@@V?$allocator@D@2@@2@_N_J_KNVallocator@2@Uadl_serializer@json_abi_v3_11_2@nlohmann@@V?$vector@EV?$allocator@E@std@@@2@@json_abi_v3_11_2@nlohmann@@@std@@PEAX@1@PEAU21@0@Z
        440  1B7 0000AD00 ??$_Copy_or_move@$0A@U?$pair@$$CBV?$basic_string@DU?$char_traits@D@std@@V?$allocator@D@2@@std@@V?$basic_json@Vmap@std@@Vvector@2@V?$basic_string@DU?$char_traits@D@std@@V?$allocator@D@2@@2@_N_J_KNVallocator@2@Uadl_serializer@json_abi_v3_11_2@nlohmann@@V?$vector@EV?$allocator@E@std@@@2@@json_abi_v3_11_2@nlohmann@@@std@@@?$_Tree@V?$_Tmap_traits@V?$basic_string@DU?$char_traits@D@std@@V?$allocator@D@2@@std@@V?$basic_json@Vmap@std@@Vvector@2@V?$basic_string@DU?$char_traits@D@std@@V?$allocator@D@2@@2@_N_J_KNVallocator@2@Uadl_serializer@json_abi_v3_11_2@nlohmann@@V?$vector@EV?$allocator@E@std@@@2@@json_abi_v3_11_2@nlohmann@@U?$less@X@2@V?$allocator@U?$pair@$$CBV?$basic_string@DU?$char_traits@D@std@@V?$allocator@D@2@@std@@V?$basic_json@Vmap@std@@Vvector@2@V?$basic_string@DU?$char_traits@D@std@@V?$allocator@D@2@@2@_N_J_KNVallocator@2@Uadl_serializer@json_abi_v3_11_2@nlohmann@@V?$vector@EV?$allocator@E@std@@@2@@json_abi_v3_11_2@nlohmann@@@std@@@2@$0A@@std@@@std@@IEAAPEAU?$_Tree_node@U?$pair@$$CBV?$basic_string@DU?$char_traits@D@std@@V?$allocator@D@2@@std@@V?$basic_json@Vmap@std@@Vvector@2@V?$basic_string@DU?$char_traits@D@std@@V?$allocator@D@2@@2@_N_J_KNVallocator@2@Uadl_serializer@json_abi_v3_11_2@nlohmann@@V?$vector@EV?$allocator@E@std@@@2@@json_abi_v3_11_2@nlohmann@@@std@@PEAX@1@AEAU?$pair@$$CBV?$basic_string@DU?$char_traits@D@std@@V?$allocator@D@2@@std@@V?$basic_json@Vmap@std@@Vvector@2@V?$basic_string@DU?$char_traits@D@std@@V?$allocator@D@2@@2@_N_J_KNVallocator@2@Uadl_serializer@json_abi_v3_11_2@nlohmann@@V?$vector@EV?$allocator@E@std@@@2@@json_abi_v3_11_2@nlohmann@@@1@@Z
        441  1B8 00002C90 ??$_Copy_unchecked@PEBDPEBDPEAD@std@@YAPEADPEBD0PEAD@Z
        442  1B9 0000B480 ??$_Copy_unchecked@PEBDPEBDV?$back_insert_iterator@V?$_Fmt_buffer@D@std@@@std@@@ranges@std@@YA?AU?$in_out_result@PEBDV?$back_insert_iterator@V?$_Fmt_buffer@D@std@@@std@@@01@PEBD0V?$back_insert_iterator@V?$_Fmt_buffer@D@std@@@1@@Z
        443  1BA 0002E3E0 ??$_Copy_unchecked@V?$_Vb_iterator@U?$_Wrap_alloc@V?$allocator@I@std@@@std@@@std@@V12@V12@@std@@YA?AV?$_Vb_iterator@U?$_Wrap_alloc@V?$allocator@I@std@@@std@@@0@V10@00@Z
        444  1BB 0000B510 ??$_Could_compare_equal_to_value_type@PEADD@std@@YA_NAEBD@Z
        445  1BC 0000B510 ??$_Could_compare_equal_to_value_type@PEBDD@std@@YA_NAEBD@Z
        446  1BD 0000B520 ??$_Countl_zero_bsr@_K@std@@YAH_K@Z
        447  1BE 0000B540 ??$_Countl_zero_fallback@_K@std@@YAH_K@Z
        448  1BF 0000B580 ??$_Countl_zero_lzcnt@_K@std@@YAH_K@Z
        449  1C0 000021A0 ??$_Deallocate@$07$0A@@std@@YAXPEAX_K@Z
        450  1C1 000021A0 ??$_Deallocate@$0BA@$0A@@std@@YAXPEAX_K@Z
        451  1C2 00002CC0 ??$_Deallocate_plain@V?$allocator@U_Container_proxy@std@@@std@@@std@@YAXAEAV?$allocator@U_Container_proxy@std@@@0@QEAU_Container_proxy@0@@Z
        452  1C3 00002CC0 ??$_Delete_plain_internal@V?$allocator@U_Container_proxy@std@@@std@@@std@@YAXAEAV?$allocator@U_Container_proxy@std@@@0@QEAU_Container_proxy@0@@Z
        453  1C4 000021E0 ??$_Destroy_in_place@PEAD@std@@YAXAEAPEAD@Z
        454  1C5 000021E0 ??$_Destroy_in_place@PEAPEAVBehavior@pineBT@@@std@@YAXAEAPEAPEAVBehavior@pineBT@@@Z
        455  1C6 000021E0 ??$_Destroy_in_place@PEAU?$_List_node@U?$pair@$$CBHV?$unique_ptr@VBehaviorTree@pineBT@@U?$default_delete@VBehaviorTree@pineBT@@@std@@@std@@@std@@PEAX@std@@@std@@YAXAEAPEAU?$_List_node@U?$pair@$$CBHV?$unique_ptr@VBehaviorTree@pineBT@@U?$default_delete@VBehaviorTree@pineBT@@@std@@@std@@@std@@PEAX@0@@Z
        456  1C7 000021E0 ??$_Destroy_in_place@PEAU?$_List_node@U?$pair@$$CBIW4Result@Behavior@pineBT@@@std@@PEAX@std@@@std@@YAXAEAPEAU?$_List_node@U?$pair@$$CBIW4Result@Behavior@pineBT@@@std@@PEAX@0@@Z
        457  1C8 000021E0 ??$_Destroy_in_place@PEAU?$_List_node@U?$pair@$$CBV?$basic_string@DU?$char_traits@D@std@@V?$allocator@D@2@@std@@H@std@@PEAX@std@@@std@@YAXAEAPEAU?$_List_node@U?$pair@$$CBV?$basic_string@DU?$char_traits@D@std@@V?$allocator@D@2@@std@@H@std@@PEAX@0@@Z
        458  1C9 000021E0 ??$_Destroy_in_place@PEAU?$_List_node@U?$pair@$$CBV?$basic_string@DU?$char_traits@D@std@@V?$allocator@D@2@@std@@UBehaviorSchema@pineBT@@@std@@PEAX@std@@@std@@YAXAEAPEAU?$_List_node@U?$pair@$$CBV?$basic_string@DU?$char_traits@D@std@@V?$allocator@D@2@@std@@UBehaviorSchema@pineBT@@@std@@PEAX@0@@Z
        459  1CA 000021E0 ??$_Destroy_in_place@PEAU?$_List_node@U?$pair@$$CBV?$basic_string@DU?$char_traits@D@std@@V?$allocator@D@2@@std@@V?$function@$$A6APEAVBehavior@pineBT@@AEBV?$basic_string@DU?$char_traits@D@std@@V?$allocator@D@2@@std@@AEAVBehaviorTree@2@@Z@2@@std@@PEAX@std@@@std@@YAXAEAPEAU?$_List_node@U?$pair@$$CBV?$basic_string@DU?$char_traits@D@std@@V?$allocator@D@2@@std@@V?$function@$$A6APEAVBehavior@pineBT@@AEBV?$basic_string@DU?$char_traits@D@std@@V?$allocator@D@2@@std@@AEAVBehaviorTree@2@@Z@2@@std@@PEAX@0@@Z
        460  1CB 000021E0 ??$_Destroy_in_place@PEAU?$_Tree_node@U?$pair@$$CBV?$basic_string@DU?$char_traits@D@std@@V?$allocator@D@2@@std@@V?$basic_json@Vmap@std@@Vvector@2@V?$basic_string@DU?$char_traits@D@std@@V?$allocator@D@2@@2@_N_J_KNVallocator@2@Uadl_serializer@json_abi_v3_11_2@nlohmann@@V?$vector@EV?$allocator@E@std@@@2@@json_abi_v3_11_2@nlohmann@@@std@@PEAX@std@@@std@@YAXAEAPEAU?$_Tree_node@U?$pair@$$CBV?$basic_string@DU?$char_traits@D@std@@V?$allocator@D@2@@std@@V?$basic_json@Vmap@std@@Vvector@2@V?$basic_string@DU?$char_traits@D@std@@V?$allocator@D@2@@2@_N_J_KNVallocator@2@Uadl_serializer@json_abi_v3_11_2@nlohmann@@V?$vector@EV?$allocator@E@std@@@2@@json_abi_v3_11_2@nlohmann@@@std@@PEAX@0@@Z
        461  1CC 000021E0 ??$_Destroy_in_place@PEAV?$unique_ptr@UBehaviorTreeBuilderContext@pineBT@@U?$default_delete@UBehaviorTreeBuilderContext@pineBT@@@std@@@std@@@std@@YAXAEAPEAV?$unique_ptr@UBehaviorTreeBuilderContext@pineBT@@U?$default_delete@UBehaviorTreeBuilderContext@pineBT@@@std@@@0@@Z
        462  1CD 0000B590 ??$_Destroy_in_place@V?$output_string_adapter@DV?$basic_string@DU?$char_traits@D@std@@V?$allocator@D@2@@std@@@detail@json_abi_v3_11_2@nlohmann@@@std@@YAXAEAV?$output_string_adapter@DV?$basic_string@DU?$char_traits@D@std@@V?$allocator@D@2@@std@@@detail@json_abi_v3_11_2@nlohmann@@@Z
        463  1CE 000021E0 ??$_Destroy_range@PEAPEAPEAVBehavior@pineBT@@PEAPEAPEAV12@@std@@YAXPEAPEAPEAVBehavior@pineBT@@QEAPEAPEAV12@@Z
        464  1CF 000021E0 ??$_Destroy_range@PEAPEAV?$unique_ptr@UBehaviorTreeBuilderContext@pineBT@@U?$default_delete@UBehaviorTreeBuilderContext@pineBT@@@std@@@std@@PEAPEAV12@@std@@YAXPEAPEAV?$unique_ptr@UBehaviorTreeBuilderContext@pineBT@@U?$default_delete@UBehaviorTreeBuilderContext@pineBT@@@std@@@0@QEAPEAV10@@Z
        465  1D0 000021E0 ??$_Destroy_range@PEAV?$_List_unchecked_iterator@V?$_List_val@U?$_List_simple_types@U?$pair@$$CBHV?$unique_ptr@VBehaviorTree@pineBT@@U?$default_delete@VBehaviorTree@pineBT@@@std@@@std@@@std@@@std@@@std@@@std@@PEAV12@@std@@YAXPEAV?$_List_unchecked_iterator@V?$_List_val@U?$_List_simple_types@U?$pair@$$CBHV?$unique_ptr@VBehaviorTree@pineBT@@U?$default_delete@VBehaviorTree@pineBT@@@std@@@std@@@std@@@std@@@std@@@0@QEAV10@@Z
        466  1D1 000021E0 ??$_Destroy_range@PEAV?$_List_unchecked_iterator@V?$_List_val@U?$_List_simple_types@U?$pair@$$CBIW4Result@Behavior@pineBT@@@std@@@std@@@std@@@std@@PEAV12@@std@@YAXPEAV?$_List_unchecked_iterator@V?$_List_val@U?$_List_simple_types@U?$pair@$$CBIW4Result@Behavior@pineBT@@@std@@@std@@@std@@@0@QEAV10@@Z
        467  1D2 000021E0 ??$_Destroy_range@PEAV?$_List_unchecked_iterator@V?$_List_val@U?$_List_simple_types@U?$pair@$$CBV?$basic_string@DU?$char_traits@D@std@@V?$allocator@D@2@@std@@H@std@@@std@@@std@@@std@@PEAV12@@std@@YAXPEAV?$_List_unchecked_iterator@V?$_List_val@U?$_List_simple_types@U?$pair@$$CBV?$basic_string@DU?$char_traits@D@std@@V?$allocator@D@2@@std@@H@std@@@std@@@std@@@0@QEAV10@@Z
        468  1D3 000021E0 ??$_Destroy_range@PEAV?$_List_unchecked_iterator@V?$_List_val@U?$_List_simple_types@U?$pair@$$CBV?$basic_string@DU?$char_traits@D@std@@V?$allocator@D@2@@std@@UBehaviorSchema@pineBT@@@std@@@std@@@std@@@std@@PEAV12@@std@@YAXPEAV?$_List_unchecked_iterator@V?$_List_val@U?$_List_simple_types@U?$pair@$$CBV?$basic_string@DU?$char_traits@D@std@@V?$allocator@D@2@@std@@UBehaviorSchema@pineBT@@@std@@@std@@@std@@@0@QEAV10@@Z
        469  1D4 000021E0 ??$_Destroy_range@PEAV?$_List_unchecked_iterator@V?$_List_val@U?$_List_simple_types@U?$pair@$$CBV?$basic_string@DU?$char_traits@D@std@@V?$allocator@D@2@@std@@V?$function@$$A6APEAVBehavior@pineBT@@AEBV?$basic_string@DU?$char_traits@D@std@@V?$allocator@D@2@@std@@AEAVBehaviorTree@2@@Z@2@@std@@@std@@@std@@@std@@PEAV12@@std@@YAXPEAV?$_List_unchecked_iterator@V?$_List_val@U?$_List_simple_types@U?$pair@$$CBV?$basic_string@DU?$char_traits@D@std@@V?$allocator@D@2@@std@@V?$function@$$A6APEAVBehavior@pineBT@@AEBV?$basic_string@DU?$char_traits@D@std@@V?$allocator@D@2@@std@@AEAVBehaviorTree@2@@Z@2@@std@@@std@@@std@@@0@QEAV10@@Z
        470  1D5 000021E0 ??$_Destroy_range@V?$allocator@D@std@@@std@@YAXPEADQEADAEAV?$allocator@D@0@@Z
        471  1D6 000021E0 ??$_Destroy_range@V?$allocator@E@std@@@std@@YAXPEAEQEAEAEAV?$allocator@E@0@@Z
        472  1D7 000021E0 ??$_Destroy_range@V?$allocator@I@std@@@std@@YAXPEAIQEAIAEAV?$allocator@I@0@@Z
        473  1D8 000021E0 ??$_Destroy_range@V?$allocator@PEAV?$basic_json@Vmap@std@@Vvector@2@V?$basic_string@DU?$char_traits@D@std@@V?$allocator@D@2@@2@_N_J_KNVallocator@2@Uadl_serializer@json_abi_v3_11_2@nlohmann@@V?$vector@EV?$allocator@E@std@@@2@@json_abi_v3_11_2@nlohmann@@@std@@@std@@YAXPEAPEAV?$basic_json@Vmap@std@@Vvector@2@V?$basic_string@DU?$char_traits@D@std@@V?$allocator@D@2@@2@_N_J_KNVallocator@2@Uadl_serializer@json_abi_v3_11_2@nlohmann@@V?$vector@EV?$allocator@E@std@@@2@@json_abi_v3_11_2@nlohmann@@QEAPEAV123@AEAV?$allocator@PEAV?$basic_json@Vmap@std@@Vvector@2@V?$basic_string@DU?$char_traits@D@std@@V?$allocator@D@2@@2@_N_J_KNVallocator@2@Uadl_serializer@json_abi_v3_11_2@nlohmann@@V?$vector@EV?$allocator@E@std@@@2@@json_abi_v3_11_2@nlohmann@@@0@@Z
        474  1D9 000021E0 ??$_Destroy_range@V?$allocator@PEAVBehavior@pineBT@@@std@@@std@@YAXPEAPEAVBehavior@pineBT@@QEAPEAV12@AEAV?$allocator@PEAVBehavior@pineBT@@@0@@Z
        475  1DA 0000B5A0 ??$_Destroy_range@V?$allocator@V?$basic_json@Vmap@std@@Vvector@2@V?$basic_string@DU?$char_traits@D@std@@V?$allocator@D@2@@2@_N_J_KNVallocator@2@Uadl_serializer@json_abi_v3_11_2@nlohmann@@V?$vector@EV?$allocator@E@std@@@2@@json_abi_v3_11_2@nlohmann@@@std@@@std@@YAXPEAV?$basic_json@Vmap@std@@Vvector@2@V?$basic_string@DU?$char_traits@D@std@@V?$allocator@D@2@@2@_N_J_KNVallocator@2@Uadl_serializer@json_abi_v3_11_2@nlohmann@@V?$vector@EV?$allocator@E@std@@@2@@json_abi_v3_11_2@nlohmann@@QEAV123@AEAV?$allocator@V?$basic_json@Vmap@std@@Vvector@2@V?$basic_string@DU?$char_traits@D@std@@V?$allocator@D@2@@2@_N_J_KNVallocator@2@Uadl_serializer@json_abi_v3_11_2@nlohmann@@V?$vector@EV?$allocator@E@std@@@2@@json_abi_v3_11_2@nlohmann@@@0@@Z
        476  1DB 00003E90 ??$_Destroy_range@V?$allocator@V?$basic_string@DU?$char_traits@D@std@@V?$allocator@D@2@@std@@@std@@@std@@YAXPEAV?$basic_string@DU?$char_traits@D@std@@V?$allocator@D@2@@0@QEAV10@AEAV?$allocator@V?$basic_string@DU?$char_traits@D@std@@V?$allocator@D@2@@std@@@0@@Z
        477  1DC 0000B5F0 ??$_Emplace@V?$basic_string@DU?$char_traits@D@std@@V?$allocator@D@2@@std@@$$T@?$_Tree@V?$_Tmap_traits@V?$basic_string@DU?$char_traits@D@std@@V?$allocator@D@2@@std@@V?$basic_json@Vmap@std@@Vvector@2@V?$basic_string@DU?$char_traits@D@std@@V?$allocator@D@2@@2@_N_J_KNVallocator@2@Uadl_serializer@json_abi_v3_11_2@nlohmann@@V?$vector@EV?$allocator@E@std@@@2@@json_abi_v3_11_2@nlohmann@@U?$less@X@2@V?$allocator@U?$pair@$$CBV?$basic_string@DU?$char_traits@D@std@@V?$allocator@D@2@@std@@V?$basic_json@Vmap@std@@Vvector@2@V?$basic_string@DU?$char_traits@D@std@@V?$allocator@D@2@@2@_N_J_KNVallocator@2@Uadl_serializer@json_abi_v3_11_2@nlohmann@@V?$vector@EV?$allocator@E@std@@@2@@json_abi_v3_11_2@nlohmann@@@std@@@2@$0A@@std@@@std@@IEAA?AU?$pair@PEAU?$_Tree_node@U?$pair@$$CBV?$basic_string@DU?$char_traits@D@std@@V?$allocator@D@2@@std@@V?$basic_json@Vmap@std@@Vvector@2@V?$basic_string@DU?$char_traits@D@std@@V?$allocator@D@2@@2@_N_J_KNVallocator@2@Uadl_serializer@json_abi_v3_11_2@nlohmann@@V?$vector@EV?$allocator@E@std@@@2@@json_abi_v3_11_2@nlohmann@@@std@@PEAX@std@@_N@1@$$QEAV?$basic_string@DU?$char_traits@D@std@@V?$allocator@D@2@@1@$$QEA$$T@Z
        478  1DD 0003F9E0 ??$_Emplace_back@$$V@?$_Uninitialized_backout_al@V?$allocator@V?$basic_json@Vmap@std@@Vvector@2@V?$basic_string@DU?$char_traits@D@std@@V?$allocator@D@2@@2@_N_J_KNVallocator@2@Uadl_serializer@json_abi_v3_11_2@nlohmann@@V?$vector@EV?$allocator@E@std@@@2@@json_abi_v3_11_2@nlohmann@@@std@@@std@@QEAAXXZ
        479  1DE 0000B720 ??$_Emplace_back@AEAE@?$_Uninitialized_backout_al@V?$allocator@E@std@@@std@@QEAAXAEAE@Z
        480  1DF 00002CD0 ??$_Emplace_back@AEAPEAPEAVBehavior@pineBT@@@?$_Uninitialized_backout@PEAPEAPEAVBehavior@pineBT@@@std@@QEAAXAEAPEAPEAVBehavior@pineBT@@@Z
        481  1E0 00002CD0 ??$_Emplace_back@AEAPEAV?$unique_ptr@UBehaviorTreeBuilderContext@pineBT@@U?$default_delete@UBehaviorTreeBuilderContext@pineBT@@@std@@@std@@@?$_Uninitialized_backout@PEAPEAV?$unique_ptr@UBehaviorTreeBuilderContext@pineBT@@U?$default_delete@UBehaviorTreeBuilderContext@pineBT@@@std@@@std@@@std@@QEAAXAEAPEAV?$unique_ptr@UBehaviorTreeBuilderContext@pineBT@@U?$default_delete@UBehaviorTreeBuilderContext@pineBT@@@std@@@1@@Z
        482  1E1 00002CD0 ??$_Emplace_back@AEAPEAVBehavior@pineBT@@@?$_Uninitialized_backout_al@V?$allocator@PEAVBehavior@pineBT@@@std@@@std@@QEAAXAEAPEAVBehavior@pineBT@@@Z
        483  1E2 0000B730 ??$_Emplace_back@AEAV?$basic_json@Vmap@std@@Vvector@2@V?$basic_string@DU?$char_traits@D@std@@V?$allocator@D@2@@2@_N_J_KNVallocator@2@Uadl_serializer@json_abi_v3_11_2@nlohmann@@V?$vector@EV?$allocator@E@std@@@2@@json_abi_v3_11_2@nlohmann@@@?$_Uninitialized_backout_al@V?$allocator@V?$basic_json@Vmap@std@@Vvector@2@V?$basic_string@DU?$char_traits@D@std@@V?$allocator@D@2@@2@_N_J_KNVallocator@2@Uadl_serializer@json_abi_v3_11_2@nlohmann@@V?$vector@EV?$allocator@E@std@@@2@@json_abi_v3_11_2@nlohmann@@@std@@@std@@QEAAXAEAV?$basic_json@Vmap@std@@Vvector@2@V?$basic_string@DU?$char_traits@D@std@@V?$allocator@D@2@@2@_N_J_KNVallocator@2@Uadl_serializer@json_abi_v3_11_2@nlohmann@@V?$vector@EV?$allocator@E@std@@@2@@json_abi_v3_11_2@nlohmann@@@Z
        484  1E3 00005C90 ??$_Emplace_back@AEAV?$basic_string@DU?$char_traits@D@std@@V?$allocator@D@2@@std@@@?$_Uninitialized_backout_al@V?$allocator@V?$basic_string@DU?$char_traits@D@std@@V?$allocator@D@2@@std@@@std@@@std@@QEAAXAEAV?$basic_string@DU?$char_traits@D@std@@V?$allocator@D@2@@1@@Z
        485  1E4 0002E4B0 ??$_Emplace_back@AEBI@?$_Uninitialized_backout_al@V?$allocator@I@std@@@std@@QEAAXAEBI@Z
        486  1E5 00002CD0 ??$_Emplace_back@AEBV?$_List_unchecked_iterator@V?$_List_val@U?$_List_simple_types@U?$pair@$$CBHV?$unique_ptr@VBehaviorTree@pineBT@@U?$default_delete@VBehaviorTree@pineBT@@@std@@@std@@@std@@@std@@@std@@@std@@@?$_Uninitialized_backout@PEAV?$_List_unchecked_iterator@V?$_List_val@U?$_List_simple_types@U?$pair@$$CBHV?$unique_ptr@VBehaviorTree@pineBT@@U?$default_delete@VBehaviorTree@pineBT@@@std@@@std@@@std@@@std@@@std@@@std@@@std@@QEAAXAEBV?$_List_unchecked_iterator@V?$_List_val@U?$_List_simple_types@U?$pair@$$CBHV?$unique_ptr@VBehaviorTree@pineBT@@U?$default_delete@VBehaviorTree@pineBT@@@std@@@std@@@std@@@std@@@std@@@1@@Z
        487  1E6 00002CD0 ??$_Emplace_back@AEBV?$_List_unchecked_iterator@V?$_List_val@U?$_List_simple_types@U?$pair@$$CBIW4Result@Behavior@pineBT@@@std@@@std@@@std@@@std@@@?$_Uninitialized_backout@PEAV?$_List_unchecked_iterator@V?$_List_val@U?$_List_simple_types@U?$pair@$$CBIW4Result@Behavior@pineBT@@@std@@@std@@@std@@@std@@@std@@QEAAXAEBV?$_List_unchecked_iterator@V?$_List_val@U?$_List_simple_types@U?$pair@$$CBIW4Result@Behavior@pineBT@@@std@@@std@@@std@@@1@@Z
        488  1E7 00002CD0 ??$_Emplace_back@AEBV?$_List_unchecked_iterator@V?$_List_val@U?$_List_simple_types@U?$pair@$$CBV?$basic_string@DU?$char_traits@D@std@@V?$allocator@D@2@@std@@H@std@@@std@@@std@@@std@@@?$_Uninitialized_backout@PEAV?$_List_unchecked_iterator@V?$_List_val@U?$_List_simple_types@U?$pair@$$CBV?$basic_string@DU?$char_traits@D@std@@V?$allocator@D@2@@std@@H@std@@@std@@@std@@@std@@@std@@QEAAXAEBV?$_List_unchecked_iterator@V?$_List_val@U?$_List_simple_types@U?$pair@$$CBV?$basic_string@DU?$char_traits@D@std@@V?$allocator@D@2@@std@@H@std@@@std@@@std@@@1@@Z
        489  1E8 00002CD0 ??$_Emplace_back@AEBV?$_List_unchecked_iterator@V?$_List_val@U?$_List_simple_types@U?$pair@$$CBV?$basic_string@DU?$char_traits@D@std@@V?$allocator@D@2@@std@@UBehaviorSchema@pineBT@@@std@@@std@@@std@@@std@@@?$_Uninitialized_backout@PEAV?$_List_unchecked_iterator@V?$_List_val@U?$_List_simple_types@U?$pair@$$CBV?$basic_string@DU?$char_traits@D@std@@V?$allocator@D@2@@std@@UBehaviorSchema@pineBT@@@std@@@std@@@std@@@std@@@std@@QEAAXAEBV?$_List_unchecked_iterator@V?$_List_val@U?$_List_simple_types@U?$pair@$$CBV?$basic_string@DU?$char_traits@D@std@@V?$allocator@D@2@@std@@UBehaviorSchema@pineBT@@@std@@@std@@@std@@@1@@Z
        490  1E9 00002CD0 ??$_Emplace_back@AEBV?$_List_unchecked_iterator@V?$_List_val@U?$_List_simple_types@U?$pair@$$CBV?$basic_string@DU?$char_traits@D@std@@V?$allocator@D@2@@std@@V?$function@$$A6APEAVBehavior@pineBT@@AEBV?$basic_string@DU?$char_traits@D@std@@V?$allocator@D@2@@std@@AEAVBehaviorTree@2@@Z@2@@std@@@std@@@std@@@std@@@?$_Uninitialized_backout@PEAV?$_List_unchecked_iterator@V?$_List_val@U?$_List_simple_types@U?$pair@$$CBV?$basic_string@DU?$char_traits@D@std@@V?$allocator@D@2@@std@@V?$function@$$A6APEAVBehavior@pineBT@@AEBV?$basic_string@DU?$char_traits@D@std@@V?$allocator@D@2@@std@@AEAVBehaviorTree@2@@Z@2@@std@@@std@@@std@@@std@@@std@@QEAAXAEBV?$_List_unchecked_iterator@V?$_List_val@U?$_List_simple_types@U?$pair@$$CBV?$basic_string@DU?$char_traits@D@std@@V?$allocator@D@2@@std@@V?$function@$$A6APEAVBehavior@pineBT@@AEBV?$basic_string@DU?$char_traits@D@std@@V?$allocator@D@2@@std@@AEAVBehaviorTree@2@@Z@2@@std@@@std@@@std@@@1@@Z
        491  1EA 00005C90 ??$_Emplace_back@AEBV?$basic_string@DU?$char_traits@D@std@@V?$allocator@D@2@@std@@@?$_Uninitialized_backout_al@V?$allocator@V?$basic_string@DU?$char_traits@D@std@@V?$allocator@D@2@@std@@@std@@@std@@QEAAXAEBV?$basic_string@DU?$char_traits@D@std@@V?$allocator@D@2@@1@@Z
        492  1EB 0000B720 ??$_Emplace_back@D@?$_Uninitialized_backout_al@V?$allocator@D@std@@@std@@QEAAX$$QEAD@Z
        493  1EC 0002E4B0 ??$_Emplace_back@I@?$_Uninitialized_backout_al@V?$allocator@I@std@@@std@@QEAAX$$QEAI@Z
        494  1ED 00002CD0 ??$_Emplace_back@PEAV?$basic_json@Vmap@std@@Vvector@2@V?$basic_string@DU?$char_traits@D@std@@V?$allocator@D@2@@2@_N_J_KNVallocator@2@Uadl_serializer@json_abi_v3_11_2@nlohmann@@V?$vector@EV?$allocator@E@std@@@2@@json_abi_v3_11_2@nlohmann@@@?$_Uninitialized_backout_al@V?$allocator@PEAV?$basic_json@Vmap@std@@Vvector@2@V?$basic_string@DU?$char_traits@D@std@@V?$allocator@D@2@@2@_N_J_KNVallocator@2@Uadl_serializer@json_abi_v3_11_2@nlohmann@@V?$vector@EV?$allocator@E@std@@@2@@json_abi_v3_11_2@nlohmann@@@std@@@std@@QEAAX$$QEAPEAV?$basic_json@Vmap@std@@Vvector@2@V?$basic_string@DU?$char_traits@D@std@@V?$allocator@D@2@@2@_N_J_KNVallocator@2@Uadl_serializer@json_abi_v3_11_2@nlohmann@@V?$vector@EV?$allocator@E@std@@@2@@json_abi_v3_11_2@nlohmann@@@Z
        495  1EE 00002CD0 ??$_Emplace_back@PEAVBehavior@pineBT@@@?$_Uninitialized_backout_al@V?$allocator@PEAVBehavior@pineBT@@@std@@@std@@QEAAX$$QEAPEAVBehavior@pineBT@@@Z
        496  1EF 0000B750 ??$_Emplace_back@V?$basic_json@Vmap@std@@Vvector@2@V?$basic_string@DU?$char_traits@D@std@@V?$allocator@D@2@@2@_N_J_KNVallocator@2@Uadl_serializer@json_abi_v3_11_2@nlohmann@@V?$vector@EV?$allocator@E@std@@@2@@json_abi_v3_11_2@nlohmann@@@?$_Uninitialized_backout_al@V?$allocator@V?$basic_json@Vmap@std@@Vvector@2@V?$basic_string@DU?$char_traits@D@std@@V?$allocator@D@2@@2@_N_J_KNVallocator@2@Uadl_serializer@json_abi_v3_11_2@nlohmann@@V?$vector@EV?$allocator@E@std@@@2@@json_abi_v3_11_2@nlohmann@@@std@@@std@@QEAAX$$QEAV?$basic_json@Vmap@std@@Vvector@2@V?$basic_string@DU?$char_traits@D@std@@V?$allocator@D@2@@2@_N_J_KNVallocator@2@Uadl_serializer@json_abi_v3_11_2@nlohmann@@V?$vector@EV?$allocator@E@std@@@2@@json_abi_v3_11_2@nlohmann@@@Z
        497  1F0 00005CB0 ??$_Emplace_back@V?$basic_string@DU?$char_traits@D@std@@V?$allocator@D@2@@std@@@?$_Uninitialized_backout_al@V?$allocator@V?$basic_string@DU?$char_traits@D@std@@V?$allocator@D@2@@std@@@std@@@std@@QEAAX$$QEAV?$basic_string@DU?$char_traits@D@std@@V?$allocator@D@2@@1@@Z
        498  1F1 00002CE0 ??$_Emplace_back_internal@AEBQEAVBehavior@pineBT@@@?$deque@PEAVBehavior@pineBT@@V?$allocator@PEAVBehavior@pineBT@@@std@@@std@@AEAAXAEBQEAVBehavior@pineBT@@@Z
        499  1F2 00002CE0 ??$_Emplace_back_internal@PEAVBehavior@pineBT@@@?$deque@PEAVBehavior@pineBT@@V?$allocator@PEAVBehavior@pineBT@@@std@@@std@@AEAAX$$QEAPEAVBehavior@pineBT@@@Z
        500  1F3 0002ADF0 ??$_Emplace_back_internal@V?$unique_ptr@UBehaviorTreeBuilderContext@pineBT@@U?$default_delete@UBehaviorTreeBuilderContext@pineBT@@@std@@@std@@@?$deque@V?$unique_ptr@UBehaviorTreeBuilderContext@pineBT@@U?$default_delete@UBehaviorTreeBuilderContext@pineBT@@@std@@@std@@V?$allocator@V?$unique_ptr@UBehaviorTreeBuilderContext@pineBT@@U?$default_delete@UBehaviorTreeBuilderContext@pineBT@@@std@@@std@@@2@@std@@AEAAX$$QEAV?$unique_ptr@UBehaviorTreeBuilderContext@pineBT@@U?$default_delete@UBehaviorTreeBuilderContext@pineBT@@@std@@@1@@Z
        501  1F4 0002E4C0 ??$_Emplace_back_with_unused_capacity@$$T@?$vector@V?$basic_json@Vmap@std@@Vvector@2@V?$basic_string@DU?$char_traits@D@std@@V?$allocator@D@2@@2@_N_J_KNVallocator@2@Uadl_serializer@json_abi_v3_11_2@nlohmann@@V?$vector@EV?$allocator@E@std@@@2@@json_abi_v3_11_2@nlohmann@@V?$allocator@V?$basic_json@Vmap@std@@Vvector@2@V?$basic_string@DU?$char_traits@D@std@@V?$allocator@D@2@@2@_N_J_KNVallocator@2@Uadl_serializer@json_abi_v3_11_2@nlohmann@@V?$vector@EV?$allocator@E@std@@@2@@json_abi_v3_11_2@nlohmann@@@std@@@std@@AEAAAEAV?$basic_json@Vmap@std@@Vvector@2@V?$basic_string@DU?$char_traits@D@std@@V?$allocator@D@2@@2@_N_J_KNVallocator@2@Uadl_serializer@json_abi_v3_11_2@nlohmann@@V?$vector@EV?$allocator@E@std@@@2@@json_abi_v3_11_2@nlohmann@@$$QEA$$T@Z
        502  1F5 0002E4F0 ??$_Emplace_back_with_unused_capacity@AEAN@?$vector@V?$basic_json@Vmap@std@@Vvector@2@V?$basic_string@DU?$char_traits@D@std@@V?$allocator@D@2@@2@_N_J_KNVallocator@2@Uadl_serializer@json_abi_v3_11_2@nlohmann@@V?$vector@EV?$allocator@E@std@@@2@@json_abi_v3_11_2@nlohmann@@V?$allocator@V?$basic_json@Vmap@std@@Vvector@2@V?$basic_string@DU?$char_traits@D@std@@V?$allocator@D@2@@2@_N_J_KNVallocator@2@Uadl_serializer@json_abi_v3_11_2@nlohmann@@V?$vector@EV?$allocator@E@std@@@2@@json_abi_v3_11_2@nlohmann@@@std@@@std@@AEAAAEAV?$basic_json@Vmap@std@@Vvector@2@V?$basic_string@DU?$char_traits@D@std@@V?$allocator@D@2@@2@_N_J_KNVallocator@2@Uadl_serializer@json_abi_v3_11_2@nlohmann@@V?$vector@EV?$allocator@E@std@@@2@@json_abi_v3_11_2@nlohmann@@AEAN@Z
        503  1F6 0002E560 ??$_Emplace_back_with_unused_capacity@AEAV?$basic_string@DU?$char_traits@D@std@@V?$allocator@D@2@@std@@@?$vector@V?$basic_json@Vmap@std@@Vvector@2@V?$basic_string@DU?$char_traits@D@std@@V?$allocator@D@2@@2@_N_J_KNVallocator@2@Uadl_serializer@json_abi_v3_11_2@nlohmann@@V?$vector@EV?$allocator@E@std@@@2@@json_abi_v3_11_2@nlohmann@@V?$allocator@V?$basic_json@Vmap@std@@Vvector@2@V?$basic_string@DU?$char_traits@D@std@@V?$allocator@D@2@@2@_N_J_KNVallocator@2@Uadl_serializer@json_abi_v3_11_2@nlohmann@@V?$vector@EV?$allocator@E@std@@@2@@json_abi_v3_11_2@nlohmann@@@std@@@std@@AEAAAEAV?$basic_json@Vmap@std@@Vvector@2@V?$basic_string@DU?$char_traits@D@std@@V?$allocator@D@2@@2@_N_J_KNVallocator@2@Uadl_serializer@json_abi_v3_11_2@nlohmann@@V?$vector@EV?$allocator@E@std@@@2@@json_abi_v3_11_2@nlohmann@@AEAV?$basic_string@DU?$char_traits@D@std@@V?$allocator@D@2@@1@@Z
        504  1F7 0002E5F0 ??$_Emplace_back_with_unused_capacity@AEA_J@?$vector@V?$basic_json@Vmap@std@@Vvector@2@V?$basic_string@DU?$char_traits@D@std@@V?$allocator@D@2@@2@_N_J_KNVallocator@2@Uadl_serializer@json_abi_v3_11_2@nlohmann@@V?$vector@EV?$allocator@E@std@@@2@@json_abi_v3_11_2@nlohmann@@V?$allocator@V?$basic_json@Vmap@std@@Vvector@2@V?$basic_string@DU?$char_traits@D@std@@V?$allocator@D@2@@2@_N_J_KNVallocator@2@Uadl_serializer@json_abi_v3_11_2@nlohmann@@V?$vector@EV?$allocator@E@std@@@2@@json_abi_v3_11_2@nlohmann@@@std@@@std@@AEAAAEAV?$basic_json@Vmap@std@@Vvector@2@V?$basic_string@DU?$char_traits@D@std@@V?$allocator@D@2@@2@_N_J_KNVallocator@2@Uadl_serializer@json_abi_v3_11_2@nlohmann@@V?$vector@EV?$allocator@E@std@@@2@@json_abi_v3_11_2@nlohmann@@AEA_J@Z
        505  1F8 0002E650 ??$_Emplace_back_with_unused_capacity@AEA_K@?$vector@V?$basic_json@Vmap@std@@Vvector@2@V?$basic_string@DU?$char_traits@D@std@@V?$allocator@D@2@@2@_N_J_KNVallocator@2@Uadl_serializer@json_abi_v3_11_2@nlohmann@@V?$vector@EV?$allocator@E@std@@@2@@json_abi_v3_11_2@nlohmann@@V?$allocator@V?$basic_json@Vmap@std@@Vvector@2@V?$basic_string@DU?$char_traits@D@std@@V?$allocator@D@2@@2@_N_J_KNVallocator@2@Uadl_serializer@json_abi_v3_11_2@nlohmann@@V?$vector@EV?$allocator@E@std@@@2@@json_abi_v3_11_2@nlohmann@@@std@@@std@@AEAAAEAV?$basic_json@Vmap@std@@Vvector@2@V?$basic_string@DU?$char_traits@D@std@@V?$allocator@D@2@@2@_N_J_KNVallocator@2@Uadl_serializer@json_abi_v3_11_2@nlohmann@@V?$vector@EV?$allocator@E@std@@@2@@json_abi_v3_11_2@nlohmann@@AEA_K@Z
        506  1F9 0002E6B0 ??$_Emplace_back_with_unused_capacity@AEA_N@?$vector@V?$basic_json@Vmap@std@@Vvector@2@V?$basic_string@DU?$char_traits@D@std@@V?$allocator@D@2@@2@_N_J_KNVallocator@2@Uadl_serializer@json_abi_v3_11_2@nlohmann@@V?$vector@EV?$allocator@E@std@@@2@@json_abi_v3_11_2@nlohmann@@V?$allocator@V?$basic_json@Vmap@std@@Vvector@2@V?$basic_string@DU?$char_traits@D@std@@V?$allocator@D@2@@2@_N_J_KNVallocator@2@Uadl_serializer@json_abi_v3_11_2@nlohmann@@V?$vector@EV?$allocator@E@std@@@2@@json_abi_v3_11_2@nlohmann@@@std@@@std@@AEAAAEAV?$basic_json@Vmap@std@@Vvector@2@V?$basic_string@DU?$char_traits@D@std@@V?$allocator@D@2@@2@_N_J_KNVallocator@2@Uadl_serializer@json_abi_v3_11_2@nlohmann@@V?$vector@EV?$allocator@E@std@@@2@@json_abi_v3_11_2@nlohmann@@AEA_N@Z
        507  1FA 00003F20 ??$_Emplace_back_with_unused_capacity@AEBQEAV?$basic_json@Vmap@std@@Vvector@2@V?$basic_string@DU?$char_traits@D@std@@V?$allocator@D@2@@2@_N_J_KNVallocator@2@Uadl_serializer@json_abi_v3_11_2@nlohmann@@V?$vector@EV?$allocator@E@std@@@2@@json_abi_v3_11_2@nlohmann@@@?$vector@PEAV?$basic_json@Vmap@std@@Vvector@2@V?$basic_string@DU?$char_traits@D@std@@V?$allocator@D@2@@2@_N_J_KNVallocator@2@Uadl_serializer@json_abi_v3_11_2@nlohmann@@V?$vector@EV?$allocator@E@std@@@2@@json_abi_v3_11_2@nlohmann@@V?$allocator@PEAV?$basic_json@Vmap@std@@Vvector@2@V?$basic_string@DU?$char_traits@D@std@@V?$allocator@D@2@@2@_N_J_KNVallocator@2@Uadl_serializer@json_abi_v3_11_2@nlohmann@@V?$vector@EV?$allocator@E@std@@@2@@json_abi_v3_11_2@nlohmann@@@std@@@std@@AEAAAEAPEAV?$basic_json@Vmap@std@@Vvector@2@V?$basic_string@DU?$char_traits@D@std@@V?$allocator@D@2@@2@_N_J_KNVallocator@2@Uadl_serializer@json_abi_v3_11_2@nlohmann@@V?$vector@EV?$allocator@E@std@@@2@@json_abi_v3_11_2@nlohmann@@AEBQEAV234@@Z
        508  1FB 00003F20 ??$_Emplace_back_with_unused_capacity@AEBQEAVBehavior@pineBT@@@?$vector@PEAVBehavior@pineBT@@V?$allocator@PEAVBehavior@pineBT@@@std@@@std@@AEAAAEAPEAVBehavior@pineBT@@AEBQEAV23@@Z
        509  1FC 00005CF0 ??$_Emplace_back_with_unused_capacity@AEBV?$basic_string@DU?$char_traits@D@std@@V?$allocator@D@2@@std@@@?$vector@V?$basic_string@DU?$char_traits@D@std@@V?$allocator@D@2@@std@@V?$allocator@V?$basic_string@DU?$char_traits@D@std@@V?$allocator@D@2@@std@@@2@@std@@AEAAAEAV?$basic_string@DU?$char_traits@D@std@@V?$allocator@D@2@@1@AEBV21@@Z
        510  1FD 0002E720 ??$_Emplace_back_with_unused_capacity@D@?$vector@DV?$allocator@D@std@@@std@@AEAAAEAD$$QEAD@Z
        511  1FE 00003F20 ??$_Emplace_back_with_unused_capacity@PEAV?$basic_json@Vmap@std@@Vvector@2@V?$basic_string@DU?$char_traits@D@std@@V?$allocator@D@2@@2@_N_J_KNVallocator@2@Uadl_serializer@json_abi_v3_11_2@nlohmann@@V?$vector@EV?$allocator@E@std@@@2@@json_abi_v3_11_2@nlohmann@@@?$vector@PEAV?$basic_json@Vmap@std@@Vvector@2@V?$basic_string@DU?$char_traits@D@std@@V?$allocator@D@2@@2@_N_J_KNVallocator@2@Uadl_serializer@json_abi_v3_11_2@nlohmann@@V?$vector@EV?$allocator@E@std@@@2@@json_abi_v3_11_2@nlohmann@@V?$allocator@PEAV?$basic_json@Vmap@std@@Vvector@2@V?$basic_string@DU?$char_traits@D@std@@V?$allocator@D@2@@2@_N_J_KNVallocator@2@Uadl_serializer@json_abi_v3_11_2@nlohmann@@V?$vector@EV?$allocator@E@std@@@2@@json_abi_v3_11_2@nlohmann@@@std@@@std@@AEAAAEAPEAV?$basic_json@Vmap@std@@Vvector@2@V?$basic_string@DU?$char_traits@D@std@@V?$allocator@D@2@@2@_N_J_KNVallocator@2@Uadl_serializer@json_abi_v3_11_2@nlohmann@@V?$vector@EV?$allocator@E@std@@@2@@json_abi_v3_11_2@nlohmann@@$$QEAPEAV234@@Z
        512  1FF 0000B780 ??$_Emplace_back_with_unused_capacity@V?$basic_json@Vmap@std@@Vvector@2@V?$basic_string@DU?$char_traits@D@std@@V?$allocator@D@2@@2@_N_J_KNVallocator@2@Uadl_serializer@json_abi_v3_11_2@nlohmann@@V?$vector@EV?$allocator@E@std@@@2@@json_abi_v3_11_2@nlohmann@@@?$vector@V?$basic_json@Vmap@std@@Vvector@2@V?$basic_string@DU?$char_traits@D@std@@V?$allocator@D@2@@2@_N_J_KNVallocator@2@Uadl_serializer@json_abi_v3_11_2@nlohmann@@V?$vector@EV?$allocator@E@std@@@2@@json_abi_v3_11_2@nlohmann@@V?$allocator@V?$basic_json@Vmap@std@@Vvector@2@V?$basic_string@DU?$char_traits@D@std@@V?$allocator@D@2@@2@_N_J_KNVallocator@2@Uadl_serializer@json_abi_v3_11_2@nlohmann@@V?$vector@EV?$allocator@E@std@@@2@@json_abi_v3_11_2@nlohmann@@@std@@@std@@AEAAAEAV?$basic_json@Vmap@std@@Vvector@2@V?$basic_string@DU?$char_traits@D@std@@V?$allocator@D@2@@2@_N_J_KNVallocator@2@Uadl_serializer@json_abi_v3_11_2@nlohmann@@V?$vector@EV?$allocator@E@std@@@2@@json_abi_v3_11_2@nlohmann@@$$QEAV234@@Z
        513  200 0002E740 ??$_Emplace_back_with_unused_capacity@W4value_t@detail@json_abi_v3_11_2@nlohmann@@@?$vector@V?$basic_json@Vmap@std@@Vvector@2@V?$basic_string@DU?$char_traits@D@std@@V?$allocator@D@2@@2@_N_J_KNVallocator@2@Uadl_serializer@json_abi_v3_11_2@nlohmann@@V?$vector@EV?$allocator@E@std@@@2@@json_abi_v3_11_2@nlohmann@@V?$allocator@V?$basic_json@Vmap@std@@Vvector@2@V?$basic_string@DU?$char_traits@D@std@@V?$allocator@D@2@@2@_N_J_KNVallocator@2@Uadl_serializer@json_abi_v3_11_2@nlohmann@@V?$vector@EV?$allocator@E@std@@@2@@json_abi_v3_11_2@nlohmann@@@std@@@std@@AEAAAEAV?$basic_json@Vmap@std@@Vvector@2@V?$basic_string@DU?$char_traits@D@std@@V?$allocator@D@2@@2@_N_J_KNVallocator@2@Uadl_serializer@json_abi_v3_11_2@nlohmann@@V?$vector@EV?$allocator@E@std@@@2@@json_abi_v3_11_2@nlohmann@@$$QEAW4value_t@detail@34@@Z
        514  201 0002E770 ??$_Emplace_one_at_back@$$T@?$vector@V?$basic_json@Vmap@std@@Vvector@2@V?$basic_string@DU?$char_traits@D@std@@V?$allocator@D@2@@2@_N_J_KNVallocator@2@Uadl_serializer@json_abi_v3_11_2@nlohmann@@V?$vector@EV?$allocator@E@std@@@2@@json_abi_v3_11_2@nlohmann@@V?$allocator@V?$basic_json@Vmap@std@@Vvector@2@V?$basic_string@DU?$char_traits@D@std@@V?$allocator@D@2@@2@_N_J_KNVallocator@2@Uadl_serializer@json_abi_v3_11_2@nlohmann@@V?$vector@EV?$allocator@E@std@@@2@@json_abi_v3_11_2@nlohmann@@@std@@@std@@AEAAAEAV?$basic_json@Vmap@std@@Vvector@2@V?$basic_string@DU?$char_traits@D@std@@V?$allocator@D@2@@2@_N_J_KNVallocator@2@Uadl_serializer@json_abi_v3_11_2@nlohmann@@V?$vector@EV?$allocator@E@std@@@2@@json_abi_v3_11_2@nlohmann@@$$QEA$$T@Z
        515  202 0002E7B0 ??$_Emplace_one_at_back@AEAN@?$vector@V?$basic_json@Vmap@std@@Vvector@2@V?$basic_string@DU?$char_traits@D@std@@V?$allocator@D@2@@2@_N_J_KNVallocator@2@Uadl_serializer@json_abi_v3_11_2@nlohmann@@V?$vector@EV?$allocator@E@std@@@2@@json_abi_v3_11_2@nlohmann@@V?$allocator@V?$basic_json@Vmap@std@@Vvector@2@V?$basic_string@DU?$char_traits@D@std@@V?$allocator@D@2@@2@_N_J_KNVallocator@2@Uadl_serializer@json_abi_v3_11_2@nlohmann@@V?$vector@EV?$allocator@E@std@@@2@@json_abi_v3_11_2@nlohmann@@@std@@@std@@AEAAAEAV?$basic_json@Vmap@std@@Vvector@2@V?$basic_string@DU?$char_traits@D@std@@V?$allocator@D@2@@2@_N_J_KNVallocator@2@Uadl_serializer@json_abi_v3_11_2@nlohmann@@V?$vector@EV?$allocator@E@std@@@2@@json_abi_v3_11_2@nlohmann@@AEAN@Z
        516  203 0002E830 ??$_Emplace_one_at_back@AEAV?$basic_string@DU?$char_traits@D@std@@V?$allocator@D@2@@std@@@?$vector@V?$basic_json@Vmap@std@@Vvector@2@V?$basic_string@DU?$char_traits@D@std@@V?$allocator@D@2@@2@_N_J_KNVallocator@2@Uadl_serializer@json_abi_v3_11_2@nlohmann@@V?$vector@EV?$allocator@E@std@@@2@@json_abi_v3_11_2@nlohmann@@V?$allocator@V?$basic_json@Vmap@std@@Vvector@2@V?$basic_string@DU?$char_traits@D@std@@V?$allocator@D@2@@2@_N_J_KNVallocator@2@Uadl_serializer@json_abi_v3_11_2@nlohmann@@V?$vector@EV?$allocator@E@std@@@2@@json_abi_v3_11_2@nlohmann@@@std@@@std@@AEAAAEAV?$basic_json@Vmap@std@@Vvector@2@V?$basic_string@DU?$char_traits@D@std@@V?$allocator@D@2@@2@_N_J_KNVallocator@2@Uadl_serializer@json_abi_v3_11_2@nlohmann@@V?$vector@EV?$allocator@E@std@@@2@@json_abi_v3_11_2@nlohmann@@AEAV?$basic_string@DU?$char_traits@D@std@@V?$allocator@D@2@@1@@Z
        517  204 0002E8D0 ??$_Emplace_one_at_back@AEA_J@?$vector@V?$basic_json@Vmap@std@@Vvector@2@V?$basic_string@DU?$char_traits@D@std@@V?$allocator@D@2@@2@_N_J_KNVallocator@2@Uadl_serializer@json_abi_v3_11_2@nlohmann@@V?$vector@EV?$allocator@E@std@@@2@@json_abi_v3_11_2@nlohmann@@V?$allocator@V?$basic_json@Vmap@std@@Vvector@2@V?$basic_string@DU?$char_traits@D@std@@V?$allocator@D@2@@2@_N_J_KNVallocator@2@Uadl_serializer@json_abi_v3_11_2@nlohmann@@V?$vector@EV?$allocator@E@std@@@2@@json_abi_v3_11_2@nlohmann@@@std@@@std@@AEAAAEAV?$basic_json@Vmap@std@@Vvector@2@V?$basic_string@DU?$char_traits@D@std@@V?$allocator@D@2@@2@_N_J_KNVallocator@2@Uadl_serializer@json_abi_v3_11_2@nlohmann@@V?$vector@EV?$allocator@E@std@@@2@@json_abi_v3_11_2@nlohmann@@AEA_J@Z
        518  205 0002E950 ??$_Emplace_one_at_back@AEA_K@?$vector@V?$basic_json@Vmap@std@@Vvector@2@V?$basic_string@DU?$char_traits@D@std@@V?$allocator@D@2@@2@_N_J_KNVallocator@2@Uadl_serializer@json_abi_v3_11_2@nlohmann@@V?$vector@EV?$allocator@E@std@@@2@@json_abi_v3_11_2@nlohmann@@V?$allocator@V?$basic_json@Vmap@std@@Vvector@2@V?$basic_string@DU?$char_traits@D@std@@V?$allocator@D@2@@2@_N_J_KNVallocator@2@Uadl_serializer@json_abi_v3_11_2@nlohmann@@V?$vector@EV?$allocator@E@std@@@2@@json_abi_v3_11_2@nlohmann@@@std@@@std@@AEAAAEAV?$basic_json@Vmap@std@@Vvector@2@V?$basic_string@DU?$char_traits@D@std@@V?$allocator@D@2@@2@_N_J_KNVallocator@2@Uadl_serializer@json_abi_v3_11_2@nlohmann@@V?$vector@EV?$allocator@E@std@@@2@@json_abi_v3_11_2@nlohmann@@AEA_K@Z
        519  206 0002E9D0 ??$_Emplace_one_at_back@AEA_N@?$vector@V?$basic_json@Vmap@std@@Vvector@2@V?$basic_string@DU?$char_traits@D@std@@V?$allocator@D@2@@2@_N_J_KNVallocator@2@Uadl_serializer@json_abi_v3_11_2@nlohmann@@V?$vector@EV?$allocator@E@std@@@2@@json_abi_v3_11_2@nlohmann@@V?$allocator@V?$basic_json@Vmap@std@@Vvector@2@V?$basic_string@DU?$char_traits@D@std@@V?$allocator@D@2@@2@_N_J_KNVallocator@2@Uadl_serializer@json_abi_v3_11_2@nlohmann@@V?$vector@EV?$allocator@E@std@@@2@@json_abi_v3_11_2@nlohmann@@@std@@@std@@AEAAAEAV?$basic_json@Vmap@std@@Vvector@2@V?$basic_string@DU?$char_traits@D@std@@V?$allocator@D@2@@2@_N_J_KNVallocator@2@Uadl_serializer@json_abi_v3_11_2@nlohmann@@V?$vector@EV?$allocator@E@std@@@2@@json_abi_v3_11_2@nlohmann@@AEA_N@Z
        520  207 0002EA50 ??$_Emplace_one_at_back@AEBQEAV?$basic_json@Vmap@std@@Vvector@2@V?$basic_string@DU?$char_traits@D@std@@V?$allocator@D@2@@2@_N_J_KNVallocator@2@Uadl_serializer@json_abi_v3_11_2@nlohmann@@V?$vector@EV?$allocator@E@std@@@2@@json_abi_v3_11_2@nlohmann@@@?$vector@PEAV?$basic_json@Vmap@std@@Vvector@2@V?$basic_string@DU?$char_traits@D@std@@V?$allocator@D@2@@2@_N_J_KNVallocator@2@Uadl_serializer@json_abi_v3_11_2@nlohmann@@V?$vector@EV?$allocator@E@std@@@2@@json_abi_v3_11_2@nlohmann@@V?$allocator@PEAV?$basic_json@Vmap@std@@Vvector@2@V?$basic_string@DU?$char_traits@D@std@@V?$allocator@D@2@@2@_N_J_KNVallocator@2@Uadl_serializer@json_abi_v3_11_2@nlohmann@@V?$vector@EV?$allocator@E@std@@@2@@json_abi_v3_11_2@nlohmann@@@std@@@std@@AEAAAEAPEAV?$basic_json@Vmap@std@@Vvector@2@V?$basic_string@DU?$char_traits@D@std@@V?$allocator@D@2@@2@_N_J_KNVallocator@2@Uadl_serializer@json_abi_v3_11_2@nlohmann@@V?$vector@EV?$allocator@E@std@@@2@@json_abi_v3_11_2@nlohmann@@AEBQEAV234@@Z
        521  208 00003F40 ??$_Emplace_one_at_back@AEBQEAVBehavior@pineBT@@@?$vector@PEAVBehavior@pineBT@@V?$allocator@PEAVBehavior@pineBT@@@std@@@std@@AEAAAEAPEAVBehavior@pineBT@@AEBQEAV23@@Z
        522  209 00005D20 ??$_Emplace_one_at_back@AEBV?$basic_string@DU?$char_traits@D@std@@V?$allocator@D@2@@std@@@?$vector@V?$basic_string@DU?$char_traits@D@std@@V?$allocator@D@2@@std@@V?$allocator@V?$basic_string@DU?$char_traits@D@std@@V?$allocator@D@2@@std@@@2@@std@@AEAAAEAV?$basic_string@DU?$char_traits@D@std@@V?$allocator@D@2@@1@AEBV21@@Z
        523  20A 0002EA80 ??$_Emplace_one_at_back@D@?$vector@DV?$allocator@D@std@@@std@@AEAAAEAD$$QEAD@Z
        524  20B 0002EA50 ??$_Emplace_one_at_back@PEAV?$basic_json@Vmap@std@@Vvector@2@V?$basic_string@DU?$char_traits@D@std@@V?$allocator@D@2@@2@_N_J_KNVallocator@2@Uadl_serializer@json_abi_v3_11_2@nlohmann@@V?$vector@EV?$allocator@E@std@@@2@@json_abi_v3_11_2@nlohmann@@@?$vector@PEAV?$basic_json@Vmap@std@@Vvector@2@V?$basic_string@DU?$char_traits@D@std@@V?$allocator@D@2@@2@_N_J_KNVallocator@2@Uadl_serializer@json_abi_v3_11_2@nlohmann@@V?$vector@EV?$allocator@E@std@@@2@@json_abi_v3_11_2@nlohmann@@V?$allocator@PEAV?$basic_json@Vmap@std@@Vvector@2@V?$basic_string@DU?$char_traits@D@std@@V?$allocator@D@2@@2@_N_J_KNVallocator@2@Uadl_serializer@json_abi_v3_11_2@nlohmann@@V?$vector@EV?$allocator@E@std@@@2@@json_abi_v3_11_2@nlohmann@@@std@@@std@@AEAAAEAPEAV?$basic_json@Vmap@std@@Vvector@2@V?$basic_string@DU?$char_traits@D@std@@V?$allocator@D@2@@2@_N_J_KNVallocator@2@Uadl_serializer@json_abi_v3_11_2@nlohmann@@V?$vector@EV?$allocator@E@std@@@2@@json_abi_v3_11_2@nlohmann@@$$QEAPEAV234@@Z
        525  20C 0000B7B0 ??$_Emplace_one_at_back@V?$basic_json@Vmap@std@@Vvector@2@V?$basic_string@DU?$char_traits@D@std@@V?$allocator@D@2@@2@_N_J_KNVallocator@2@Uadl_serializer@json_abi_v3_11_2@nlohmann@@V?$vector@EV?$allocator@E@std@@@2@@json_abi_v3_11_2@nlohmann@@@?$vector@V?$basic_json@Vmap@std@@Vvector@2@V?$basic_string@DU?$char_traits@D@std@@V?$allocator@D@2@@2@_N_J_KNVallocator@2@Uadl_serializer@json_abi_v3_11_2@nlohmann@@V?$vector@EV?$allocator@E@std@@@2@@json_abi_v3_11_2@nlohmann@@V?$allocator@V?$basic_json@Vmap@std@@Vvector@2@V?$basic_string@DU?$char_traits@D@std@@V?$allocator@D@2@@2@_N_J_KNVallocator@2@Uadl_serializer@json_abi_v3_11_2@nlohmann@@V?$vector@EV?$allocator@E@std@@@2@@json_abi_v3_11_2@nlohmann@@@std@@@std@@AEAAAEAV?$basic_json@Vmap@std@@Vvector@2@V?$basic_string@DU?$char_traits@D@std@@V?$allocator@D@2@@2@_N_J_KNVallocator@2@Uadl_serializer@json_abi_v3_11_2@nlohmann@@V?$vector@EV?$allocator@E@std@@@2@@json_abi_v3_11_2@nlohmann@@$$QEAV234@@Z
        526  20D 0002EAB0 ??$_Emplace_one_at_back@W4value_t@detail@json_abi_v3_11_2@nlohmann@@@?$vector@V?$basic_json@Vmap@std@@Vvector@2@V?$basic_string@DU?$char_traits@D@std@@V?$allocator@D@2@@2@_N_J_KNVallocator@2@Uadl_serializer@json_abi_v3_11_2@nlohmann@@V?$vector@EV?$allocator@E@std@@@2@@json_abi_v3_11_2@nlohmann@@V?$allocator@V?$basic_json@Vmap@std@@Vvector@2@V?$basic_string@DU?$char_traits@D@std@@V?$allocator@D@2@@2@_N_J_KNVallocator@2@Uadl_serializer@json_abi_v3_11_2@nlohmann@@V?$vector@EV?$allocator@E@std@@@2@@json_abi_v3_11_2@nlohmann@@@std@@@std@@AEAAAEAV?$basic_json@Vmap@std@@Vvector@2@V?$basic_string@DU?$char_traits@D@std@@V?$allocator@D@2@@2@_N_J_KNVallocator@2@Uadl_serializer@json_abi_v3_11_2@nlohmann@@V?$vector@EV?$allocator@E@std@@@2@@json_abi_v3_11_2@nlohmann@@$$QEAW4value_t@detail@34@@Z
        527  20E 0002EAF0 ??$_Emplace_reallocate@$$T@?$vector@V?$basic_json@Vmap@std@@Vvector@2@V?$basic_string@DU?$char_traits@D@std@@V?$allocator@D@2@@2@_N_J_KNVallocator@2@Uadl_serializer@json_abi_v3_11_2@nlohmann@@V?$vector@EV?$allocator@E@std@@@2@@json_abi_v3_11_2@nlohmann@@V?$allocator@V?$basic_json@Vmap@std@@Vvector@2@V?$basic_string@DU?$char_traits@D@std@@V?$allocator@D@2@@2@_N_J_KNVallocator@2@Uadl_serializer@json_abi_v3_11_2@nlohmann@@V?$vector@EV?$allocator@E@std@@@2@@json_abi_v3_11_2@nlohmann@@@std@@@std@@AEAAPEAV?$basic_json@Vmap@std@@Vvector@2@V?$basic_string@DU?$char_traits@D@std@@V?$allocator@D@2@@2@_N_J_KNVallocator@2@Uadl_serializer@json_abi_v3_11_2@nlohmann@@V?$vector@EV?$allocator@E@std@@@2@@json_abi_v3_11_2@nlohmann@@QEAV234@$$QEA$$T@Z
        528  20F 0002EC80 ??$_Emplace_reallocate@AEAN@?$vector@V?$basic_json@Vmap@std@@Vvector@2@V?$basic_string@DU?$char_traits@D@std@@V?$allocator@D@2@@2@_N_J_KNVallocator@2@Uadl_serializer@json_abi_v3_11_2@nlohmann@@V?$vector@EV?$allocator@E@std@@@2@@json_abi_v3_11_2@nlohmann@@V?$allocator@V?$basic_json@Vmap@std@@Vvector@2@V?$basic_string@DU?$char_traits@D@std@@V?$allocator@D@2@@2@_N_J_KNVallocator@2@Uadl_serializer@json_abi_v3_11_2@nlohmann@@V?$vector@EV?$allocator@E@std@@@2@@json_abi_v3_11_2@nlohmann@@@std@@@std@@AEAAPEAV?$basic_json@Vmap@std@@Vvector@2@V?$basic_string@DU?$char_traits@D@std@@V?$allocator@D@2@@2@_N_J_KNVallocator@2@Uadl_serializer@json_abi_v3_11_2@nlohmann@@V?$vector@EV?$allocator@E@std@@@2@@json_abi_v3_11_2@nlohmann@@QEAV234@AEAN@Z
        529  210 0002EE60 ??$_Emplace_reallocate@AEAV?$basic_string@DU?$char_traits@D@std@@V?$allocator@D@2@@std@@@?$vector@V?$basic_json@Vmap@std@@Vvector@2@V?$basic_string@DU?$char_traits@D@std@@V?$allocator@D@2@@2@_N_J_KNVallocator@2@Uadl_serializer@json_abi_v3_11_2@nlohmann@@V?$vector@EV?$allocator@E@std@@@2@@json_abi_v3_11_2@nlohmann@@V?$allocator@V?$basic_json@Vmap@std@@Vvector@2@V?$basic_string@DU?$char_traits@D@std@@V?$allocator@D@2@@2@_N_J_KNVallocator@2@Uadl_serializer@json_abi_v3_11_2@nlohmann@@V?$vector@EV?$allocator@E@std@@@2@@json_abi_v3_11_2@nlohmann@@@std@@@std@@AEAAPEAV?$basic_json@Vmap@std@@Vvector@2@V?$basic_string@DU?$char_traits@D@std@@V?$allocator@D@2@@2@_N_J_KNVallocator@2@Uadl_serializer@json_abi_v3_11_2@nlohmann@@V?$vector@EV?$allocator@E@std@@@2@@json_abi_v3_11_2@nlohmann@@QEAV234@AEAV?$basic_string@DU?$char_traits@D@std@@V?$allocator@D@2@@1@@Z
        530  211 0002F060 ??$_Emplace_reallocate@AEA_J@?$vector@V?$basic_json@Vmap@std@@Vvector@2@V?$basic_string@DU?$char_traits@D@std@@V?$allocator@D@2@@2@_N_J_KNVallocator@2@Uadl_serializer@json_abi_v3_11_2@nlohmann@@V?$vector@EV?$allocator@E@std@@@2@@json_abi_v3_11_2@nlohmann@@V?$allocator@V?$basic_json@Vmap@std@@Vvector@2@V?$basic_string@DU?$char_traits@D@std@@V?$allocator@D@2@@2@_N_J_KNVallocator@2@Uadl_serializer@json_abi_v3_11_2@nlohmann@@V?$vector@EV?$allocator@E@std@@@2@@json_abi_v3_11_2@nlohmann@@@std@@@std@@AEAAPEAV?$basic_json@Vmap@std@@Vvector@2@V?$basic_string@DU?$char_traits@D@std@@V?$allocator@D@2@@2@_N_J_KNVallocator@2@Uadl_serializer@json_abi_v3_11_2@nlohmann@@V?$vector@EV?$allocator@E@std@@@2@@json_abi_v3_11_2@nlohmann@@QEAV234@AEA_J@Z
        531  212 0002F230 ??$_Emplace_reallocate@AEA_K@?$vector@V?$basic_json@Vmap@std@@Vvector@2@V?$basic_string@DU?$char_traits@D@std@@V?$allocator@D@2@@2@_N_J_KNVallocator@2@Uadl_serializer@json_abi_v3_11_2@nlohmann@@V?$vector@EV?$allocator@E@std@@@2@@json_abi_v3_11_2@nlohmann@@V?$allocator@V?$basic_json@Vmap@std@@Vvector@2@V?$basic_string@DU?$char_traits@D@std@@V?$allocator@D@2@@2@_N_J_KNVallocator@2@Uadl_serializer@json_abi_v3_11_2@nlohmann@@V?$vector@EV?$allocator@E@std@@@2@@json_abi_v3_11_2@nlohmann@@@std@@@std@@AEAAPEAV?$basic_json@Vmap@std@@Vvector@2@V?$basic_string@DU?$char_traits@D@std@@V?$allocator@D@2@@2@_N_J_KNVallocator@2@Uadl_serializer@json_abi_v3_11_2@nlohmann@@V?$vector@EV?$allocator@E@std@@@2@@json_abi_v3_11_2@nlohmann@@QEAV234@AEA_K@Z
        532  213 0002F400 ??$_Emplace_reallocate@AEA_N@?$vector@V?$basic_json@Vmap@std@@Vvector@2@V?$basic_string@DU?$char_traits@D@std@@V?$allocator@D@2@@2@_N_J_KNVallocator@2@Uadl_serializer@json_abi_v3_11_2@nlohmann@@V?$vector@EV?$allocator@E@std@@@2@@json_abi_v3_11_2@nlohmann@@V?$allocator@V?$basic_json@Vmap@std@@Vvector@2@V?$basic_string@DU?$char_traits@D@std@@V?$allocator@D@2@@2@_N_J_KNVallocator@2@Uadl_serializer@json_abi_v3_11_2@nlohmann@@V?$vector@EV?$allocator@E@std@@@2@@json_abi_v3_11_2@nlohmann@@@std@@@std@@AEAAPEAV?$basic_json@Vmap@std@@Vvector@2@V?$basic_string@DU?$char_traits@D@std@@V?$allocator@D@2@@2@_N_J_KNVallocator@2@Uadl_serializer@json_abi_v3_11_2@nlohmann@@V?$vector@EV?$allocator@E@std@@@2@@json_abi_v3_11_2@nlohmann@@QEAV234@AEA_N@Z
        533  214 0002F5D0 ??$_Emplace_reallocate@AEBQEAV?$basic_json@Vmap@std@@Vvector@2@V?$basic_string@DU?$char_traits@D@std@@V?$allocator@D@2@@2@_N_J_KNVallocator@2@Uadl_serializer@json_abi_v3_11_2@nlohmann@@V?$vector@EV?$allocator@E@std@@@2@@json_abi_v3_11_2@nlohmann@@@?$vector@PEAV?$basic_json@Vmap@std@@Vvector@2@V?$basic_string@DU?$char_traits@D@std@@V?$allocator@D@2@@2@_N_J_KNVallocator@2@Uadl_serializer@json_abi_v3_11_2@nlohmann@@V?$vector@EV?$allocator@E@std@@@2@@json_abi_v3_11_2@nlohmann@@V?$allocator@PEAV?$basic_json@Vmap@std@@Vvector@2@V?$basic_string@DU?$char_traits@D@std@@V?$allocator@D@2@@2@_N_J_KNVallocator@2@Uadl_serializer@json_abi_v3_11_2@nlohmann@@V?$vector@EV?$allocator@E@std@@@2@@json_abi_v3_11_2@nlohmann@@@std@@@std@@AEAAPEAPEAV?$basic_json@Vmap@std@@Vvector@2@V?$basic_string@DU?$char_traits@D@std@@V?$allocator@D@2@@2@_N_J_KNVallocator@2@Uadl_serializer@json_abi_v3_11_2@nlohmann@@V?$vector@EV?$allocator@E@std@@@2@@json_abi_v3_11_2@nlohmann@@QEAPEAV234@AEBQEAV234@@Z
        534  215 00003F70 ??$_Emplace_reallocate@AEBQEAVBehavior@pineBT@@@?$vector@PEAVBehavior@pineBT@@V?$allocator@PEAVBehavior@pineBT@@@std@@@std@@AEAAPEAPEAVBehavior@pineBT@@QEAPEAV23@AEBQEAV23@@Z
        535  216 00005D60 ??$_Emplace_reallocate@AEBV?$basic_string@DU?$char_traits@D@std@@V?$allocator@D@2@@std@@@?$vector@V?$basic_string@DU?$char_traits@D@std@@V?$allocator@D@2@@std@@V?$allocator@V?$basic_string@DU?$char_traits@D@std@@V?$allocator@D@2@@std@@@2@@std@@AEAAPEAV?$basic_string@DU?$char_traits@D@std@@V?$allocator@D@2@@1@QEAV21@AEBV21@@Z
        536  217 0002F6D0 ??$_Emplace_reallocate@D@?$vector@DV?$allocator@D@std@@@std@@AEAAPEADQEAD$$QEAD@Z
        537  218 0002F5D0 ??$_Emplace_reallocate@PEAV?$basic_json@Vmap@std@@Vvector@2@V?$basic_string@DU?$char_traits@D@std@@V?$allocator@D@2@@2@_N_J_KNVallocator@2@Uadl_serializer@json_abi_v3_11_2@nlohmann@@V?$vector@EV?$allocator@E@std@@@2@@json_abi_v3_11_2@nlohmann@@@?$vector@PEAV?$basic_json@Vmap@std@@Vvector@2@V?$basic_string@DU?$char_traits@D@std@@V?$allocator@D@2@@2@_N_J_KNVallocator@2@Uadl_serializer@json_abi_v3_11_2@nlohmann@@V?$vector@EV?$allocator@E@std@@@2@@json_abi_v3_11_2@nlohmann@@V?$allocator@PEAV?$basic_json@Vmap@std@@Vvector@2@V?$basic_string@DU?$char_traits@D@std@@V?$allocator@D@2@@2@_N_J_KNVallocator@2@Uadl_serializer@json_abi_v3_11_2@nlohmann@@V?$vector@EV?$allocator@E@std@@@2@@json_abi_v3_11_2@nlohmann@@@std@@@std@@AEAAPEAPEAV?$basic_json@Vmap@std@@Vvector@2@V?$basic_string@DU?$char_traits@D@std@@V?$allocator@D@2@@2@_N_J_KNVallocator@2@Uadl_serializer@json_abi_v3_11_2@nlohmann@@V?$vector@EV?$allocator@E@std@@@2@@json_abi_v3_11_2@nlohmann@@QEAPEAV234@$$QEAPEAV234@@Z
        538  219 0000B7F0 ??$_Emplace_reallocate@V?$basic_json@Vmap@std@@Vvector@2@V?$basic_string@DU?$char_traits@D@std@@V?$allocator@D@2@@2@_N_J_KNVallocator@2@Uadl_serializer@json_abi_v3_11_2@nlohmann@@V?$vector@EV?$allocator@E@std@@@2@@json_abi_v3_11_2@nlohmann@@@?$vector@V?$basic_json@Vmap@std@@Vvector@2@V?$basic_string@DU?$char_traits@D@std@@V?$allocator@D@2@@2@_N_J_KNVallocator@2@Uadl_serializer@json_abi_v3_11_2@nlohmann@@V?$vector@EV?$allocator@E@std@@@2@@json_abi_v3_11_2@nlohmann@@V?$allocator@V?$basic_json@Vmap@std@@Vvector@2@V?$basic_string@DU?$char_traits@D@std@@V?$allocator@D@2@@2@_N_J_KNVallocator@2@Uadl_serializer@json_abi_v3_11_2@nlohmann@@V?$vector@EV?$allocator@E@std@@@2@@json_abi_v3_11_2@nlohmann@@@std@@@std@@AEAAPEAV?$basic_json@Vmap@std@@Vvector@2@V?$basic_string@DU?$char_traits@D@std@@V?$allocator@D@2@@2@_N_J_KNVallocator@2@Uadl_serializer@json_abi_v3_11_2@nlohmann@@V?$vector@EV?$allocator@E@std@@@2@@json_abi_v3_11_2@nlohmann@@QEAV234@$$QEAV234@@Z
        539  21A 0002F860 ??$_Emplace_reallocate@W4value_t@detail@json_abi_v3_11_2@nlohmann@@@?$vector@V?$basic_json@Vmap@std@@Vvector@2@V?$basic_string@DU?$char_traits@D@std@@V?$allocator@D@2@@2@_N_J_KNVallocator@2@Uadl_serializer@json_abi_v3_11_2@nlohmann@@V?$vector@EV?$allocator@E@std@@@2@@json_abi_v3_11_2@nlohmann@@V?$allocator@V?$basic_json@Vmap@std@@Vvector@2@V?$basic_string@DU?$char_traits@D@std@@V?$allocator@D@2@@2@_N_J_KNVallocator@2@Uadl_serializer@json_abi_v3_11_2@nlohmann@@V?$vector@EV?$allocator@E@std@@@2@@json_abi_v3_11_2@nlohmann@@@std@@@std@@AEAAPEAV?$basic_json@Vmap@std@@Vvector@2@V?$basic_string@DU?$char_traits@D@std@@V?$allocator@D@2@@2@_N_J_KNVallocator@2@Uadl_serializer@json_abi_v3_11_2@nlohmann@@V?$vector@EV?$allocator@E@std@@@2@@json_abi_v3_11_2@nlohmann@@QEAV234@$$QEAW4value_t@detail@34@@Z
        540  21B 0003FA00 ??$_Erase@H@?$_Hash@V?$_Umap_traits@HV?$unique_ptr@VBehaviorTree@pineBT@@U?$default_delete@VBehaviorTree@pineBT@@@std@@@std@@V?$_Uhash_compare@HU?$hash@H@std@@U?$equal_to@H@2@@2@V?$allocator@U?$pair@$$CBHV?$unique_ptr@VBehaviorTree@pineBT@@U?$default_delete@VBehaviorTree@pineBT@@@std@@@std@@@std@@@2@$0A@@std@@@std@@AEAA_KAEBH@Z
        541  21C 0000B990 ??$_Erase_head@V?$allocator@U?$_Tree_node@U?$pair@$$CBV?$basic_string@DU?$char_traits@D@std@@V?$allocator@D@2@@std@@V?$basic_json@Vmap@std@@Vvector@2@V?$basic_string@DU?$char_traits@D@std@@V?$allocator@D@2@@2@_N_J_KNVallocator@2@Uadl_serializer@json_abi_v3_11_2@nlohmann@@V?$vector@EV?$allocator@E@std@@@2@@json_abi_v3_11_2@nlohmann@@@std@@PEAX@std@@@std@@@?$_Tree_val@U?$_Tree_simple_types@U?$pair@$$CBV?$basic_string@DU?$char_traits@D@std@@V?$allocator@D@2@@std@@V?$basic_json@Vmap@std@@Vvector@2@V?$basic_string@DU?$char_traits@D@std@@V?$allocator@D@2@@2@_N_J_KNVallocator@2@Uadl_serializer@json_abi_v3_11_2@nlohmann@@V?$vector@EV?$allocator@E@std@@@2@@json_abi_v3_11_2@nlohmann@@@std@@@std@@@std@@QEAAXAEAV?$allocator@U?$_Tree_node@U?$pair@$$CBV?$basic_string@DU?$char_traits@D@std@@V?$allocator@D@2@@std@@V?$basic_json@Vmap@std@@Vvector@2@V?$basic_string@DU?$char_traits@D@std@@V?$allocator@D@2@@2@_N_J_KNVallocator@2@Uadl_serializer@json_abi_v3_11_2@nlohmann@@V?$vector@EV?$allocator@E@std@@@2@@json_abi_v3_11_2@nlohmann@@@std@@PEAX@std@@@1@@Z
        542  21D 0000B9C0 ??$_Erase_tree@V?$allocator@U?$_Tree_node@U?$pair@$$CBV?$basic_string@DU?$char_traits@D@std@@V?$allocator@D@2@@std@@V?$basic_json@Vmap@std@@Vvector@2@V?$basic_string@DU?$char_traits@D@std@@V?$allocator@D@2@@2@_N_J_KNVallocator@2@Uadl_serializer@json_abi_v3_11_2@nlohmann@@V?$vector@EV?$allocator@E@std@@@2@@json_abi_v3_11_2@nlohmann@@@std@@PEAX@std@@@std@@@?$_Tree_val@U?$_Tree_simple_types@U?$pair@$$CBV?$basic_string@DU?$char_traits@D@std@@V?$allocator@D@2@@std@@V?$basic_json@Vmap@std@@Vvector@2@V?$basic_string@DU?$char_traits@D@std@@V?$allocator@D@2@@2@_N_J_KNVallocator@2@Uadl_serializer@json_abi_v3_11_2@nlohmann@@V?$vector@EV?$allocator@E@std@@@2@@json_abi_v3_11_2@nlohmann@@@std@@@std@@@std@@QEAAXAEAV?$allocator@U?$_Tree_node@U?$pair@$$CBV?$basic_string@DU?$char_traits@D@std@@V?$allocator@D@2@@std@@V?$basic_json@Vmap@std@@Vvector@2@V?$basic_string@DU?$char_traits@D@std@@V?$allocator@D@2@@2@_N_J_KNVallocator@2@Uadl_serializer@json_abi_v3_11_2@nlohmann@@V?$vector@EV?$allocator@E@std@@@2@@json_abi_v3_11_2@nlohmann@@@std@@PEAX@std@@@1@PEAU?$_Tree_node@U?$pair@$$CBV?$basic_string@DU?$char_traits@D@std@@V?$allocator@D@2@@std@@V?$basic_json@Vmap@std@@Vvector@2@V?$basic_string@DU?$char_traits@D@std@@V?$allocator@D@2@@2@_N_J_KNVallocator@2@Uadl_serializer@json_abi_v3_11_2@nlohmann@@V?$vector@EV?$allocator@E@std@@@2@@json_abi_v3_11_2@nlohmann@@@std@@PEAX@1@@Z
        543  21E 0000B9C0 ??$_Erase_tree_and_orphan@V?$allocator@U?$_Tree_node@U?$pair@$$CBV?$basic_string@DU?$char_traits@D@std@@V?$allocator@D@2@@std@@V?$basic_json@Vmap@std@@Vvector@2@V?$basic_string@DU?$char_traits@D@std@@V?$allocator@D@2@@2@_N_J_KNVallocator@2@Uadl_serializer@json_abi_v3_11_2@nlohmann@@V?$vector@EV?$allocator@E@std@@@2@@json_abi_v3_11_2@nlohmann@@@std@@PEAX@std@@@std@@@?$_Tree_val@U?$_Tree_simple_types@U?$pair@$$CBV?$basic_string@DU?$char_traits@D@std@@V?$allocator@D@2@@std@@V?$basic_json@Vmap@std@@Vvector@2@V?$basic_string@DU?$char_traits@D@std@@V?$allocator@D@2@@2@_N_J_KNVallocator@2@Uadl_serializer@json_abi_v3_11_2@nlohmann@@V?$vector@EV?$allocator@E@std@@@2@@json_abi_v3_11_2@nlohmann@@@std@@@std@@@std@@QEAAXAEAV?$allocator@U?$_Tree_node@U?$pair@$$CBV?$basic_string@DU?$char_traits@D@std@@V?$allocator@D@2@@std@@V?$basic_json@Vmap@std@@Vvector@2@V?$basic_string@DU?$char_traits@D@std@@V?$allocator@D@2@@2@_N_J_KNVallocator@2@Uadl_serializer@json_abi_v3_11_2@nlohmann@@V?$vector@EV?$allocator@E@std@@@2@@json_abi_v3_11_2@nlohmann@@@std@@PEAX@std@@@1@PEAU?$_Tree_node@U?$pair@$$CBV?$basic_string@DU?$char_traits@D@std@@V?$allocator@D@2@@std@@V?$basic_json@Vmap@std@@Vvector@2@V?$basic_string@DU?$char_traits@D@std@@V?$allocator@D@2@@2@_N_J_KNVallocator@2@Uadl_serializer@json_abi_v3_11_2@nlohmann@@V?$vector@EV?$allocator@E@std@@@2@@json_abi_v3_11_2@nlohmann@@@std@@PEAX@1@@Z
        544  21F 0000BA40 ??$_Fill_memset@PEADD@std@@YAXPEADD_K@Z
        545  220 0002FA10 ??$_Fill_vbool@V?$_Vb_iterator@U?$_Wrap_alloc@V?$allocator@I@std@@@std@@@std@@@std@@YAXV?$_Vb_iterator@U?$_Wrap_alloc@V?$allocator@I@std@@@std@@@0@V10@_N@Z
        546  221 0002FB00 ??$_Fill_zero_memset@PEAI@std@@YAXPEAI_K@Z
        547  222 0002FB10 ??$_Find@$$BY02D@?$_Tree@V?$_Tmap_traits@V?$basic_string@DU?$char_traits@D@std@@V?$allocator@D@2@@std@@V?$basic_json@Vmap@std@@Vvector@2@V?$basic_string@DU?$char_traits@D@std@@V?$allocator@D@2@@2@_N_J_KNVallocator@2@Uadl_serializer@json_abi_v3_11_2@nlohmann@@V?$vector@EV?$allocator@E@std@@@2@@json_abi_v3_11_2@nlohmann@@U?$less@X@2@V?$allocator@U?$pair@$$CBV?$basic_string@DU?$char_traits@D@std@@V?$allocator@D@2@@std@@V?$basic_json@Vmap@std@@Vvector@2@V?$basic_string@DU?$char_traits@D@std@@V?$allocator@D@2@@2@_N_J_KNVallocator@2@Uadl_serializer@json_abi_v3_11_2@nlohmann@@V?$vector@EV?$allocator@E@std@@@2@@json_abi_v3_11_2@nlohmann@@@std@@@2@$0A@@std@@@std@@AEBAPEAU?$_Tree_node@U?$pair@$$CBV?$basic_string@DU?$char_traits@D@std@@V?$allocator@D@2@@std@@V?$basic_json@Vmap@std@@Vvector@2@V?$basic_string@DU?$char_traits@D@std@@V?$allocator@D@2@@2@_N_J_KNVallocator@2@Uadl_serializer@json_abi_v3_11_2@nlohmann@@V?$vector@EV?$allocator@E@std@@@2@@json_abi_v3_11_2@nlohmann@@@std@@PEAX@1@AEAY02$$CBD@Z
        548  223 0002FB10 ??$_Find@$$BY04D@?$_Tree@V?$_Tmap_traits@V?$basic_string@DU?$char_traits@D@std@@V?$allocator@D@2@@std@@V?$basic_json@Vmap@std@@Vvector@2@V?$basic_string@DU?$char_traits@D@std@@V?$allocator@D@2@@2@_N_J_KNVallocator@2@Uadl_serializer@json_abi_v3_11_2@nlohmann@@V?$vector@EV?$allocator@E@std@@@2@@json_abi_v3_11_2@nlohmann@@U?$less@X@2@V?$allocator@U?$pair@$$CBV?$basic_string@DU?$char_traits@D@std@@V?$allocator@D@2@@std@@V?$basic_json@Vmap@std@@Vvector@2@V?$basic_string@DU?$char_traits@D@std@@V?$allocator@D@2@@2@_N_J_KNVallocator@2@Uadl_serializer@json_abi_v3_11_2@nlohmann@@V?$vector@EV?$allocator@E@std@@@2@@json_abi_v3_11_2@nlohmann@@@std@@@2@$0A@@std@@@std@@AEBAPEAU?$_Tree_node@U?$pair@$$CBV?$basic_string@DU?$char_traits@D@std@@V?$allocator@D@2@@std@@V?$basic_json@Vmap@std@@Vvector@2@V?$basic_string@DU?$char_traits@D@std@@V?$allocator@D@2@@2@_N_J_KNVallocator@2@Uadl_serializer@json_abi_v3_11_2@nlohmann@@V?$vector@EV?$allocator@E@std@@@2@@json_abi_v3_11_2@nlohmann@@@std@@PEAX@1@AEAY04$$CBD@Z
        549  224 0002FB10 ??$_Find@$$BY06D@?$_Tree@V?$_Tmap_traits@V?$basic_string@DU?$char_traits@D@std@@V?$allocator@D@2@@std@@V?$basic_json@Vmap@std@@Vvector@2@V?$basic_string@DU?$char_traits@D@std@@V?$allocator@D@2@@2@_N_J_KNVallocator@2@Uadl_serializer@json_abi_v3_11_2@nlohmann@@V?$vector@EV?$allocator@E@std@@@2@@json_abi_v3_11_2@nlohmann@@U?$less@X@2@V?$allocator@U?$pair@$$CBV?$basic_string@DU?$char_traits@D@std@@V?$allocator@D@2@@std@@V?$basic_json@Vmap@std@@Vvector@2@V?$basic_string@DU?$char_traits@D@std@@V?$allocator@D@2@@2@_N_J_KNVallocator@2@Uadl_serializer@json_abi_v3_11_2@nlohmann@@V?$vector@EV?$allocator@E@std@@@2@@json_abi_v3_11_2@nlohmann@@@std@@@2@$0A@@std@@@std@@AEBAPEAU?$_Tree_node@U?$pair@$$CBV?$basic_string@DU?$char_traits@D@std@@V?$allocator@D@2@@std@@V?$basic_json@Vmap@std@@Vvector@2@V?$basic_string@DU?$char_traits@D@std@@V?$allocator@D@2@@2@_N_J_KNVallocator@2@Uadl_serializer@json_abi_v3_11_2@nlohmann@@V?$vector@EV?$allocator@E@std@@@2@@json_abi_v3_11_2@nlohmann@@@std@@PEAX@1@AEAY06$$CBD@Z
        550  225 0002FB10 ??$_Find@$$BY07D@?$_Tree@V?$_Tmap_traits@V?$basic_string@DU?$char_traits@D@std@@V?$allocator@D@2@@std@@V?$basic_json@Vmap@std@@Vvector@2@V?$basic_string@DU?$char_traits@D@std@@V?$allocator@D@2@@2@_N_J_KNVallocator@2@Uadl_serializer@json_abi_v3_11_2@nlohmann@@V?$vector@EV?$allocator@E@std@@@2@@json_abi_v3_11_2@nlohmann@@U?$less@X@2@V?$allocator@U?$pair@$$CBV?$basic_string@DU?$char_traits@D@std@@V?$allocator@D@2@@std@@V?$basic_json@Vmap@std@@Vvector@2@V?$basic_string@DU?$char_traits@D@std@@V?$allocator@D@2@@2@_N_J_KNVallocator@2@Uadl_serializer@json_abi_v3_11_2@nlohmann@@V?$vector@EV?$allocator@E@std@@@2@@json_abi_v3_11_2@nlohmann@@@std@@@2@$0A@@std@@@std@@AEBAPEAU?$_Tree_node@U?$pair@$$CBV?$basic_string@DU?$char_traits@D@std@@V?$allocator@D@2@@std@@V?$basic_json@Vmap@std@@Vvector@2@V?$basic_string@DU?$char_traits@D@std@@V?$allocator@D@2@@2@_N_J_KNVallocator@2@Uadl_serializer@json_abi_v3_11_2@nlohmann@@V?$vector@EV?$allocator@E@std@@@2@@json_abi_v3_11_2@nlohmann@@@std@@PEAX@1@AEAY07$$CBD@Z
        551  226 0002FB10 ??$_Find@$$BY08D@?$_Tree@V?$_Tmap_traits@V?$basic_string@DU?$char_traits@D@std@@V?$allocator@D@2@@std@@V?$basic_json@Vmap@std@@Vvector@2@V?$basic_string@DU?$char_traits@D@std@@V?$allocator@D@2@@2@_N_J_KNVallocator@2@Uadl_serializer@json_abi_v3_11_2@nlohmann@@V?$vector@EV?$allocator@E@std@@@2@@json_abi_v3_11_2@nlohmann@@U?$less@X@2@V?$allocator@U?$pair@$$CBV?$basic_string@DU?$char_traits@D@std@@V?$allocator@D@2@@std@@V?$basic_json@Vmap@std@@Vvector@2@V?$basic_string@DU?$char_traits@D@std@@V?$allocator@D@2@@2@_N_J_KNVallocator@2@Uadl_serializer@json_abi_v3_11_2@nlohmann@@V?$vector@EV?$allocator@E@std@@@2@@json_abi_v3_11_2@nlohmann@@@std@@@2@$0A@@std@@@std@@AEBAPEAU?$_Tree_node@U?$pair@$$CBV?$basic_string@DU?$char_traits@D@std@@V?$allocator@D@2@@std@@V?$basic_json@Vmap@std@@Vvector@2@V?$basic_string@DU?$char_traits@D@std@@V?$allocator@D@2@@2@_N_J_KNVallocator@2@Uadl_serializer@json_abi_v3_11_2@nlohmann@@V?$vector@EV?$allocator@E@std@@@2@@json_abi_v3_11_2@nlohmann@@@std@@PEAX@1@AEAY08$$CBD@Z
        552  227 0000BA50 ??$_Find@V?$basic_string@DU?$char_traits@D@std@@V?$allocator@D@2@@std@@@?$_Hash@V?$_Umap_traits@V?$basic_string@DU?$char_traits@D@std@@V?$allocator@D@2@@std@@V?$function@$$A6APEAVBehavior@pineBT@@AEBV?$basic_string@DU?$char_traits@D@std@@V?$allocator@D@2@@std@@AEAVBehaviorTree@2@@Z@2@V?$_Uhash_compare@V?$basic_string@DU?$char_traits@D@std@@V?$allocator@D@2@@std@@U?$hash@V?$basic_string@DU?$char_traits@D@std@@V?$allocator@D@2@@std@@@2@U?$equal_to@V?$basic_string@DU?$char_traits@D@std@@V?$allocator@D@2@@std@@@2@@2@V?$allocator@U?$pair@$$CBV?$basic_string@DU?$char_traits@D@std@@V?$allocator@D@2@@std@@V?$function@$$A6APEAVBehavior@pineBT@@AEBV?$basic_string@DU?$char_traits@D@std@@V?$allocator@D@2@@std@@AEAVBehaviorTree@2@@Z@2@@std@@@2@$0A@@std@@@std@@AEBAPEAU?$_List_node@U?$pair@$$CBV?$basic_string@DU?$char_traits@D@std@@V?$allocator@D@2@@std@@V?$function@$$A6APEAVBehavior@pineBT@@AEBV?$basic_string@DU?$char_traits@D@std@@V?$allocator@D@2@@std@@AEAVBehaviorTree@2@@Z@2@@std@@PEAX@1@AEBV?$basic_string@DU?$char_traits@D@std@@V?$allocator@D@2@@1@_K@Z
        553  228 0002C460 ??$_Find_last@H@?$_Hash@V?$_Umap_traits@HV?$unique_ptr@VBehaviorTree@pineBT@@U?$default_delete@VBehaviorTree@pineBT@@@std@@@std@@V?$_Uhash_compare@HU?$hash@H@std@@U?$equal_to@H@2@@2@V?$allocator@U?$pair@$$CBHV?$unique_ptr@VBehaviorTree@pineBT@@U?$default_delete@VBehaviorTree@pineBT@@@std@@@std@@@std@@@2@$0A@@std@@@std@@IEBA?AU?$_Hash_find_last_result@PEAU?$_List_node@U?$pair@$$CBHV?$unique_ptr@VBehaviorTree@pineBT@@U?$default_delete@VBehaviorTree@pineBT@@@std@@@std@@@std@@PEAX@std@@@1@AEBH_K@Z
        554  229 0002C460 ??$_Find_last@I@?$_Hash@V?$_Umap_traits@IW4Result@Behavior@pineBT@@V?$_Uhash_compare@IU?$hash@I@std@@U?$equal_to@I@2@@std@@V?$allocator@U?$pair@$$CBIW4Result@Behavior@pineBT@@@std@@@5@$0A@@std@@@std@@IEBA?AU?$_Hash_find_last_result@PEAU?$_List_node@U?$pair@$$CBIW4Result@Behavior@pineBT@@@std@@PEAX@std@@@1@AEBI_K@Z
        555  22A 00005E80 ??$_Find_last@V?$basic_string@DU?$char_traits@D@std@@V?$allocator@D@2@@std@@@?$_Hash@V?$_Umap_traits@V?$basic_string@DU?$char_traits@D@std@@V?$allocator@D@2@@std@@HV?$_Uhash_compare@V?$basic_string@DU?$char_traits@D@std@@V?$allocator@D@2@@std@@U?$hash@V?$basic_string@DU?$char_traits@D@std@@V?$allocator@D@2@@std@@@2@U?$equal_to@V?$basic_string@DU?$char_traits@D@std@@V?$allocator@D@2@@std@@@2@@2@V?$allocator@U?$pair@$$CBV?$basic_string@DU?$char_traits@D@std@@V?$allocator@D@2@@std@@H@std@@@2@$0A@@std@@@std@@IEBA?AU?$_Hash_find_last_result@PEAU?$_List_node@U?$pair@$$CBV?$basic_string@DU?$char_traits@D@std@@V?$allocator@D@2@@std@@H@std@@PEAX@std@@@1@AEBV?$basic_string@DU?$char_traits@D@std@@V?$allocator@D@2@@1@_K@Z
        556  22B 00005E80 ??$_Find_last@V?$basic_string@DU?$char_traits@D@std@@V?$allocator@D@2@@std@@@?$_Hash@V?$_Umap_traits@V?$basic_string@DU?$char_traits@D@std@@V?$allocator@D@2@@std@@UBehaviorSchema@pineBT@@V?$_Uhash_compare@V?$basic_string@DU?$char_traits@D@std@@V?$allocator@D@2@@std@@U?$hash@V?$basic_string@DU?$char_traits@D@std@@V?$allocator@D@2@@std@@@2@U?$equal_to@V?$basic_string@DU?$char_traits@D@std@@V?$allocator@D@2@@std@@@2@@2@V?$allocator@U?$pair@$$CBV?$basic_string@DU?$char_traits@D@std@@V?$allocator@D@2@@std@@UBehaviorSchema@pineBT@@@std@@@2@$0A@@std@@@std@@IEBA?AU?$_Hash_find_last_result@PEAU?$_List_node@U?$pair@$$CBV?$basic_string@DU?$char_traits@D@std@@V?$allocator@D@2@@std@@UBehaviorSchema@pineBT@@@std@@PEAX@std@@@1@AEBV?$basic_string@DU?$char_traits@D@std@@V?$allocator@D@2@@1@_K@Z
        557  22C 00005E80 ??$_Find_last@V?$basic_string@DU?$char_traits@D@std@@V?$allocator@D@2@@std@@@?$_Hash@V?$_Umap_traits@V?$basic_string@DU?$char_traits@D@std@@V?$allocator@D@2@@std@@V?$function@$$A6APEAVBehavior@pineBT@@AEBV?$basic_string@DU?$char_traits@D@std@@V?$allocator@D@2@@std@@AEAVBehaviorTree@2@@Z@2@V?$_Uhash_compare@V?$basic_string@DU?$char_traits@D@std@@V?$allocator@D@2@@std@@U?$hash@V?$basic_string@DU?$char_traits@D@std@@V?$allocator@D@2@@std@@@2@U?$equal_to@V?$basic_string@DU?$char_traits@D@std@@V?$allocator@D@2@@std@@@2@@2@V?$allocator@U?$pair@$$CBV?$basic_string@DU?$char_traits@D@std@@V?$allocator@D@2@@std@@V?$function@$$A6APEAVBehavior@pineBT@@AEBV?$basic_string@DU?$char_traits@D@std@@V?$allocator@D@2@@std@@AEAVBehaviorTree@2@@Z@2@@std@@@2@$0A@@std@@@std@@IEBA?AU?$_Hash_find_last_result@PEAU?$_List_node@U?$pair@$$CBV?$basic_string@DU?$char_traits@D@std@@V?$allocator@D@2@@std@@V?$function@$$A6APEAVBehavior@pineBT@@AEBV?$basic_string@DU?$char_traits@D@std@@V?$allocator@D@2@@std@@AEAVBehaviorTree@2@@Z@2@@std@@PEAX@std@@@1@AEBV?$basic_string@DU?$char_traits@D@std@@V?$allocator@D@2@@1@_K@Z
        558  22D 0002FBA0 ??$_Find_lower_bound@$$BY02D@?$_Tree@V?$_Tmap_traits@V?$basic_string@DU?$char_traits@D@std@@V?$allocator@D@2@@std@@V?$basic_json@Vmap@std@@Vvector@2@V?$basic_string@DU?$char_traits@D@std@@V?$allocator@D@2@@2@_N_J_KNVallocator@2@Uadl_serializer@json_abi_v3_11_2@nlohmann@@V?$vector@EV?$allocator@E@std@@@2@@json_abi_v3_11_2@nlohmann@@U?$less@X@2@V?$allocator@U?$pair@$$CBV?$basic_string@DU?$char_traits@D@std@@V?$allocator@D@2@@std@@V?$basic_json@Vmap@std@@Vvector@2@V?$basic_string@DU?$char_traits@D@std@@V?$allocator@D@2@@2@_N_J_KNVallocator@2@Uadl_serializer@json_abi_v3_11_2@nlohmann@@V?$vector@EV?$allocator@E@std@@@2@@json_abi_v3_11_2@nlohmann@@@std@@@2@$0A@@std@@@std@@IEBA?AU?$_Tree_find_result@PEAU?$_Tree_node@U?$pair@$$CBV?$basic_string@DU?$char_traits@D@std@@V?$allocator@D@2@@std@@V?$basic_json@Vmap@std@@Vvector@2@V?$basic_string@DU?$char_traits@D@std@@V?$allocator@D@2@@2@_N_J_KNVallocator@2@Uadl_serializer@json_abi_v3_11_2@nlohmann@@V?$vector@EV?$allocator@E@std@@@2@@json_abi_v3_11_2@nlohmann@@@std@@PEAX@std@@@1@AEAY02$$CBD@Z
        559  22E 0002FBA0 ??$_Find_lower_bound@$$BY04D@?$_Tree@V?$_Tmap_traits@V?$basic_string@DU?$char_traits@D@std@@V?$allocator@D@2@@std@@V?$basic_json@Vmap@std@@Vvector@2@V?$basic_string@DU?$char_traits@D@std@@V?$allocator@D@2@@2@_N_J_KNVallocator@2@Uadl_serializer@json_abi_v3_11_2@nlohmann@@V?$vector@EV?$allocator@E@std@@@2@@json_abi_v3_11_2@nlohmann@@U?$less@X@2@V?$allocator@U?$pair@$$CBV?$basic_string@DU?$char_traits@D@std@@V?$allocator@D@2@@std@@V?$basic_json@Vmap@std@@Vvector@2@V?$basic_string@DU?$char_traits@D@std@@V?$allocator@D@2@@2@_N_J_KNVallocator@2@Uadl_serializer@json_abi_v3_11_2@nlohmann@@V?$vector@EV?$allocator@E@std@@@2@@json_abi_v3_11_2@nlohmann@@@std@@@2@$0A@@std@@@std@@IEBA?AU?$_Tree_find_result@PEAU?$_Tree_node@U?$pair@$$CBV?$basic_string@DU?$char_traits@D@std@@V?$allocator@D@2@@std@@V?$basic_json@Vmap@std@@Vvector@2@V?$basic_string@DU?$char_traits@D@std@@V?$allocator@D@2@@2@_N_J_KNVallocator@2@Uadl_serializer@json_abi_v3_11_2@nlohmann@@V?$vector@EV?$allocator@E@std@@@2@@json_abi_v3_11_2@nlohmann@@@std@@PEAX@std@@@1@AEAY04$$CBD@Z
        560  22F 0002FBA0 ??$_Find_lower_bound@$$BY06D@?$_Tree@V?$_Tmap_traits@V?$basic_string@DU?$char_traits@D@std@@V?$allocator@D@2@@std@@V?$basic_json@Vmap@std@@Vvector@2@V?$basic_string@DU?$char_traits@D@std@@V?$allocator@D@2@@2@_N_J_KNVallocator@2@Uadl_serializer@json_abi_v3_11_2@nlohmann@@V?$vector@EV?$allocator@E@std@@@2@@json_abi_v3_11_2@nlohmann@@U?$less@X@2@V?$allocator@U?$pair@$$CBV?$basic_string@DU?$char_traits@D@std@@V?$allocator@D@2@@std@@V?$basic_json@Vmap@std@@Vvector@2@V?$basic_string@DU?$char_traits@D@std@@V?$allocator@D@2@@2@_N_J_KNVallocator@2@Uadl_serializer@json_abi_v3_11_2@nlohmann@@V?$vector@EV?$allocator@E@std@@@2@@json_abi_v3_11_2@nlohmann@@@std@@@2@$0A@@std@@@std@@IEBA?AU?$_Tree_find_result@PEAU?$_Tree_node@U?$pair@$$CBV?$basic_string@DU?$char_traits@D@std@@V?$allocator@D@2@@std@@V?$basic_json@Vmap@std@@Vvector@2@V?$basic_string@DU?$char_traits@D@std@@V?$allocator@D@2@@2@_N_J_KNVallocator@2@Uadl_serializer@json_abi_v3_11_2@nlohmann@@V?$vector@EV?$allocator@E@std@@@2@@json_abi_v3_11_2@nlohmann@@@std@@PEAX@std@@@1@AEAY06$$CBD@Z
        561  230 0002FBA0 ??$_Find_lower_bound@$$BY07D@?$_Tree@V?$_Tmap_traits@V?$basic_string@DU?$char_traits@D@std@@V?$allocator@D@2@@std@@V?$basic_json@Vmap@std@@Vvector@2@V?$basic_string@DU?$char_traits@D@std@@V?$allocator@D@2@@2@_N_J_KNVallocator@2@Uadl_serializer@json_abi_v3_11_2@nlohmann@@V?$vector@EV?$allocator@E@std@@@2@@json_abi_v3_11_2@nlohmann@@U?$less@X@2@V?$allocator@U?$pair@$$CBV?$basic_string@DU?$char_traits@D@std@@V?$allocator@D@2@@std@@V?$basic_json@Vmap@std@@Vvector@2@V?$basic_string@DU?$char_traits@D@std@@V?$allocator@D@2@@2@_N_J_KNVallocator@2@Uadl_serializer@json_abi_v3_11_2@nlohmann@@V?$vector@EV?$allocator@E@std@@@2@@json_abi_v3_11_2@nlohmann@@@std@@@2@$0A@@std@@@std@@IEBA?AU?$_Tree_find_result@PEAU?$_Tree_node@U?$pair@$$CBV?$basic_string@DU?$char_traits@D@std@@V?$allocator@D@2@@std@@V?$basic_json@Vmap@std@@Vvector@2@V?$basic_string@DU?$char_traits@D@std@@V?$allocator@D@2@@2@_N_J_KNVallocator@2@Uadl_serializer@json_abi_v3_11_2@nlohmann@@V?$vector@EV?$allocator@E@std@@@2@@json_abi_v3_11_2@nlohmann@@@std@@PEAX@std@@@1@AEAY07$$CBD@Z
        562  231 0002FBA0 ??$_Find_lower_bound@$$BY08D@?$_Tree@V?$_Tmap_traits@V?$basic_string@DU?$char_traits@D@std@@V?$allocator@D@2@@std@@V?$basic_json@Vmap@std@@Vvector@2@V?$basic_string@DU?$char_traits@D@std@@V?$allocator@D@2@@2@_N_J_KNVallocator@2@Uadl_serializer@json_abi_v3_11_2@nlohmann@@V?$vector@EV?$allocator@E@std@@@2@@json_abi_v3_11_2@nlohmann@@U?$less@X@2@V?$allocator@U?$pair@$$CBV?$basic_string@DU?$char_traits@D@std@@V?$allocator@D@2@@std@@V?$basic_json@Vmap@std@@Vvector@2@V?$basic_string@DU?$char_traits@D@std@@V?$allocator@D@2@@2@_N_J_KNVallocator@2@Uadl_serializer@json_abi_v3_11_2@nlohmann@@V?$vector@EV?$allocator@E@std@@@2@@json_abi_v3_11_2@nlohmann@@@std@@@2@$0A@@std@@@std@@IEBA?AU?$_Tree_find_result@PEAU?$_Tree_node@U?$pair@$$CBV?$basic_string@DU?$char_traits@D@std@@V?$allocator@D@2@@std@@V?$basic_json@Vmap@std@@Vvector@2@V?$basic_string@DU?$char_traits@D@std@@V?$allocator@D@2@@2@_N_J_KNVallocator@2@Uadl_serializer@json_abi_v3_11_2@nlohmann@@V?$vector@EV?$allocator@E@std@@@2@@json_abi_v3_11_2@nlohmann@@@std@@PEAX@std@@@1@AEAY08$$CBD@Z
        563  232 0000BA80 ??$_Find_lower_bound@V?$basic_string@DU?$char_traits@D@std@@V?$allocator@D@2@@std@@@?$_Tree@V?$_Tmap_traits@V?$basic_string@DU?$char_traits@D@std@@V?$allocator@D@2@@std@@V?$basic_json@Vmap@std@@Vvector@2@V?$basic_string@DU?$char_traits@D@std@@V?$allocator@D@2@@2@_N_J_KNVallocator@2@Uadl_serializer@json_abi_v3_11_2@nlohmann@@V?$vector@EV?$allocator@E@std@@@2@@json_abi_v3_11_2@nlohmann@@U?$less@X@2@V?$allocator@U?$pair@$$CBV?$basic_string@DU?$char_traits@D@std@@V?$allocator@D@2@@std@@V?$basic_json@Vmap@std@@Vvector@2@V?$basic_string@DU?$char_traits@D@std@@V?$allocator@D@2@@2@_N_J_KNVallocator@2@Uadl_serializer@json_abi_v3_11_2@nlohmann@@V?$vector@EV?$allocator@E@std@@@2@@json_abi_v3_11_2@nlohmann@@@std@@@2@$0A@@std@@@std@@IEBA?AU?$_Tree_find_result@PEAU?$_Tree_node@U?$pair@$$CBV?$basic_string@DU?$char_traits@D@std@@V?$allocator@D@2@@std@@V?$basic_json@Vmap@std@@Vvector@2@V?$basic_string@DU?$char_traits@D@std@@V?$allocator@D@2@@2@_N_J_KNVallocator@2@Uadl_serializer@json_abi_v3_11_2@nlohmann@@V?$vector@EV?$allocator@E@std@@@2@@json_abi_v3_11_2@nlohmann@@@std@@PEAX@std@@@1@AEBV?$basic_string@DU?$char_traits@D@std@@V?$allocator@D@2@@1@@Z
        564  233 0000BB50 ??$_Find_unchecked@PEADD@std@@YAPEADPEADQEADAEBD@Z
        565  234 0000BB50 ??$_Find_unchecked@PEBDD@std@@YAPEBDPEBDQEBDAEBD@Z
        566  235 0000BB60 ??$_Floating_to_chars@$00M@std@@YA?AUto_chars_result@0@PEADQEADMW4chars_format@0@H@Z
        567  236 0000BCA0 ??$_Floating_to_chars@$00N@std@@YA?AUto_chars_result@0@PEADQEADNW4chars_format@0@H@Z
        568  237 0000BE10 ??$_Floating_to_chars@$01M@std@@YA?AUto_chars_result@0@PEADQEADMW4chars_format@0@H@Z
        569  238 0000BF90 ??$_Floating_to_chars@$01N@std@@YA?AUto_chars_result@0@PEADQEADNW4chars_format@0@H@Z
        570  239 0000C130 ??$_Floating_to_chars@$0A@M@std@@YA?AUto_chars_result@0@PEADQEADMW4chars_format@0@H@Z
        571  23A 0000C290 ??$_Floating_to_chars@$0A@N@std@@YA?AUto_chars_result@0@PEADQEADNW4chars_format@0@H@Z
        572  23B 0000C3F0 ??$_Floating_to_chars_fixed_precision@M@std@@YA?AUto_chars_result@0@QEAD0MH@Z
        573  23C 0000C450 ??$_Floating_to_chars_fixed_precision@N@std@@YA?AUto_chars_result@0@QEAD0NH@Z
        574  23D 0000C4B0 ??$_Floating_to_chars_general_precision@M@std@@YA?AUto_chars_result@0@PEADQEADMH@Z
        575  23E 0000C7A0 ??$_Floating_to_chars_general_precision@N@std@@YA?AUto_chars_result@0@PEADQEADNH@Z
        576  23F 0000CAD0 ??$_Floating_to_chars_hex_precision@M@std@@YA?AUto_chars_result@0@PEADQEADMH@Z
        577  240 0000CD00 ??$_Floating_to_chars_hex_precision@N@std@@YA?AUto_chars_result@0@PEADQEADNH@Z
        578  241 0000CF60 ??$_Floating_to_chars_hex_shortest@M@std@@YA?AUto_chars_result@0@PEADQEADM@Z
        579  242 0000D100 ??$_Floating_to_chars_hex_shortest@N@std@@YA?AUto_chars_result@0@PEADQEADN@Z
        580  243 0000D2B0 ??$_Floating_to_chars_ryu@M@std@@YA?AUto_chars_result@0@QEAD0MW4chars_format@0@@Z
        581  244 0000D3C0 ??$_Floating_to_chars_ryu@N@std@@YA?AUto_chars_result@0@QEAD0NW4chars_format@0@@Z
        582  245 0000D3F0 ??$_Floating_to_chars_scientific_precision@M@std@@YA?AUto_chars_result@0@QEAD0MH@Z
        583  246 0000D450 ??$_Floating_to_chars_scientific_precision@N@std@@YA?AUto_chars_result@0@QEAD0NH@Z
        584  247 0000D4B0 ??$_Fmt_write@DV?$back_insert_iterator@V?$_Fmt_buffer@D@std@@@std@@@std@@YA?AV?$back_insert_iterator@V?$_Fmt_buffer@D@std@@@0@V10@D@Z
        585  248 0000D510 ??$_Fmt_write@DV?$back_insert_iterator@V?$_Fmt_buffer@D@std@@@std@@@std@@YA?AV?$back_insert_iterator@V?$_Fmt_buffer@D@std@@@0@V10@DU?$_Basic_format_specs@D@0@V_Lazy_locale@0@@Z
        586  249 0000D5A0 ??$_Fmt_write@DV?$back_insert_iterator@V?$_Fmt_buffer@D@std@@@std@@@std@@YA?AV?$back_insert_iterator@V?$_Fmt_buffer@D@std@@@0@V10@PEBD@Z
        587  24A 0000D630 ??$_Fmt_write@DV?$back_insert_iterator@V?$_Fmt_buffer@D@std@@@std@@@std@@YA?AV?$back_insert_iterator@V?$_Fmt_buffer@D@std@@@0@V10@PEBDAEBU?$_Basic_format_specs@D@0@V_Lazy_locale@0@@Z
        588  24B 0000D680 ??$_Fmt_write@DV?$back_insert_iterator@V?$_Fmt_buffer@D@std@@@std@@@std@@YA?AV?$back_insert_iterator@V?$_Fmt_buffer@D@std@@@0@V10@QEBX@Z
        589  24C 0000D7E0 ??$_Fmt_write@DV?$back_insert_iterator@V?$_Fmt_buffer@D@std@@@std@@@std@@YA?AV?$back_insert_iterator@V?$_Fmt_buffer@D@std@@@0@V10@QEBXAEBU?$_Basic_format_specs@D@0@V_Lazy_locale@0@@Z
        590  24D 000031C0 ??$_Fmt_write@DV?$back_insert_iterator@V?$_Fmt_buffer@D@std@@@std@@@std@@YA?AV?$back_insert_iterator@V?$_Fmt_buffer@D@std@@@0@V10@Umonostate@0@@Z
        591  24E 000031C0 ??$_Fmt_write@DV?$back_insert_iterator@V?$_Fmt_buffer@D@std@@@std@@@std@@YA?AV?$back_insert_iterator@V?$_Fmt_buffer@D@std@@@0@V10@Umonostate@0@AEBU?$_Basic_format_specs@D@0@V_Lazy_locale@0@@Z
        592  24F 0000D860 ??$_Fmt_write@DV?$back_insert_iterator@V?$_Fmt_buffer@D@std@@@std@@@std@@YA?AV?$back_insert_iterator@V?$_Fmt_buffer@D@std@@@0@V10@V?$basic_string_view@DU?$char_traits@D@std@@@0@@Z
        593  250 0000D8F0 ??$_Fmt_write@DV?$back_insert_iterator@V?$_Fmt_buffer@D@std@@@std@@@std@@YA?AV?$back_insert_iterator@V?$_Fmt_buffer@D@std@@@0@V10@V?$basic_string_view@DU?$char_traits@D@std@@@0@AEBU?$_Basic_format_specs@D@0@V_Lazy_locale@0@@Z
        594  251 0000DA80 ??$_Fmt_write@DV?$back_insert_iterator@V?$_Fmt_buffer@D@std@@@std@@@std@@YA?AV?$back_insert_iterator@V?$_Fmt_buffer@D@std@@@0@V10@_N@Z
        595  252 0000DB30 ??$_Fmt_write@DV?$back_insert_iterator@V?$_Fmt_buffer@D@std@@@std@@@std@@YA?AV?$back_insert_iterator@V?$_Fmt_buffer@D@std@@@0@V10@_NU?$_Basic_format_specs@D@0@V_Lazy_locale@0@@Z
        596  253 0000DDA0 ??$_Fmt_write@DV?$back_insert_iterator@V?$_Fmt_buffer@D@std@@@std@@H@std@@YA?AV?$back_insert_iterator@V?$_Fmt_buffer@D@std@@@0@V10@H@Z
        597  254 0000DEE0 ??$_Fmt_write@DV?$back_insert_iterator@V?$_Fmt_buffer@D@std@@@std@@H@std@@YA?AV?$back_insert_iterator@V?$_Fmt_buffer@D@std@@@0@V10@HAEBU?$_Basic_format_specs@D@0@V_Lazy_locale@0@@Z
        598  255 0000DF20 ??$_Fmt_write@DV?$back_insert_iterator@V?$_Fmt_buffer@D@std@@@std@@I@std@@YA?AV?$back_insert_iterator@V?$_Fmt_buffer@D@std@@@0@V10@I@Z
        599  256 0000E030 ??$_Fmt_write@DV?$back_insert_iterator@V?$_Fmt_buffer@D@std@@@std@@I@std@@YA?AV?$back_insert_iterator@V?$_Fmt_buffer@D@std@@@0@V10@IAEBU?$_Basic_format_specs@D@0@V_Lazy_locale@0@@Z
        600  257 0000E070 ??$_Fmt_write@DV?$back_insert_iterator@V?$_Fmt_buffer@D@std@@@std@@M@std@@YA?AV?$back_insert_iterator@V?$_Fmt_buffer@D@std@@@0@V10@M@Z
        601  258 0000E180 ??$_Fmt_write@DV?$back_insert_iterator@V?$_Fmt_buffer@D@std@@@std@@M@std@@YA?AV?$back_insert_iterator@V?$_Fmt_buffer@D@std@@@0@V10@MAEBU?$_Basic_format_specs@D@0@V_Lazy_locale@0@@Z
        602  259 0000E810 ??$_Fmt_write@DV?$back_insert_iterator@V?$_Fmt_buffer@D@std@@@std@@N@std@@YA?AV?$back_insert_iterator@V?$_Fmt_buffer@D@std@@@0@V10@N@Z
        603  25A 0000E930 ??$_Fmt_write@DV?$back_insert_iterator@V?$_Fmt_buffer@D@std@@@std@@N@std@@YA?AV?$back_insert_iterator@V?$_Fmt_buffer@D@std@@@0@V10@NAEBU?$_Basic_format_specs@D@0@V_Lazy_locale@0@@Z
        604  25B 0000EFD0 ??$_Fmt_write@DV?$back_insert_iterator@V?$_Fmt_buffer@D@std@@@std@@O@std@@YA?AV?$back_insert_iterator@V?$_Fmt_buffer@D@std@@@0@V10@O@Z
        605  25C 0000F0F0 ??$_Fmt_write@DV?$back_insert_iterator@V?$_Fmt_buffer@D@std@@@std@@O@std@@YA?AV?$back_insert_iterator@V?$_Fmt_buffer@D@std@@@0@V10@OAEBU?$_Basic_format_specs@D@0@V_Lazy_locale@0@@Z
        606  25D 0000F790 ??$_Fmt_write@DV?$back_insert_iterator@V?$_Fmt_buffer@D@std@@@std@@_J@std@@YA?AV?$back_insert_iterator@V?$_Fmt_buffer@D@std@@@0@V10@_J@Z
        607  25E 0000F8F0 ??$_Fmt_write@DV?$back_insert_iterator@V?$_Fmt_buffer@D@std@@@std@@_J@std@@YA?AV?$back_insert_iterator@V?$_Fmt_buffer@D@std@@@0@V10@_JAEBU?$_Basic_format_specs@D@0@V_Lazy_locale@0@@Z
        608  25F 0000F930 ??$_Fmt_write@DV?$back_insert_iterator@V?$_Fmt_buffer@D@std@@@std@@_K@std@@YA?AV?$back_insert_iterator@V?$_Fmt_buffer@D@std@@@0@V10@_K@Z
        609  260 0000FA60 ??$_Fmt_write@DV?$back_insert_iterator@V?$_Fmt_buffer@D@std@@@std@@_K@std@@YA?AV?$back_insert_iterator@V?$_Fmt_buffer@D@std@@@0@V10@_KAEBU?$_Basic_format_specs@D@0@V_Lazy_locale@0@@Z
        610  261 0002C4D0 ??$_Fnv1a_append_value@H@std@@YA_K_KAEBH@Z
        611  262 0002C4D0 ??$_Fnv1a_append_value@I@std@@YA_K_KAEBI@Z
        612  263 0003FB10 ??$_Free_non_head@V?$allocator@U?$_List_node@U?$pair@$$CBHV?$unique_ptr@VBehaviorTree@pineBT@@U?$default_delete@VBehaviorTree@pineBT@@@std@@@std@@@std@@PEAX@std@@@std@@@?$_List_node@U?$pair@$$CBHV?$unique_ptr@VBehaviorTree@pineBT@@U?$default_delete@VBehaviorTree@pineBT@@@std@@@std@@@std@@PEAX@std@@SAXAEAV?$allocator@U?$_List_node@U?$pair@$$CBHV?$unique_ptr@VBehaviorTree@pineBT@@U?$default_delete@VBehaviorTree@pineBT@@@std@@@std@@@std@@PEAX@std@@@1@PEAU01@@Z
        613  264 0002C510 ??$_Free_non_head@V?$allocator@U?$_List_node@U?$pair@$$CBIW4Result@Behavior@pineBT@@@std@@PEAX@std@@@std@@@?$_List_node@U?$pair@$$CBIW4Result@Behavior@pineBT@@@std@@PEAX@std@@SAXAEAV?$allocator@U?$_List_node@U?$pair@$$CBIW4Result@Behavior@pineBT@@@std@@PEAX@std@@@1@PEAU01@@Z
        614  265 00004110 ??$_Free_non_head@V?$allocator@U?$_List_node@U?$pair@$$CBV?$basic_string@DU?$char_traits@D@std@@V?$allocator@D@2@@std@@H@std@@PEAX@std@@@std@@@?$_List_node@U?$pair@$$CBV?$basic_string@DU?$char_traits@D@std@@V?$allocator@D@2@@std@@H@std@@PEAX@std@@SAXAEAV?$allocator@U?$_List_node@U?$pair@$$CBV?$basic_string@DU?$char_traits@D@std@@V?$allocator@D@2@@std@@H@std@@PEAX@std@@@1@PEAU01@@Z
        615  266 0000FAA0 ??$_Free_non_head@V?$allocator@U?$_List_node@U?$pair@$$CBV?$basic_string@DU?$char_traits@D@std@@V?$allocator@D@2@@std@@UBehaviorSchema@pineBT@@@std@@PEAX@std@@@std@@@?$_List_node@U?$pair@$$CBV?$basic_string@DU?$char_traits@D@std@@V?$allocator@D@2@@std@@UBehaviorSchema@pineBT@@@std@@PEAX@std@@SAXAEAV?$allocator@U?$_List_node@U?$pair@$$CBV?$basic_string@DU?$char_traits@D@std@@V?$allocator@D@2@@std@@UBehaviorSchema@pineBT@@@std@@PEAX@std@@@1@PEAU01@@Z
        616  267 0000FAF0 ??$_Free_non_head@V?$allocator@U?$_List_node@U?$pair@$$CBV?$basic_string@DU?$char_traits@D@std@@V?$allocator@D@2@@std@@V?$function@$$A6APEAVBehavior@pineBT@@AEBV?$basic_string@DU?$char_traits@D@std@@V?$allocator@D@2@@std@@AEAVBehaviorTree@2@@Z@2@@std@@PEAX@std@@@std@@@?$_List_node@U?$pair@$$CBV?$basic_string@DU?$char_traits@D@std@@V?$allocator@D@2@@std@@V?$function@$$A6APEAVBehavior@pineBT@@AEBV?$basic_string@DU?$char_traits@D@std@@V?$allocator@D@2@@std@@AEAVBehaviorTree@2@@Z@2@@std@@PEAX@std@@SAXAEAV?$allocator@U?$_List_node@U?$pair@$$CBV?$basic_string@DU?$char_traits@D@std@@V?$allocator@D@2@@std@@V?$function@$$A6APEAVBehavior@pineBT@@AEBV?$basic_string@DU?$char_traits@D@std@@V?$allocator@D@2@@std@@AEAVBehaviorTree@2@@Z@2@@std@@PEAX@std@@@1@PEAU01@@Z
        617  268 00021050 ??$_Freenode0@V?$allocator@U?$_List_node@U?$pair@$$CBHV?$unique_ptr@VBehaviorTree@pineBT@@U?$default_delete@VBehaviorTree@pineBT@@@std@@@std@@@std@@PEAX@std@@@std@@@?$_List_node@U?$pair@$$CBHV?$unique_ptr@VBehaviorTree@pineBT@@U?$default_delete@VBehaviorTree@pineBT@@@std@@@std@@@std@@PEAX@std@@SAXAEAV?$allocator@U?$_List_node@U?$pair@$$CBHV?$unique_ptr@VBehaviorTree@pineBT@@U?$default_delete@VBehaviorTree@pineBT@@@std@@@std@@@std@@PEAX@std@@@1@PEAU01@@Z
        618  269 00021070 ??$_Freenode0@V?$allocator@U?$_List_node@U?$pair@$$CBIW4Result@Behavior@pineBT@@@std@@PEAX@std@@@std@@@?$_List_node@U?$pair@$$CBIW4Result@Behavior@pineBT@@@std@@PEAX@std@@SAXAEAV?$allocator@U?$_List_node@U?$pair@$$CBIW4Result@Behavior@pineBT@@@std@@PEAX@std@@@1@PEAU01@@Z
        619  26A 000041B0 ??$_Freenode0@V?$allocator@U?$_List_node@U?$pair@$$CBV?$basic_string@DU?$char_traits@D@std@@V?$allocator@D@2@@std@@H@std@@PEAX@std@@@std@@@?$_List_node@U?$pair@$$CBV?$basic_string@DU?$char_traits@D@std@@V?$allocator@D@2@@std@@H@std@@PEAX@std@@SAXAEAV?$allocator@U?$_List_node@U?$pair@$$CBV?$basic_string@DU?$char_traits@D@std@@V?$allocator@D@2@@std@@H@std@@PEAX@std@@@1@PEAU01@@Z
        620  26B 0000FB40 ??$_Freenode0@V?$allocator@U?$_List_node@U?$pair@$$CBV?$basic_string@DU?$char_traits@D@std@@V?$allocator@D@2@@std@@UBehaviorSchema@pineBT@@@std@@PEAX@std@@@std@@@?$_List_node@U?$pair@$$CBV?$basic_string@DU?$char_traits@D@std@@V?$allocator@D@2@@std@@UBehaviorSchema@pineBT@@@std@@PEAX@std@@SAXAEAV?$allocator@U?$_List_node@U?$pair@$$CBV?$basic_string@DU?$char_traits@D@std@@V?$allocator@D@2@@std@@UBehaviorSchema@pineBT@@@std@@PEAX@std@@@1@PEAU01@@Z
        621  26C 0000FB50 ??$_Freenode0@V?$allocator@U?$_List_node@U?$pair@$$CBV?$basic_string@DU?$char_traits@D@std@@V?$allocator@D@2@@std@@V?$function@$$A6APEAVBehavior@pineBT@@AEBV?$basic_string@DU?$char_traits@D@std@@V?$allocator@D@2@@std@@AEAVBehaviorTree@2@@Z@2@@std@@PEAX@std@@@std@@@?$_List_node@U?$pair@$$CBV?$basic_string@DU?$char_traits@D@std@@V?$allocator@D@2@@std@@V?$function@$$A6APEAVBehavior@pineBT@@AEBV?$basic_string@DU?$char_traits@D@std@@V?$allocator@D@2@@std@@AEAVBehaviorTree@2@@Z@2@@std@@PEAX@std@@SAXAEAV?$allocator@U?$_List_node@U?$pair@$$CBV?$basic_string@DU?$char_traits@D@std@@V?$allocator@D@2@@std@@V?$function@$$A6APEAVBehavior@pineBT@@AEBV?$basic_string@DU?$char_traits@D@std@@V?$allocator@D@2@@std@@AEAVBehaviorTree@2@@Z@2@@std@@PEAX@std@@@1@PEAU01@@Z
        622  26D 0000FB60 ??$_Freenode0@V?$allocator@U?$_Tree_node@U?$pair@$$CBV?$basic_string@DU?$char_traits@D@std@@V?$allocator@D@2@@std@@V?$basic_json@Vmap@std@@Vvector@2@V?$basic_string@DU?$char_traits@D@std@@V?$allocator@D@2@@2@_N_J_KNVallocator@2@Uadl_serializer@json_abi_v3_11_2@nlohmann@@V?$vector@EV?$allocator@E@std@@@2@@json_abi_v3_11_2@nlohmann@@@std@@PEAX@std@@@std@@@?$_Tree_node@U?$pair@$$CBV?$basic_string@DU?$char_traits@D@std@@V?$allocator@D@2@@std@@V?$basic_json@Vmap@std@@Vvector@2@V?$basic_string@DU?$char_traits@D@std@@V?$allocator@D@2@@2@_N_J_KNVallocator@2@Uadl_serializer@json_abi_v3_11_2@nlohmann@@V?$vector@EV?$allocator@E@std@@@2@@json_abi_v3_11_2@nlohmann@@@std@@PEAX@std@@SAXAEAV?$allocator@U?$_Tree_node@U?$pair@$$CBV?$basic_string@DU?$char_traits@D@std@@V?$allocator@D@2@@std@@V?$basic_json@Vmap@std@@Vvector@2@V?$basic_string@DU?$char_traits@D@std@@V?$allocator@D@2@@2@_N_J_KNVallocator@2@Uadl_serializer@json_abi_v3_11_2@nlohmann@@V?$vector@EV?$allocator@E@std@@@2@@json_abi_v3_11_2@nlohmann@@@std@@PEAX@std@@@1@PEAU01@@Z
        623  26E 0003FB70 ??$_Freenode@V?$allocator@U?$_List_node@U?$pair@$$CBHV?$unique_ptr@VBehaviorTree@pineBT@@U?$default_delete@VBehaviorTree@pineBT@@@std@@@std@@@std@@PEAX@std@@@std@@@?$_List_node@U?$pair@$$CBHV?$unique_ptr@VBehaviorTree@pineBT@@U?$default_delete@VBehaviorTree@pineBT@@@std@@@std@@@std@@PEAX@std@@SAXAEAV?$allocator@U?$_List_node@U?$pair@$$CBHV?$unique_ptr@VBehaviorTree@pineBT@@U?$default_delete@VBehaviorTree@pineBT@@@std@@@std@@@std@@PEAX@std@@@1@PEAU01@@Z
        624  26F 00021070 ??$_Freenode@V?$allocator@U?$_List_node@U?$pair@$$CBIW4Result@Behavior@pineBT@@@std@@PEAX@std@@@std@@@?$_List_node@U?$pair@$$CBIW4Result@Behavior@pineBT@@@std@@PEAX@std@@SAXAEAV?$allocator@U?$_List_node@U?$pair@$$CBIW4Result@Behavior@pineBT@@@std@@PEAX@std@@@1@PEAU01@@Z
        625  270 000041C0 ??$_Freenode@V?$allocator@U?$_List_node@U?$pair@$$CBV?$basic_string@DU?$char_traits@D@std@@V?$allocator@D@2@@std@@H@std@@PEAX@std@@@std@@@?$_List_node@U?$pair@$$CBV?$basic_string@DU?$char_traits@D@std@@V?$allocator@D@2@@std@@H@std@@PEAX@std@@SAXAEAV?$allocator@U?$_List_node@U?$pair@$$CBV?$basic_string@DU?$char_traits@D@std@@V?$allocator@D@2@@std@@H@std@@PEAX@std@@@1@PEAU01@@Z
        626  271 0000FB70 ??$_Freenode@V?$allocator@U?$_List_node@U?$pair@$$CBV?$basic_string@DU?$char_traits@D@std@@V?$allocator@D@2@@std@@UBehaviorSchema@pineBT@@@std@@PEAX@std@@@std@@@?$_List_node@U?$pair@$$CBV?$basic_string@DU?$char_traits@D@std@@V?$allocator@D@2@@std@@UBehaviorSchema@pineBT@@@std@@PEAX@std@@SAXAEAV?$allocator@U?$_List_node@U?$pair@$$CBV?$basic_string@DU?$char_traits@D@std@@V?$allocator@D@2@@std@@UBehaviorSchema@pineBT@@@std@@PEAX@std@@@1@PEAU01@@Z
        627  272 0000FBA0 ??$_Freenode@V?$allocator@U?$_List_node@U?$pair@$$CBV?$basic_string@DU?$char_traits@D@std@@V?$allocator@D@2@@std@@V?$function@$$A6APEAVBehavior@pineBT@@AEBV?$basic_string@DU?$char_traits@D@std@@V?$allocator@D@2@@std@@AEAVBehaviorTree@2@@Z@2@@std@@PEAX@std@@@std@@@?$_List_node@U?$pair@$$CBV?$basic_string@DU?$char_traits@D@std@@V?$allocator@D@2@@std@@V?$function@$$A6APEAVBehavior@pineBT@@AEBV?$basic_string@DU?$char_traits@D@std@@V?$allocator@D@2@@std@@AEAVBehaviorTree@2@@Z@2@@std@@PEAX@std@@SAXAEAV?$allocator@U?$_List_node@U?$pair@$$CBV?$basic_string@DU?$char_traits@D@std@@V?$allocator@D@2@@std@@V?$function@$$A6APEAVBehavior@pineBT@@AEBV?$basic_string@DU?$char_traits@D@std@@V?$allocator@D@2@@std@@AEAVBehaviorTree@2@@Z@2@@std@@PEAX@std@@@1@PEAU01@@Z
        628  273 0000FBD0 ??$_Freenode@V?$allocator@U?$_Tree_node@U?$pair@$$CBV?$basic_string@DU?$char_traits@D@std@@V?$allocator@D@2@@std@@V?$basic_json@Vmap@std@@Vvector@2@V?$basic_string@DU?$char_traits@D@std@@V?$allocator@D@2@@2@_N_J_KNVallocator@2@Uadl_serializer@json_abi_v3_11_2@nlohmann@@V?$vector@EV?$allocator@E@std@@@2@@json_abi_v3_11_2@nlohmann@@@std@@PEAX@std@@@std@@@?$_Tree_node@U?$pair@$$CBV?$basic_string@DU?$char_traits@D@std@@V?$allocator@D@2@@std@@V?$basic_json@Vmap@std@@Vvector@2@V?$basic_string@DU?$char_traits@D@std@@V?$allocator@D@2@@2@_N_J_KNVallocator@2@Uadl_serializer@json_abi_v3_11_2@nlohmann@@V?$vector@EV?$allocator@E@std@@@2@@json_abi_v3_11_2@nlohmann@@@std@@PEAX@std@@SAXAEAV?$allocator@U?$_Tree_node@U?$pair@$$CBV?$basic_string@DU?$char_traits@D@std@@V?$allocator@D@2@@std@@V?$basic_json@Vmap@std@@Vvector@2@V?$basic_string@DU?$char_traits@D@std@@V?$allocator@D@2@@2@_N_J_KNVallocator@2@Uadl_serializer@json_abi_v3_11_2@nlohmann@@V?$vector@EV?$allocator@E@std@@@2@@json_abi_v3_11_2@nlohmann@@@std@@PEAX@std@@@1@PEAU01@@Z
        629  274 0000FC00 ??$_Get_arg@V?$basic_format_context@V?$back_insert_iterator@V?$_Fmt_buffer@D@std@@@std@@D@std@@@std@@YA?AV?$basic_format_arg@V?$basic_format_context@V?$back_insert_iterator@V?$_Fmt_buffer@D@std@@@std@@D@std@@@0@AEBV?$basic_format_context@V?$back_insert_iterator@V?$_Fmt_buffer@D@std@@@std@@D@0@_K@Z
        630  275 0000FC30 ??$_Get_dynamic_specs@V_Precision_checker@std@@V?$basic_format_arg@V?$basic_format_context@V?$back_insert_iterator@V?$_Fmt_buffer@D@std@@@std@@D@std@@@2@@std@@YAHV?$basic_format_arg@V?$basic_format_context@V?$back_insert_iterator@V?$_Fmt_buffer@D@std@@@std@@D@std@@@0@@Z
        631  276 0000FDD0 ??$_Get_dynamic_specs@V_Width_checker@std@@V?$basic_format_arg@V?$basic_format_context@V?$back_insert_iterator@V?$_Fmt_buffer@D@std@@@std@@D@std@@@2@@std@@YAHV?$basic_format_arg@V?$basic_format_context@V?$back_insert_iterator@V?$_Fmt_buffer@D@std@@@std@@D@std@@@0@@Z
        632  277 00002190 ??$_Get_fmt_codec@D@std@@YA?AV?$_Fmt_codec@D$00@0@XZ
        633  278 0000FF70 ??$_Get_integral_prefix@D@std@@YA?AV?$basic_string_view@DU?$char_traits@D@std@@@0@DD@Z
        634  279 0000FF70 ??$_Get_integral_prefix@E@std@@YA?AV?$basic_string_view@DU?$char_traits@D@std@@@0@DE@Z
        635  27A 00010010 ??$_Get_integral_prefix@H@std@@YA?AV?$basic_string_view@DU?$char_traits@D@std@@@0@DH@Z
        636  27B 00010010 ??$_Get_integral_prefix@I@std@@YA?AV?$basic_string_view@DU?$char_traits@D@std@@@0@DI@Z
        637  27C 000100B0 ??$_Get_integral_prefix@_J@std@@YA?AV?$basic_string_view@DU?$char_traits@D@std@@@0@D_J@Z
        638  27D 000100B0 ??$_Get_integral_prefix@_K@std@@YA?AV?$basic_string_view@DU?$char_traits@D@std@@@0@D_K@Z
        639  27E 00002190 ??$_Get_size_of_n@$00@std@@YA_K_K@Z
        640  27F 0002FC20 ??$_Get_size_of_n@$03@std@@YA_K_K@Z
        641  280 00002DA0 ??$_Get_size_of_n@$07@std@@YA_K_K@Z
        642  281 00002DD0 ??$_Get_size_of_n@$0BA@@std@@YA_K_K@Z
        643  282 00010150 ??$_Get_size_of_n@$0BI@@std@@YA_K_K@Z
        644  283 00005F50 ??$_Get_size_of_n@$0CA@@std@@YA_K_K@Z
        645  284 00010180 ??$_Get_size_of_n@$0CI@@std@@YA_K_K@Z
        646  285 00004230 ??$_Get_size_of_n@$0DI@@std@@YA_K_K@Z
        647  286 000101B0 ??$_Get_size_of_n@$0FA@@std@@YA_K_K@Z
        648  287 000101E0 ??$_Get_size_of_n@$0HA@@std@@YA_K_K@Z
        649  288 00010210 ??$_Get_size_of_n@$0MI@@std@@YA_K_K@Z
        650  289 00002E00 ??$_Get_unwrapped@AEAPEAD@std@@YA?A_TAEAPEAD@Z
        651  28A 00002E00 ??$_Get_unwrapped@AEAPEBI@std@@YA?A_TAEAPEBI@Z
        652  28B 00002E00 ??$_Get_unwrapped@AEAPEB_K@std@@YA?A_TAEAPEB_K@Z
        653  28C 00002460 ??$_Get_unwrapped@AEAV?$_List_const_iterator@V?$_List_val@U?$_List_simple_types@U?$pair@$$CBV?$basic_string@DU?$char_traits@D@std@@V?$allocator@D@2@@std@@H@std@@@std@@@std@@@std@@@std@@YA?A_TAEAV?$_List_const_iterator@V?$_List_val@U?$_List_simple_types@U?$pair@$$CBV?$basic_string@DU?$char_traits@D@std@@V?$allocator@D@2@@std@@H@std@@@std@@@std@@@0@@Z
        654  28D 00002190 ??$_Get_unwrapped@AEAV?$_Vb_iterator@U?$_Wrap_alloc@V?$allocator@I@std@@@std@@@std@@@std@@YA?A_TAEAV?$_Vb_iterator@U?$_Wrap_alloc@V?$allocator@I@std@@@std@@@0@@Z
        655  28E 00002E00 ??$_Get_unwrapped@AEAV?$_Vector_const_iterator@V?$_Vector_val@U?$_Simple_types@V?$basic_string@DU?$char_traits@D@std@@V?$allocator@D@2@@std@@@std@@@std@@@std@@@std@@YA?A_TAEAV?$_Vector_const_iterator@V?$_Vector_val@U?$_Simple_types@V?$basic_string@DU?$char_traits@D@std@@V?$allocator@D@2@@std@@@std@@@std@@@0@@Z
        656  28F 00002E00 ??$_Get_unwrapped@AEAV?$_Vector_iterator@V?$_Vector_val@U?$_Simple_types@V?$basic_json@Vmap@std@@Vvector@2@V?$basic_string@DU?$char_traits@D@std@@V?$allocator@D@2@@2@_N_J_KNVallocator@2@Uadl_serializer@json_abi_v3_11_2@nlohmann@@V?$vector@EV?$allocator@E@std@@@2@@json_abi_v3_11_2@nlohmann@@@std@@@std@@@std@@@std@@YA?A_TAEAV?$_Vector_iterator@V?$_Vector_val@U?$_Simple_types@V?$basic_json@Vmap@std@@Vvector@2@V?$basic_string@DU?$char_traits@D@std@@V?$allocator@D@2@@2@_N_J_KNVallocator@2@Uadl_serializer@json_abi_v3_11_2@nlohmann@@V?$vector@EV?$allocator@E@std@@@2@@json_abi_v3_11_2@nlohmann@@@std@@@std@@@0@@Z
        657  290 00002E00 ??$_Get_unwrapped@AEBQEAD@std@@YA?A_TAEBQEAD@Z
        658  291 00002E00 ??$_Get_unwrapped@AEBQEAI@std@@YA?A_TAEBQEAI@Z
        659  292 00002E00 ??$_Get_unwrapped@AEBQEAPEAPEAVBehavior@pineBT@@@std@@YA?A_TAEBQEAPEAPEAVBehavior@pineBT@@@Z
        660  293 00002E00 ??$_Get_unwrapped@AEBQEAPEAV?$basic_json@Vmap@std@@Vvector@2@V?$basic_string@DU?$char_traits@D@std@@V?$allocator@D@2@@2@_N_J_KNVallocator@2@Uadl_serializer@json_abi_v3_11_2@nlohmann@@V?$vector@EV?$allocator@E@std@@@2@@json_abi_v3_11_2@nlohmann@@@std@@YA?A_TAEBQEAPEAV?$basic_json@Vmap@std@@Vvector@2@V?$basic_string@DU?$char_traits@D@std@@V?$allocator@D@2@@2@_N_J_KNVallocator@2@Uadl_serializer@json_abi_v3_11_2@nlohmann@@V?$vector@EV?$allocator@E@std@@@2@@json_abi_v3_11_2@nlohmann@@@Z
        661  294 00002E00 ??$_Get_unwrapped@AEBQEAPEAV?$unique_ptr@UBehaviorTreeBuilderContext@pineBT@@U?$default_delete@UBehaviorTreeBuilderContext@pineBT@@@std@@@std@@@std@@YA?A_TAEBQEAPEAV?$unique_ptr@UBehaviorTreeBuilderContext@pineBT@@U?$default_delete@UBehaviorTreeBuilderContext@pineBT@@@std@@@0@@Z
        662  295 00002E00 ??$_Get_unwrapped@AEBQEAPEAVBehavior@pineBT@@@std@@YA?A_TAEBQEAPEAVBehavior@pineBT@@@Z
        663  296 00002E00 ??$_Get_unwrapped@AEBQEAV?$_List_unchecked_iterator@V?$_List_val@U?$_List_simple_types@U?$pair@$$CBHV?$unique_ptr@VBehaviorTree@pineBT@@U?$default_delete@VBehaviorTree@pineBT@@@std@@@std@@@std@@@std@@@std@@@std@@@std@@YA?A_TAEBQEAV?$_List_unchecked_iterator@V?$_List_val@U?$_List_simple_types@U?$pair@$$CBHV?$unique_ptr@VBehaviorTree@pineBT@@U?$default_delete@VBehaviorTree@pineBT@@@std@@@std@@@std@@@std@@@std@@@0@@Z
        664  297 00002E00 ??$_Get_unwrapped@AEBQEAV?$_List_unchecked_iterator@V?$_List_val@U?$_List_simple_types@U?$pair@$$CBIW4Result@Behavior@pineBT@@@std@@@std@@@std@@@std@@@std@@YA?A_TAEBQEAV?$_List_unchecked_iterator@V?$_List_val@U?$_List_simple_types@U?$pair@$$CBIW4Result@Behavior@pineBT@@@std@@@std@@@std@@@0@@Z
        665  298 00002E00 ??$_Get_unwrapped@AEBQEAV?$_List_unchecked_iterator@V?$_List_val@U?$_List_simple_types@U?$pair@$$CBV?$basic_string@DU?$char_traits@D@std@@V?$allocator@D@2@@std@@H@std@@@std@@@std@@@std@@@std@@YA?A_TAEBQEAV?$_List_unchecked_iterator@V?$_List_val@U?$_List_simple_types@U?$pair@$$CBV?$basic_string@DU?$char_traits@D@std@@V?$allocator@D@2@@std@@H@std@@@std@@@std@@@0@@Z
        666  299 00002E00 ??$_Get_unwrapped@AEBQEAV?$_List_unchecked_iterator@V?$_List_val@U?$_List_simple_types@U?$pair@$$CBV?$basic_string@DU?$char_traits@D@std@@V?$allocator@D@2@@std@@UBehaviorSchema@pineBT@@@std@@@std@@@std@@@std@@@std@@YA?A_TAEBQEAV?$_List_unchecked_iterator@V?$_List_val@U?$_List_simple_types@U?$pair@$$CBV?$basic_string@DU?$char_traits@D@std@@V?$allocator@D@2@@std@@UBehaviorSchema@pineBT@@@std@@@std@@@std@@@0@@Z
        667  29A 00002E00 ??$_Get_unwrapped@AEBQEAV?$_List_unchecked_iterator@V?$_List_val@U?$_List_simple_types@U?$pair@$$CBV?$basic_string@DU?$char_traits@D@std@@V?$allocator@D@2@@std@@V?$function@$$A6APEAVBehavior@pineBT@@AEBV?$basic_string@DU?$char_traits@D@std@@V?$allocator@D@2@@std@@AEAVBehaviorTree@2@@Z@2@@std@@@std@@@std@@@std@@@std@@YA?A_TAEBQEAV?$_List_unchecked_iterator@V?$_List_val@U?$_List_simple_types@U?$pair@$$CBV?$basic_string@DU?$char_traits@D@std@@V?$allocator@D@2@@std@@V?$function@$$A6APEAVBehavior@pineBT@@AEBV?$basic_string@DU?$char_traits@D@std@@V?$allocator@D@2@@std@@AEAVBehaviorTree@2@@Z@2@@std@@@std@@@std@@@0@@Z
        668  29B 00002E00 ??$_Get_unwrapped@AEBQEAV?$basic_json@Vmap@std@@Vvector@2@V?$basic_string@DU?$char_traits@D@std@@V?$allocator@D@2@@2@_N_J_KNVallocator@2@Uadl_serializer@json_abi_v3_11_2@nlohmann@@V?$vector@EV?$allocator@E@std@@@2@@json_abi_v3_11_2@nlohmann@@@std@@YA?A_TAEBQEAV?$basic_json@Vmap@std@@Vvector@2@V?$basic_string@DU?$char_traits@D@std@@V?$allocator@D@2@@2@_N_J_KNVallocator@2@Uadl_serializer@json_abi_v3_11_2@nlohmann@@V?$vector@EV?$allocator@E@std@@@2@@json_abi_v3_11_2@nlohmann@@@Z
        669  29C 00002E00 ??$_Get_unwrapped@AEBQEAV?$basic_string@DU?$char_traits@D@std@@V?$allocator@D@2@@std@@@std@@YA?A_TAEBQEAV?$basic_string@DU?$char_traits@D@std@@V?$allocator@D@2@@0@@Z
        670  29D 00002E00 ??$_Get_unwrapped@AEBQEBI@std@@YA?A_TAEBQEBI@Z
        671  29E 00002E00 ??$_Get_unwrapped@AEBQEB_K@std@@YA?A_TAEBQEB_K@Z
        672  29F 00002E00 ??$_Get_unwrapped@PEAV?$basic_string@DU?$char_traits@D@std@@V?$allocator@D@2@@std@@@std@@YA?A_T$$QEAPEAV?$basic_string@DU?$char_traits@D@std@@V?$allocator@D@2@@0@@Z
        673  2A0 00002E00 ??$_Get_unwrapped@PEBV?$basic_string@DU?$char_traits@D@std@@V?$allocator@D@2@@std@@@std@@YA?A_T$$QEAPEBV?$basic_string@DU?$char_traits@D@std@@V?$allocator@D@2@@0@@Z
        674  2A1 00002E00 ??$_Get_unwrapped_n@AEAPEADH@std@@YA?A_TAEAPEADH@Z
        675  2A2 00002E00 ??$_Get_unwrapped_n@AEAPEADI@std@@YA?A_TAEAPEADI@Z
        676  2A3 00002E00 ??$_Get_unwrapped_n@AEAPEAPEAPEAVBehavior@pineBT@@_J@std@@YA?A_TAEAPEAPEAPEAVBehavior@pineBT@@_J@Z
        677  2A4 00002E00 ??$_Get_unwrapped_n@AEAPEAPEAV?$unique_ptr@UBehaviorTreeBuilderContext@pineBT@@U?$default_delete@UBehaviorTreeBuilderContext@pineBT@@@std@@@std@@_J@std@@YA?A_TAEAPEAPEAV?$unique_ptr@UBehaviorTreeBuilderContext@pineBT@@U?$default_delete@UBehaviorTreeBuilderContext@pineBT@@@std@@@0@_J@Z
        678  2A5 00002190 ??$_Get_unwrapped_n@AEAV?$_Vb_iterator@U?$_Wrap_alloc@V?$allocator@I@std@@@std@@@std@@_J@std@@YA?A_TAEAV?$_Vb_iterator@U?$_Wrap_alloc@V?$allocator@I@std@@@std@@@0@_J@Z
        679  2A6 00002190 ??$_Get_unwrapped_n@AEAV?$back_insert_iterator@V?$vector@V?$basic_json@Vmap@std@@Vvector@2@V?$basic_string@DU?$char_traits@D@std@@V?$allocator@D@2@@2@_N_J_KNVallocator@2@Uadl_serializer@json_abi_v3_11_2@nlohmann@@V?$vector@EV?$allocator@E@std@@@2@@json_abi_v3_11_2@nlohmann@@V?$allocator@V?$basic_json@Vmap@std@@Vvector@2@V?$basic_string@DU?$char_traits@D@std@@V?$allocator@D@2@@2@_N_J_KNVallocator@2@Uadl_serializer@json_abi_v3_11_2@nlohmann@@V?$vector@EV?$allocator@E@std@@@2@@json_abi_v3_11_2@nlohmann@@@std@@@std@@@std@@_J@std@@YA?A_TAEAV?$back_insert_iterator@V?$vector@V?$basic_json@Vmap@std@@Vvector@2@V?$basic_string@DU?$char_traits@D@std@@V?$allocator@D@2@@2@_N_J_KNVallocator@2@Uadl_serializer@json_abi_v3_11_2@nlohmann@@V?$vector@EV?$allocator@E@std@@@2@@json_abi_v3_11_2@nlohmann@@V?$allocator@V?$basic_json@Vmap@std@@Vvector@2@V?$basic_string@DU?$char_traits@D@std@@V?$allocator@D@2@@2@_N_J_KNVallocator@2@Uadl_serializer@json_abi_v3_11_2@nlohmann@@V?$vector@EV?$allocator@E@std@@@2@@json_abi_v3_11_2@nlohmann@@@std@@@std@@@0@_J@Z
        680  2A7 00002460 ??$_Get_unwrapped_n@V?$_Tree_iterator@V?$_Tree_val@U?$_Tree_simple_types@U?$pair@$$CBV?$basic_string@DU?$char_traits@D@std@@V?$allocator@D@2@@std@@V?$basic_json@Vmap@std@@Vvector@2@V?$basic_string@DU?$char_traits@D@std@@V?$allocator@D@2@@2@_N_J_KNVallocator@2@Uadl_serializer@json_abi_v3_11_2@nlohmann@@V?$vector@EV?$allocator@E@std@@@2@@json_abi_v3_11_2@nlohmann@@@std@@@std@@@std@@@std@@H@std@@YA?A_T$$QEAV?$_Tree_iterator@V?$_Tree_val@U?$_Tree_simple_types@U?$pair@$$CBV?$basic_string@DU?$char_traits@D@std@@V?$allocator@D@2@@std@@V?$basic_json@Vmap@std@@Vvector@2@V?$basic_string@DU?$char_traits@D@std@@V?$allocator@D@2@@2@_N_J_KNVallocator@2@Uadl_serializer@json_abi_v3_11_2@nlohmann@@V?$vector@EV?$allocator@E@std@@@2@@json_abi_v3_11_2@nlohmann@@@std@@@std@@@std@@@0@H@Z
        681  2A8 00002190 ??$_Get_unwrapped_n@V?$back_insert_iterator@V?$_Fmt_buffer@D@std@@@std@@_J@std@@YA?A_T$$QEAV?$back_insert_iterator@V?$_Fmt_buffer@D@std@@@0@_J@Z
        682  2A9 0000AC80 ??$_Get_value_from_memory@D@?$basic_format_args@V?$basic_format_context@V?$back_insert_iterator@V?$_Fmt_buffer@D@std@@@std@@D@std@@@std@@CA?A_PQEBE@Z
        683  2AA 0000AC90 ??$_Get_value_from_memory@H@?$basic_format_args@V?$basic_format_context@V?$back_insert_iterator@V?$_Fmt_buffer@D@std@@@std@@D@std@@@std@@CA?A_PQEBE@Z
        684  2AB 0000AC90 ??$_Get_value_from_memory@I@?$basic_format_args@V?$basic_format_context@V?$back_insert_iterator@V?$_Fmt_buffer@D@std@@@std@@D@std@@@std@@CA?A_PQEBE@Z
        685  2AC 000084C0 ??$_Get_value_from_memory@M@?$basic_format_args@V?$basic_format_context@V?$back_insert_iterator@V?$_Fmt_buffer@D@std@@@std@@D@std@@@std@@CA?A_PQEBE@Z
        686  2AD 00010240 ??$_Get_value_from_memory@N@?$basic_format_args@V?$basic_format_context@V?$back_insert_iterator@V?$_Fmt_buffer@D@std@@@std@@D@std@@@std@@CA?A_PQEBE@Z
        687  2AE 00010240 ??$_Get_value_from_memory@O@?$basic_format_args@V?$basic_format_context@V?$back_insert_iterator@V?$_Fmt_buffer@D@std@@@std@@D@std@@@std@@CA?A_PQEBE@Z
        688  2AF 00002E00 ??$_Get_value_from_memory@PEBD@?$basic_format_args@V?$basic_format_context@V?$back_insert_iterator@V?$_Fmt_buffer@D@std@@@std@@D@std@@@std@@CA?A_PQEBE@Z
        689  2B0 00002E00 ??$_Get_value_from_memory@PEBX@?$basic_format_args@V?$basic_format_context@V?$back_insert_iterator@V?$_Fmt_buffer@D@std@@@std@@D@std@@@std@@CA?A_PQEBE@Z
        690  2B1 0000ACC0 ??$_Get_value_from_memory@V?$basic_string_view@DU?$char_traits@D@std@@@std@@@?$basic_format_args@V?$basic_format_context@V?$back_insert_iterator@V?$_Fmt_buffer@D@std@@@std@@D@std@@@std@@CA?A_PQEBE@Z
        691  2B2 0000ACC0 ??$_Get_value_from_memory@Vhandle@?$basic_format_arg@V?$basic_format_context@V?$back_insert_iterator@V?$_Fmt_buffer@D@std@@@std@@D@std@@@std@@@?$basic_format_args@V?$basic_format_context@V?$back_insert_iterator@V?$_Fmt_buffer@D@std@@@std@@D@std@@@std@@CA?A_PQEBE@Z
        692  2B3 00002E00 ??$_Get_value_from_memory@_J@?$basic_format_args@V?$basic_format_context@V?$back_insert_iterator@V?$_Fmt_buffer@D@std@@@std@@D@std@@@std@@CA?A_PQEBE@Z
        693  2B4 00002E00 ??$_Get_value_from_memory@_K@?$basic_format_args@V?$basic_format_context@V?$back_insert_iterator@V?$_Fmt_buffer@D@std@@@std@@D@std@@@std@@CA?A_PQEBE@Z
        694  2B5 0000AC80 ??$_Get_value_from_memory@_N@?$basic_format_args@V?$basic_format_context@V?$back_insert_iterator@V?$_Fmt_buffer@D@std@@@std@@D@std@@@std@@CA?A_PQEBE@Z
        695  2B6 00010250 ??$_Getvals@D@?$numpunct@D@std@@IEAAXDPEBUlconv@@U_Cvtvec@@@Z
        696  2B7 000021F0 ??$_Getvals@_W@?$time_get@DV?$istreambuf_iterator@DU?$char_traits@D@std@@@std@@@std@@IEAAX_WAEBV_Locinfo@1@@Z
        697  2B8 000021F0 ??$_Getvals@_W@?$time_get@_WV?$istreambuf_iterator@_WU?$char_traits@_W@std@@@std@@@std@@IEAAX_WAEBV_Locinfo@1@@Z
        698  2B9 00005F80 ??$_Hash_array_representation@D@std@@YA_KQEBD_K@Z
        699  2BA 0002C550 ??$_Hash_representation@H@std@@YA_KAEBH@Z
        700  2BB 0002C550 ??$_Hash_representation@I@std@@YA_KAEBI@Z
        701  2BC 00002E10 ??$_Idl_distance@PEAPEAPEAVBehavior@pineBT@@PEAPEAPEAV12@@std@@YA?A_PAEBQEAPEAPEAVBehavior@pineBT@@0@Z
        702  2BD 00002E10 ??$_Idl_distance@PEAPEAV?$unique_ptr@UBehaviorTreeBuilderContext@pineBT@@U?$default_delete@UBehaviorTreeBuilderContext@pineBT@@@std@@@std@@PEAPEAV12@@std@@YA?A_PAEBQEAPEAV?$unique_ptr@UBehaviorTreeBuilderContext@pineBT@@U?$default_delete@UBehaviorTreeBuilderContext@pineBT@@@std@@@0@0@Z
        703  2BE 0002FC50 ??$_Idl_distance@V?$_Vb_iterator@U?$_Wrap_alloc@V?$allocator@I@std@@@std@@@std@@V12@@std@@YA?A_PAEBV?$_Vb_iterator@U?$_Wrap_alloc@V?$allocator@I@std@@@std@@@0@0@Z
        704  2BF 00010270 ??$_Idl_distance@V?$_Vector_iterator@V?$_Vector_val@U?$_Simple_types@V?$basic_json@Vmap@std@@Vvector@2@V?$basic_string@DU?$char_traits@D@std@@V?$allocator@D@2@@2@_N_J_KNVallocator@2@Uadl_serializer@json_abi_v3_11_2@nlohmann@@V?$vector@EV?$allocator@E@std@@@2@@json_abi_v3_11_2@nlohmann@@@std@@@std@@@std@@PEAV?$basic_json@Vmap@std@@Vvector@2@V?$basic_string@DU?$char_traits@D@std@@V?$allocator@D@2@@2@_N_J_KNVallocator@2@Uadl_serializer@json_abi_v3_11_2@nlohmann@@V?$vector@EV?$allocator@E@std@@@2@@json_abi_v3_11_2@nlohmann@@@std@@YA?A_PAEBQEAV?$basic_json@Vmap@std@@Vvector@2@V?$basic_string@DU?$char_traits@D@std@@V?$allocator@D@2@@2@_N_J_KNVallocator@2@Uadl_serializer@json_abi_v3_11_2@nlohmann@@V?$vector@EV?$allocator@E@std@@@2@@json_abi_v3_11_2@nlohmann@@0@Z
        705  2C0 0000B510 ??$_In_bounds@DD@std@@YA_ND@Z
        706  2C1 00010280 ??$_In_bounds@DE@std@@YA_NE@Z
        707  2C2 00010290 ??$_In_bounds@DH@std@@YA_NH@Z
        708  2C3 000102A0 ??$_In_bounds@DI@std@@YA_NI@Z
        709  2C4 000102B0 ??$_In_bounds@D_J@std@@YA_N_J@Z
        710  2C5 000102D0 ??$_In_bounds@D_K@std@@YA_N_K@Z
        711  2C6 00005FC0 ??$_Insert_counted_range@PEBV?$basic_string@DU?$char_traits@D@std@@V?$allocator@D@2@@std@@@?$vector@V?$basic_string@DU?$char_traits@D@std@@V?$allocator@D@2@@std@@V?$allocator@V?$basic_string@DU?$char_traits@D@std@@V?$allocator@D@2@@std@@@2@@std@@AEAAXV?$_Vector_const_iterator@V?$_Vector_val@U?$_Simple_types@V?$basic_string@DU?$char_traits@D@std@@V?$allocator@D@2@@std@@@std@@@std@@@1@PEBV?$basic_string@DU?$char_traits@D@std@@V?$allocator@D@2@@1@_K@Z
        712  2C7 00006340 ??$_Insert_range_unchecked@V?$_List_unchecked_const_iterator@V?$_List_val@U?$_List_simple_types@U?$pair@$$CBV?$basic_string@DU?$char_traits@D@std@@V?$allocator@D@2@@std@@H@std@@@std@@@std@@U_Iterator_base0@2@@std@@V12@@?$_Hash@V?$_Umap_traits@V?$basic_string@DU?$char_traits@D@std@@V?$allocator@D@2@@std@@HV?$_Uhash_compare@V?$basic_string@DU?$char_traits@D@std@@V?$allocator@D@2@@std@@U?$hash@V?$basic_string@DU?$char_traits@D@std@@V?$allocator@D@2@@std@@@2@U?$equal_to@V?$basic_string@DU?$char_traits@D@std@@V?$allocator@D@2@@std@@@2@@2@V?$allocator@U?$pair@$$CBV?$basic_string@DU?$char_traits@D@std@@V?$allocator@D@2@@std@@H@std@@@2@$0A@@std@@@std@@IEAAXV?$_List_unchecked_const_iterator@V?$_List_val@U?$_List_simple_types@U?$pair@$$CBV?$basic_string@DU?$char_traits@D@std@@V?$allocator@D@2@@std@@H@std@@@std@@@std@@U_Iterator_base0@2@@1@V21@@Z
        713  2C8 000102E0 ??$_Integer_to_chars@D@std@@YA?AUto_chars_result@0@PEADQEADDH@Z
        714  2C9 00010530 ??$_Integer_to_chars@E@std@@YA?AUto_chars_result@0@PEADQEADEH@Z
        715  2CA 00010750 ??$_Integer_to_chars@H@std@@YA?AUto_chars_result@0@PEADQEADHH@Z
        716  2CB 00010980 ??$_Integer_to_chars@I@std@@YA?AUto_chars_result@0@PEADQEADIH@Z
        717  2CC 00010B90 ??$_Integer_to_chars@_J@std@@YA?AUto_chars_result@0@PEADQEAD_JH@Z
        718  2CD 00010DE0 ??$_Integer_to_chars@_K@std@@YA?AUto_chars_result@0@PEADQEAD_KH@Z
        719  2CE 00011000 ??$_Integral_to_string@DH@std@@YA?AV?$basic_string@DU?$char_traits@D@std@@V?$allocator@D@2@@0@H@Z
        720  2CF 0002FC70 ??$_Is_all_bits_zero@I@std@@YA_NAEBI@Z
        721  2D0 00002190 ??$_Kfn@$$CBHV?$unique_ptr@VBehaviorTree@pineBT@@U?$default_delete@VBehaviorTree@pineBT@@@std@@@std@@@?$_Umap_traits@HV?$unique_ptr@VBehaviorTree@pineBT@@U?$default_delete@VBehaviorTree@pineBT@@@std@@@std@@V?$_Uhash_compare@HU?$hash@H@std@@U?$equal_to@H@2@@2@V?$allocator@U?$pair@$$CBHV?$unique_ptr@VBehaviorTree@pineBT@@U?$default_delete@VBehaviorTree@pineBT@@@std@@@std@@@std@@@2@$0A@@std@@SAAEBHAEBU?$pair@$$CBHV?$unique_ptr@VBehaviorTree@pineBT@@U?$default_delete@VBehaviorTree@pineBT@@@std@@@std@@@1@@Z
        722  2D1 00002190 ??$_Kfn@$$CBIW4Result@Behavior@pineBT@@@?$_Umap_traits@IW4Result@Behavior@pineBT@@V?$_Uhash_compare@IU?$hash@I@std@@U?$equal_to@I@2@@std@@V?$allocator@U?$pair@$$CBIW4Result@Behavior@pineBT@@@std@@@5@$0A@@std@@SAAEBIAEBU?$pair@$$CBIW4Result@Behavior@pineBT@@@1@@Z
        723  2D2 00002190 ??$_Kfn@$$CBV?$basic_string@DU?$char_traits@D@std@@V?$allocator@D@2@@std@@H@?$_Umap_traits@V?$basic_string@DU?$char_traits@D@std@@V?$allocator@D@2@@std@@HV?$_Uhash_compare@V?$basic_string@DU?$char_traits@D@std@@V?$allocator@D@2@@std@@U?$hash@V?$basic_string@DU?$char_traits@D@std@@V?$allocator@D@2@@std@@@2@U?$equal_to@V?$basic_string@DU?$char_traits@D@std@@V?$allocator@D@2@@std@@@2@@2@V?$allocator@U?$pair@$$CBV?$basic_string@DU?$char_traits@D@std@@V?$allocator@D@2@@std@@H@std@@@2@$0A@@std@@SAAEBV?$basic_string@DU?$char_traits@D@std@@V?$allocator@D@2@@1@AEBU?$pair@$$CBV?$basic_string@DU?$char_traits@D@std@@V?$allocator@D@2@@std@@H@1@@Z
        724  2D3 00002190 ??$_Kfn@$$CBV?$basic_string@DU?$char_traits@D@std@@V?$allocator@D@2@@std@@UBehaviorSchema@pineBT@@@?$_Umap_traits@V?$basic_string@DU?$char_traits@D@std@@V?$allocator@D@2@@std@@UBehaviorSchema@pineBT@@V?$_Uhash_compare@V?$basic_string@DU?$char_traits@D@std@@V?$allocator@D@2@@std@@U?$hash@V?$basic_string@DU?$char_traits@D@std@@V?$allocator@D@2@@std@@@2@U?$equal_to@V?$basic_string@DU?$char_traits@D@std@@V?$allocator@D@2@@std@@@2@@2@V?$allocator@U?$pair@$$CBV?$basic_string@DU?$char_traits@D@std@@V?$allocator@D@2@@std@@UBehaviorSchema@pineBT@@@std@@@2@$0A@@std@@SAAEBV?$basic_string@DU?$char_traits@D@std@@V?$allocator@D@2@@1@AEBU?$pair@$$CBV?$basic_string@DU?$char_traits@D@std@@V?$allocator@D@2@@std@@UBehaviorSchema@pineBT@@@1@@Z
        725  2D4 00002190 ??$_Kfn@$$CBV?$basic_string@DU?$char_traits@D@std@@V?$allocator@D@2@@std@@V?$basic_json@Vmap@std@@Vvector@2@V?$basic_string@DU?$char_traits@D@std@@V?$allocator@D@2@@2@_N_J_KNVallocator@2@Uadl_serializer@json_abi_v3_11_2@nlohmann@@V?$vector@EV?$allocator@E@std@@@2@@json_abi_v3_11_2@nlohmann@@@?$_Tmap_traits@V?$basic_string@DU?$char_traits@D@std@@V?$allocator@D@2@@std@@V?$basic_json@Vmap@std@@Vvector@2@V?$basic_string@DU?$char_traits@D@std@@V?$allocator@D@2@@2@_N_J_KNVallocator@2@Uadl_serializer@json_abi_v3_11_2@nlohmann@@V?$vector@EV?$allocator@E@std@@@2@@json_abi_v3_11_2@nlohmann@@U?$less@X@2@V?$allocator@U?$pair@$$CBV?$basic_string@DU?$char_traits@D@std@@V?$allocator@D@2@@std@@V?$basic_json@Vmap@std@@Vvector@2@V?$basic_string@DU?$char_traits@D@std@@V?$allocator@D@2@@2@_N_J_KNVallocator@2@Uadl_serializer@json_abi_v3_11_2@nlohmann@@V?$vector@EV?$allocator@E@std@@@2@@json_abi_v3_11_2@nlohmann@@@std@@@2@$0A@@std@@SAAEBV?$basic_string@DU?$char_traits@D@std@@V?$allocator@D@2@@1@AEBU?$pair@$$CBV?$basic_string@DU?$char_traits@D@std@@V?$allocator@D@2@@std@@V?$basic_json@Vmap@std@@Vvector@2@V?$basic_string@DU?$char_traits@D@std@@V?$allocator@D@2@@2@_N_J_KNVallocator@2@Uadl_serializer@json_abi_v3_11_2@nlohmann@@V?$vector@EV?$allocator@E@std@@@2@@json_abi_v3_11_2@nlohmann@@@1@@Z
        726  2D5 00002190 ??$_Kfn@$$CBV?$basic_string@DU?$char_traits@D@std@@V?$allocator@D@2@@std@@V?$function@$$A6APEAVBehavior@pineBT@@AEBV?$basic_string@DU?$char_traits@D@std@@V?$allocator@D@2@@std@@AEAVBehaviorTree@2@@Z@2@@?$_Umap_traits@V?$basic_string@DU?$char_traits@D@std@@V?$allocator@D@2@@std@@V?$function@$$A6APEAVBehavior@pineBT@@AEBV?$basic_string@DU?$char_traits@D@std@@V?$allocator@D@2@@std@@AEAVBehaviorTree@2@@Z@2@V?$_Uhash_compare@V?$basic_string@DU?$char_traits@D@std@@V?$allocator@D@2@@std@@U?$hash@V?$basic_string@DU?$char_traits@D@std@@V?$allocator@D@2@@std@@@2@U?$equal_to@V?$basic_string@DU?$char_traits@D@std@@V?$allocator@D@2@@std@@@2@@2@V?$allocator@U?$pair@$$CBV?$basic_string@DU?$char_traits@D@std@@V?$allocator@D@2@@std@@V?$function@$$A6APEAVBehavior@pineBT@@AEBV?$basic_string@DU?$char_traits@D@std@@V?$allocator@D@2@@std@@AEAVBehaviorTree@2@@Z@2@@std@@@2@$0A@@std@@SAAEBV?$basic_string@DU?$char_traits@D@std@@V?$allocator@D@2@@1@AEBU?$pair@$$CBV?$basic_string@DU?$char_traits@D@std@@V?$allocator@D@2@@std@@V?$function@$$A6APEAVBehavior@pineBT@@AEBV?$basic_string@DU?$char_traits@D@std@@V?$allocator@D@2@@std@@AEAVBehaviorTree@2@@Z@2@@1@@Z
        727  2D6 000110D0 ??$_Large_integer_to_chars@D@std@@YA?AU?$pair@PEADW4errc@std@@@0@QEAD0IH@Z
        728  2D7 0002FC80 ??$_Lower_bound_duplicate@$$BY02D@?$_Tree@V?$_Tmap_traits@V?$basic_string@DU?$char_traits@D@std@@V?$allocator@D@2@@std@@V?$basic_json@Vmap@std@@Vvector@2@V?$basic_string@DU?$char_traits@D@std@@V?$allocator@D@2@@2@_N_J_KNVallocator@2@Uadl_serializer@json_abi_v3_11_2@nlohmann@@V?$vector@EV?$allocator@E@std@@@2@@json_abi_v3_11_2@nlohmann@@U?$less@X@2@V?$allocator@U?$pair@$$CBV?$basic_string@DU?$char_traits@D@std@@V?$allocator@D@2@@std@@V?$basic_json@Vmap@std@@Vvector@2@V?$basic_string@DU?$char_traits@D@std@@V?$allocator@D@2@@2@_N_J_KNVallocator@2@Uadl_serializer@json_abi_v3_11_2@nlohmann@@V?$vector@EV?$allocator@E@std@@@2@@json_abi_v3_11_2@nlohmann@@@std@@@2@$0A@@std@@@std@@IEBA_NQEAU?$_Tree_node@U?$pair@$$CBV?$basic_string@DU?$char_traits@D@std@@V?$allocator@D@2@@std@@V?$basic_json@Vmap@std@@Vvector@2@V?$basic_string@DU?$char_traits@D@std@@V?$allocator@D@2@@2@_N_J_KNVallocator@2@Uadl_serializer@json_abi_v3_11_2@nlohmann@@V?$vector@EV?$allocator@E@std@@@2@@json_abi_v3_11_2@nlohmann@@@std@@PEAX@1@AEAY02$$CBD@Z
        729  2D8 0002FC80 ??$_Lower_bound_duplicate@$$BY04D@?$_Tree@V?$_Tmap_traits@V?$basic_string@DU?$char_traits@D@std@@V?$allocator@D@2@@std@@V?$basic_json@Vmap@std@@Vvector@2@V?$basic_string@DU?$char_traits@D@std@@V?$allocator@D@2@@2@_N_J_KNVallocator@2@Uadl_serializer@json_abi_v3_11_2@nlohmann@@V?$vector@EV?$allocator@E@std@@@2@@json_abi_v3_11_2@nlohmann@@U?$less@X@2@V?$allocator@U?$pair@$$CBV?$basic_string@DU?$char_traits@D@std@@V?$allocator@D@2@@std@@V?$basic_json@Vmap@std@@Vvector@2@V?$basic_string@DU?$char_traits@D@std@@V?$allocator@D@2@@2@_N_J_KNVallocator@2@Uadl_serializer@json_abi_v3_11_2@nlohmann@@V?$vector@EV?$allocator@E@std@@@2@@json_abi_v3_11_2@nlohmann@@@std@@@2@$0A@@std@@@std@@IEBA_NQEAU?$_Tree_node@U?$pair@$$CBV?$basic_string@DU?$char_traits@D@std@@V?$allocator@D@2@@std@@V?$basic_json@Vmap@std@@Vvector@2@V?$basic_string@DU?$char_traits@D@std@@V?$allocator@D@2@@2@_N_J_KNVallocator@2@Uadl_serializer@json_abi_v3_11_2@nlohmann@@V?$vector@EV?$allocator@E@std@@@2@@json_abi_v3_11_2@nlohmann@@@std@@PEAX@1@AEAY04$$CBD@Z
        730  2D9 0002FC80 ??$_Lower_bound_duplicate@$$BY06D@?$_Tree@V?$_Tmap_traits@V?$basic_string@DU?$char_traits@D@std@@V?$allocator@D@2@@std@@V?$basic_json@Vmap@std@@Vvector@2@V?$basic_string@DU?$char_traits@D@std@@V?$allocator@D@2@@2@_N_J_KNVallocator@2@Uadl_serializer@json_abi_v3_11_2@nlohmann@@V?$vector@EV?$allocator@E@std@@@2@@json_abi_v3_11_2@nlohmann@@U?$less@X@2@V?$allocator@U?$pair@$$CBV?$basic_string@DU?$char_traits@D@std@@V?$allocator@D@2@@std@@V?$basic_json@Vmap@std@@Vvector@2@V?$basic_string@DU?$char_traits@D@std@@V?$allocator@D@2@@2@_N_J_KNVallocator@2@Uadl_serializer@json_abi_v3_11_2@nlohmann@@V?$vector@EV?$allocator@E@std@@@2@@json_abi_v3_11_2@nlohmann@@@std@@@2@$0A@@std@@@std@@IEBA_NQEAU?$_Tree_node@U?$pair@$$CBV?$basic_string@DU?$char_traits@D@std@@V?$allocator@D@2@@std@@V?$basic_json@Vmap@std@@Vvector@2@V?$basic_string@DU?$char_traits@D@std@@V?$allocator@D@2@@2@_N_J_KNVallocator@2@Uadl_serializer@json_abi_v3_11_2@nlohmann@@V?$vector@EV?$allocator@E@std@@@2@@json_abi_v3_11_2@nlohmann@@@std@@PEAX@1@AEAY06$$CBD@Z
        731  2DA 0002FC80 ??$_Lower_bound_duplicate@$$BY07D@?$_Tree@V?$_Tmap_traits@V?$basic_string@DU?$char_traits@D@std@@V?$allocator@D@2@@std@@V?$basic_json@Vmap@std@@Vvector@2@V?$basic_string@DU?$char_traits@D@std@@V?$allocator@D@2@@2@_N_J_KNVallocator@2@Uadl_serializer@json_abi_v3_11_2@nlohmann@@V?$vector@EV?$allocator@E@std@@@2@@json_abi_v3_11_2@nlohmann@@U?$less@X@2@V?$allocator@U?$pair@$$CBV?$basic_string@DU?$char_traits@D@std@@V?$allocator@D@2@@std@@V?$basic_json@Vmap@std@@Vvector@2@V?$basic_string@DU?$char_traits@D@std@@V?$allocator@D@2@@2@_N_J_KNVallocator@2@Uadl_serializer@json_abi_v3_11_2@nlohmann@@V?$vector@EV?$allocator@E@std@@@2@@json_abi_v3_11_2@nlohmann@@@std@@@2@$0A@@std@@@std@@IEBA_NQEAU?$_Tree_node@U?$pair@$$CBV?$basic_string@DU?$char_traits@D@std@@V?$allocator@D@2@@std@@V?$basic_json@Vmap@std@@Vvector@2@V?$basic_string@DU?$char_traits@D@std@@V?$allocator@D@2@@2@_N_J_KNVallocator@2@Uadl_serializer@json_abi_v3_11_2@nlohmann@@V?$vector@EV?$allocator@E@std@@@2@@json_abi_v3_11_2@nlohmann@@@std@@PEAX@1@AEAY07$$CBD@Z
        732  2DB 0002FC80 ??$_Lower_bound_duplicate@$$BY08D@?$_Tree@V?$_Tmap_traits@V?$basic_string@DU?$char_traits@D@std@@V?$allocator@D@2@@std@@V?$basic_json@Vmap@std@@Vvector@2@V?$basic_string@DU?$char_traits@D@std@@V?$allocator@D@2@@2@_N_J_KNVallocator@2@Uadl_serializer@json_abi_v3_11_2@nlohmann@@V?$vector@EV?$allocator@E@std@@@2@@json_abi_v3_11_2@nlohmann@@U?$less@X@2@V?$allocator@U?$pair@$$CBV?$basic_string@DU?$char_traits@D@std@@V?$allocator@D@2@@std@@V?$basic_json@Vmap@std@@Vvector@2@V?$basic_string@DU?$char_traits@D@std@@V?$allocator@D@2@@2@_N_J_KNVallocator@2@Uadl_serializer@json_abi_v3_11_2@nlohmann@@V?$vector@EV?$allocator@E@std@@@2@@json_abi_v3_11_2@nlohmann@@@std@@@2@$0A@@std@@@std@@IEBA_NQEAU?$_Tree_node@U?$pair@$$CBV?$basic_string@DU?$char_traits@D@std@@V?$allocator@D@2@@std@@V?$basic_json@Vmap@std@@Vvector@2@V?$basic_string@DU?$char_traits@D@std@@V?$allocator@D@2@@2@_N_J_KNVallocator@2@Uadl_serializer@json_abi_v3_11_2@nlohmann@@V?$vector@EV?$allocator@E@std@@@2@@json_abi_v3_11_2@nlohmann@@@std@@PEAX@1@AEAY08$$CBD@Z
        733  2DC 000112B0 ??$_Lower_bound_duplicate@V?$basic_string@DU?$char_traits@D@std@@V?$allocator@D@2@@std@@@?$_Tree@V?$_Tmap_traits@V?$basic_string@DU?$char_traits@D@std@@V?$allocator@D@2@@std@@V?$basic_json@Vmap@std@@Vvector@2@V?$basic_string@DU?$char_traits@D@std@@V?$allocator@D@2@@2@_N_J_KNVallocator@2@Uadl_serializer@json_abi_v3_11_2@nlohmann@@V?$vector@EV?$allocator@E@std@@@2@@json_abi_v3_11_2@nlohmann@@U?$less@X@2@V?$allocator@U?$pair@$$CBV?$basic_string@DU?$char_traits@D@std@@V?$allocator@D@2@@std@@V?$basic_json@Vmap@std@@Vvector@2@V?$basic_string@DU?$char_traits@D@std@@V?$allocator@D@2@@2@_N_J_KNVallocator@2@Uadl_serializer@json_abi_v3_11_2@nlohmann@@V?$vector@EV?$allocator@E@std@@@2@@json_abi_v3_11_2@nlohmann@@@std@@@2@$0A@@std@@@std@@IEBA_NQEAU?$_Tree_node@U?$pair@$$CBV?$basic_string@DU?$char_traits@D@std@@V?$allocator@D@2@@std@@V?$basic_json@Vmap@std@@Vvector@2@V?$basic_string@DU?$char_traits@D@std@@V?$allocator@D@2@@2@_N_J_KNVallocator@2@Uadl_serializer@json_abi_v3_11_2@nlohmann@@V?$vector@EV?$allocator@E@std@@@2@@json_abi_v3_11_2@nlohmann@@@std@@PEAX@1@AEBV?$basic_string@DU?$char_traits@D@std@@V?$allocator@D@2@@1@@Z
        734  2DD 000112E0 ??$_Maklocchr@D@std@@YADDPEADAEBU_Cvtvec@@@Z
        735  2DE 000022C0 ??$_Maklocstr@D@std@@YAPEADPEBDPEADAEBU_Cvtvec@@@Z
        736  2DF 00002340 ??$_Maklocstr@_W@std@@YAPEA_WPEBDPEA_WAEBU_Cvtvec@@@Z
        737  2E0 000112F0 ??$_Measure_string_prefix@D@std@@YAPEBDV?$basic_string_view@DU?$char_traits@D@std@@@0@AEAH@Z
        738  2E1 00005320 ??$_Move_backward_unchecked@PEAPEAVBehavior@pineBT@@PEAPEAV12@@std@@YAPEAPEAVBehavior@pineBT@@PEAPEAV12@00@Z
        739  2E2 000065F0 ??$_Move_backward_unchecked@PEAV?$basic_string@DU?$char_traits@D@std@@V?$allocator@D@2@@std@@PEAV12@@std@@YAPEAV?$basic_string@DU?$char_traits@D@std@@V?$allocator@D@2@@0@PEAV10@00@Z
        740  2E3 000113F0 ??$_Move_construct_from@U?$output_adapter_protocol@D@detail@json_abi_v3_11_2@nlohmann@@@?$_Ptr_base@U?$output_adapter_protocol@D@detail@json_abi_v3_11_2@nlohmann@@@std@@IEAAX$$QEAV01@@Z
        741  2E4 000113F0 ??$_Move_construct_from@V?$output_string_adapter@DV?$basic_string@DU?$char_traits@D@std@@V?$allocator@D@2@@std@@@detail@json_abi_v3_11_2@nlohmann@@@?$_Ptr_base@U?$output_adapter_protocol@D@detail@json_abi_v3_11_2@nlohmann@@@std@@IEAAX$$QEAV?$_Ptr_base@V?$output_string_adapter@DV?$basic_string@DU?$char_traits@D@std@@V?$allocator@D@2@@std@@@detail@json_abi_v3_11_2@nlohmann@@@1@@Z
        742  2E5 000113F0 ??$_Move_construct_from@V?$output_string_adapter@DV?$basic_string@DU?$char_traits@D@std@@V?$allocator@D@2@@std@@@detail@json_abi_v3_11_2@nlohmann@@@?$_Ptr_base@V?$output_string_adapter@DV?$basic_string@DU?$char_traits@D@std@@V?$allocator@D@2@@std@@@detail@json_abi_v3_11_2@nlohmann@@@std@@IEAAX$$QEAV01@@Z
        743  2E6 00002C90 ??$_Move_unchecked@PEAIPEAI@std@@YAPEAIPEAI00@Z
        744  2E7 0002FCB0 ??$_Move_unchecked@PEAV?$basic_json@Vmap@std@@Vvector@2@V?$basic_string@DU?$char_traits@D@std@@V?$allocator@D@2@@2@_N_J_KNVallocator@2@Uadl_serializer@json_abi_v3_11_2@nlohmann@@V?$vector@EV?$allocator@E@std@@@2@@json_abi_v3_11_2@nlohmann@@PEAV123@@std@@YAPEAV?$basic_json@Vmap@std@@Vvector@2@V?$basic_string@DU?$char_traits@D@std@@V?$allocator@D@2@@2@_N_J_KNVallocator@2@Uadl_serializer@json_abi_v3_11_2@nlohmann@@V?$vector@EV?$allocator@E@std@@@2@@json_abi_v3_11_2@nlohmann@@PEAV123@00@Z
        745  2E8 00011410 ??$_Move_unchecked@PEAV?$basic_json@Vmap@std@@Vvector@2@V?$basic_string@DU?$char_traits@D@std@@V?$allocator@D@2@@2@_N_J_KNVallocator@2@Uadl_serializer@json_abi_v3_11_2@nlohmann@@V?$vector@EV?$allocator@E@std@@@2@@json_abi_v3_11_2@nlohmann@@V?$back_insert_iterator@V?$vector@V?$basic_json@Vmap@std@@Vvector@2@V?$basic_string@DU?$char_traits@D@std@@V?$allocator@D@2@@2@_N_J_KNVallocator@2@Uadl_serializer@json_abi_v3_11_2@nlohmann@@V?$vector@EV?$allocator@E@std@@@2@@json_abi_v3_11_2@nlohmann@@V?$allocator@V?$basic_json@Vmap@std@@Vvector@2@V?$basic_string@DU?$char_traits@D@std@@V?$allocator@D@2@@2@_N_J_KNVallocator@2@Uadl_serializer@json_abi_v3_11_2@nlohmann@@V?$vector@EV?$allocator@E@std@@@2@@json_abi_v3_11_2@nlohmann@@@std@@@std@@@std@@@std@@YA?AV?$back_insert_iterator@V?$vector@V?$basic_json@Vmap@std@@Vvector@2@V?$basic_string@DU?$char_traits@D@std@@V?$allocator@D@2@@2@_N_J_KNVallocator@2@Uadl_serializer@json_abi_v3_11_2@nlohmann@@V?$vector@EV?$allocator@E@std@@@2@@json_abi_v3_11_2@nlohmann@@V?$allocator@V?$basic_json@Vmap@std@@Vvector@2@V?$basic_string@DU?$char_traits@D@std@@V?$allocator@D@2@@2@_N_J_KNVallocator@2@Uadl_serializer@json_abi_v3_11_2@nlohmann@@V?$vector@EV?$allocator@E@std@@@2@@json_abi_v3_11_2@nlohmann@@@std@@@std@@@0@PEAV?$basic_json@Vmap@std@@Vvector@2@V?$basic_string@DU?$char_traits@D@std@@V?$allocator@D@2@@2@_N_J_KNVallocator@2@Uadl_serializer@json_abi_v3_11_2@nlohmann@@V?$vector@EV?$allocator@E@std@@@2@@json_abi_v3_11_2@nlohmann@@0V10@@Z
        746  2E9 000066C0 ??$_Move_unchecked@PEAV?$basic_string@DU?$char_traits@D@std@@V?$allocator@D@2@@std@@PEAV12@@std@@YAPEAV?$basic_string@DU?$char_traits@D@std@@V?$allocator@D@2@@0@PEAV10@00@Z
        747  2EA 000114A0 ??$_Next_iter@PEBI@std@@YAPEBIPEBI@Z
        748  2EB 00003840 ??$_Next_iter@PEB_K@std@@YAPEB_KPEB_K@Z
        749  2EC 0002FD40 ??$_Next_iter@V?$_Vb_iterator@U?$_Wrap_alloc@V?$allocator@I@std@@@std@@@std@@@std@@YA?AV?$_Vb_iterator@U?$_Wrap_alloc@V?$allocator@I@std@@@std@@@0@V10@@Z
        750  2ED 000114B0 ??$_On_dynamic_precision@U_Auto_id_tag@std@@@?$_Specs_checker@V?$_Specs_handler@V?$basic_format_parse_context@D@std@@V?$basic_format_context@V?$back_insert_iterator@V?$_Fmt_buffer@D@std@@@std@@D@2@@std@@@std@@QEAAXU_Auto_id_tag@1@@Z
        751  2EE 00011550 ??$_On_dynamic_precision@U_Auto_id_tag@std@@@?$_Specs_handler@V?$basic_format_parse_context@D@std@@V?$basic_format_context@V?$back_insert_iterator@V?$_Fmt_buffer@D@std@@@std@@D@2@@std@@QEAAXU_Auto_id_tag@1@@Z
        752  2EF 000115D0 ??$_On_dynamic_precision@_K@?$_Specs_checker@V?$_Specs_handler@V?$basic_format_parse_context@D@std@@V?$basic_format_context@V?$back_insert_iterator@V?$_Fmt_buffer@D@std@@@std@@D@2@@std@@@std@@QEAAX_K@Z
        753  2F0 00011670 ??$_On_dynamic_precision@_K@?$_Specs_handler@V?$basic_format_parse_context@D@std@@V?$basic_format_context@V?$back_insert_iterator@V?$_Fmt_buffer@D@std@@@std@@D@2@@std@@QEAAX_K@Z
        754  2F1 000116F0 ??$_On_dynamic_width@U_Auto_id_tag@std@@@?$_Specs_handler@V?$basic_format_parse_context@D@std@@V?$basic_format_context@V?$back_insert_iterator@V?$_Fmt_buffer@D@std@@@std@@D@2@@std@@QEAAXU_Auto_id_tag@1@@Z
        755  2F2 00011770 ??$_On_dynamic_width@_K@?$_Specs_handler@V?$basic_format_parse_context@D@std@@V?$basic_format_context@V?$back_insert_iterator@V?$_Fmt_buffer@D@std@@@std@@D@2@@std@@QEAAX_K@Z
        756  2F3 000117F0 ??$_On_type@D@?$_Specs_checker@V?$_Specs_handler@V?$basic_format_parse_context@D@std@@V?$basic_format_context@V?$back_insert_iterator@V?$_Fmt_buffer@D@std@@@std@@D@2@@std@@@std@@QEAAXD@Z
        757  2F4 00011A60 ??$_Parse_align@DAEAV?$_Specs_checker@V?$_Specs_handler@V?$basic_format_parse_context@D@std@@V?$basic_format_context@V?$back_insert_iterator@V?$_Fmt_buffer@D@std@@@std@@D@2@@std@@@std@@@std@@YAPEBDPEBD0AEAV?$_Specs_checker@V?$_Specs_handler@V?$basic_format_parse_context@D@std@@V?$basic_format_context@V?$back_insert_iterator@V?$_Fmt_buffer@D@std@@@std@@D@2@@std@@@0@@Z
        758  2F5 00011B80 ??$_Parse_arg_id@DAEAU?$_Id_adapter@D@std@@@std@@YAPEBDPEBD0AEAU?$_Id_adapter@D@0@@Z
        759  2F6 00011C70 ??$_Parse_arg_id@DU?$_Precision_adapter@DAEAV?$_Specs_checker@V?$_Specs_handler@V?$basic_format_parse_context@D@std@@V?$basic_format_context@V?$back_insert_iterator@V?$_Fmt_buffer@D@std@@@std@@D@2@@std@@@std@@@std@@@std@@YAPEBDPEBD0$$QEAU?$_Precision_adapter@DAEAV?$_Specs_checker@V?$_Specs_handler@V?$basic_format_parse_context@D@std@@V?$basic_format_context@V?$back_insert_iterator@V?$_Fmt_buffer@D@std@@@std@@D@2@@std@@@std@@@0@@Z
        760  2F7 00011E20 ??$_Parse_arg_id@DU?$_Width_adapter@DAEAV?$_Specs_checker@V?$_Specs_handler@V?$basic_format_parse_context@D@std@@V?$basic_format_context@V?$back_insert_iterator@V?$_Fmt_buffer@D@std@@@std@@D@2@@std@@@std@@@std@@@std@@YAPEBDPEBD0$$QEAU?$_Width_adapter@DAEAV?$_Specs_checker@V?$_Specs_handler@V?$basic_format_parse_context@D@std@@V?$basic_format_context@V?$back_insert_iterator@V?$_Fmt_buffer@D@std@@@std@@D@2@@std@@@std@@@0@@Z
        761  2F8 00011F90 ??$_Parse_format_specs@DAEAV?$_Specs_checker@V?$_Specs_handler@V?$basic_format_parse_context@D@std@@V?$basic_format_context@V?$back_insert_iterator@V?$_Fmt_buffer@D@std@@@std@@D@2@@std@@@std@@@std@@YAPEBDPEBD0AEAV?$_Specs_checker@V?$_Specs_handler@V?$basic_format_parse_context@D@std@@V?$basic_format_context@V?$back_insert_iterator@V?$_Fmt_buffer@D@std@@@std@@D@2@@std@@@0@@Z
        762  2F9 00012370 ??$_Parse_format_string@DAEAU?$_Format_handler@D@std@@@std@@YAXV?$basic_string_view@DU?$char_traits@D@std@@@0@AEAU?$_Format_handler@D@0@@Z
        763  2FA 000124D0 ??$_Parse_nonnegative_integer@D@std@@YAPEBDPEBD0AEAH@Z
        764  2FB 00012530 ??$_Parse_nonnegative_integer@D@std@@YAPEBDPEBD0AEAI@Z
        765  2FC 000125A0 ??$_Parse_precision@DAEAV?$_Specs_checker@V?$_Specs_handler@V?$basic_format_parse_context@D@std@@V?$basic_format_context@V?$back_insert_iterator@V?$_Fmt_buffer@D@std@@@std@@D@2@@std@@@std@@@std@@YAPEBDPEBD0AEAV?$_Specs_checker@V?$_Specs_handler@V?$basic_format_parse_context@D@std@@V?$basic_format_context@V?$back_insert_iterator@V?$_Fmt_buffer@D@std@@@std@@D@2@@std@@@0@@Z
        766  2FD 00012690 ??$_Parse_replacement_field@DAEAU?$_Format_handler@D@std@@@std@@YAPEBDPEBD0AEAU?$_Format_handler@D@0@@Z
        767  2FE 000128B0 ??$_Parse_width@DAEAV?$_Specs_checker@V?$_Specs_handler@V?$basic_format_parse_context@D@std@@V?$basic_format_context@V?$back_insert_iterator@V?$_Fmt_buffer@D@std@@@std@@D@2@@std@@@std@@@std@@YAPEBDPEBD0AEAV?$_Specs_checker@V?$_Specs_handler@V?$basic_format_parse_context@D@std@@V?$basic_format_context@V?$back_insert_iterator@V?$_Fmt_buffer@D@std@@@std@@D@2@@std@@@0@@Z
        768  2FF 000112E0 ??$_Pass_fn@U?$_Widen_char@D@std@@$0A@@std@@YA?AU?$_Widen_char@D@0@U10@@Z
        769  300 000112E0 ??$_Pass_fn@Uidentity@std@@$0A@@std@@YA?AUidentity@0@U10@@Z
        770  301 000021E0 ??$_Pocca@V?$allocator@D@std@@@std@@YAXAEAV?$allocator@D@0@AEBV10@@Z
        771  302 000021E0 ??$_Pocca@V?$allocator@U?$_List_node@U?$pair@$$CBV?$basic_string@DU?$char_traits@D@std@@V?$allocator@D@2@@std@@H@std@@PEAX@std@@@std@@@std@@YAXAEAV?$allocator@U?$_List_node@U?$pair@$$CBV?$basic_string@DU?$char_traits@D@std@@V?$allocator@D@2@@std@@H@std@@PEAX@std@@@0@AEBV10@@Z
        772  303 000021E0 ??$_Pocca@V?$allocator@V?$_List_unchecked_iterator@V?$_List_val@U?$_List_simple_types@U?$pair@$$CBV?$basic_string@DU?$char_traits@D@std@@V?$allocator@D@2@@std@@H@std@@@std@@@std@@@std@@@std@@@std@@YAXAEAV?$allocator@V?$_List_unchecked_iterator@V?$_List_val@U?$_List_simple_types@U?$pair@$$CBV?$basic_string@DU?$char_traits@D@std@@V?$allocator@D@2@@std@@H@std@@@std@@@std@@@std@@@0@AEBV10@@Z
        773  304 000021E0 ??$_Pocca@V?$allocator@V?$basic_string@DU?$char_traits@D@std@@V?$allocator@D@2@@std@@@std@@@std@@YAXAEAV?$allocator@V?$basic_string@DU?$char_traits@D@std@@V?$allocator@D@2@@std@@@0@AEBV10@@Z
        774  305 000021E0 ??$_Pocma@V?$allocator@D@std@@@std@@YAXAEAV?$allocator@D@0@0@Z
        775  306 0002AEC0 ??$_Prev_iter@V?$_Deque_unchecked_iterator@V?$_Deque_val@U?$_Deque_simple_types@PEAVBehavior@pineBT@@@std@@@std@@@std@@@std@@YA?AV?$_Deque_unchecked_iterator@V?$_Deque_val@U?$_Deque_simple_types@PEAVBehavior@pineBT@@@std@@@std@@@0@V10@@Z
        776  307 0002AEC0 ??$_Prev_iter@V?$_Deque_unchecked_iterator@V?$_Deque_val@U?$_Deque_simple_types@V?$unique_ptr@UBehaviorTreeBuilderContext@pineBT@@U?$default_delete@UBehaviorTreeBuilderContext@pineBT@@@std@@@std@@@std@@@std@@@std@@@std@@YA?AV?$_Deque_unchecked_iterator@V?$_Deque_val@U?$_Deque_simple_types@V?$unique_ptr@UBehaviorTreeBuilderContext@pineBT@@U?$default_delete@UBehaviorTreeBuilderContext@pineBT@@@std@@@std@@@std@@@std@@@0@V10@@Z
        777  308 00012960 ??$_Reallocate_for@V<lambda_1>@?1??assign@?$basic_string@DU?$char_traits@D@std@@V?$allocator@D@2@@std@@QEAAAEAV34@QEBD_K@Z@PEBD@?$basic_string@DU?$char_traits@D@std@@V?$allocator@D@2@@std@@AEAAAEAV01@_KV<lambda_1>@?1??assign@01@QEAAAEAV01@QEBD0@Z@PEBD@Z
        778  309 00012AA0 ??$_Reallocate_grow_by@V<lambda_1>@?1??append@?$basic_string@DU?$char_traits@D@std@@V?$allocator@D@2@@std@@QEAAAEAV34@QEBD_K@Z@PEBD_K@?$basic_string@DU?$char_traits@D@std@@V?$allocator@D@2@@std@@AEAAAEAV01@_KV<lambda_1>@?1??append@01@QEAAAEAV01@QEBD0@Z@PEBD_K@Z
        779  30A 00012C30 ??$_Reallocate_grow_by@V<lambda_1>@?1??append@?$basic_string@DU?$char_traits@D@std@@V?$allocator@D@2@@std@@QEAAAEAV34@_KD@Z@_KD@?$basic_string@DU?$char_traits@D@std@@V?$allocator@D@2@@std@@AEAAAEAV01@_KV<lambda_1>@?1??append@01@QEAAAEAV01@0D@Z@_KD@Z
        780  30B 00012DC0 ??$_Reallocate_grow_by@V<lambda_1>@?1??insert@?$basic_string@DU?$char_traits@D@std@@V?$allocator@D@2@@std@@QEAAAEAV34@_KQEBD0@Z@_KPEBD_K@?$basic_string@DU?$char_traits@D@std@@V?$allocator@D@2@@std@@AEAAAEAV01@_KV<lambda_1>@?1??insert@01@QEAAAEAV01@0QEBD0@Z@_KPEBD3@Z
        781  30C 00012F70 ??$_Reallocate_grow_by@V<lambda_1>@?1??push_back@?$basic_string@DU?$char_traits@D@std@@V?$allocator@D@2@@std@@QEAAXD@Z@D@?$basic_string@DU?$char_traits@D@std@@V?$allocator@D@2@@std@@AEAAAEAV01@_KV<lambda_1>@?1??push_back@01@QEAAXD@Z@D@Z
        782  30D 000130E0 ??$_Reallocate_grow_by@V<lambda_1>@?1??reserve@?$basic_string@DU?$char_traits@D@std@@V?$allocator@D@2@@std@@QEAAX_K@Z@$$V@?$basic_string@DU?$char_traits@D@std@@V?$allocator@D@2@@std@@AEAAAEAV01@_KV<lambda_1>@?1??reserve@01@QEAAX0@Z@@Z
        783  30E 00002190 ??$_Refancy@PEAD$0A@@std@@YAPEADPEAD@Z
        784  30F 00002190 ??$_Refancy@PEBD$0A@@std@@YAPEBDPEBD@Z
        785  310 00013230 ??$_Reset@V<lambda_1>@?1???$add@VMockCondition@pineBT@@@BehaviorSchemaLibrary@pineBT@@QEAAXXZ@@?$_Func_class@PEAVBehavior@pineBT@@AEBV?$basic_string@DU?$char_traits@D@std@@V?$allocator@D@2@@std@@AEAVBehaviorTree@2@@std@@IEAAX$$QEAV<lambda_1>@?1???$add@VMockCondition@pineBT@@@BehaviorSchemaLibrary@pineBT@@QEAAXXZ@@Z
        786  311 00013240 ??$_Reset@V<lambda_1>@?1???$add@VMockTask@pineBT@@@BehaviorSchemaLibrary@pineBT@@QEAAXXZ@@?$_Func_class@PEAVBehavior@pineBT@@AEBV?$basic_string@DU?$char_traits@D@std@@V?$allocator@D@2@@std@@AEAVBehaviorTree@2@@std@@IEAAX$$QEAV<lambda_1>@?1???$add@VMockTask@pineBT@@@BehaviorSchemaLibrary@pineBT@@QEAAXXZ@@Z
        787  312 00013250 ??$_Reset@V<lambda_1>@?1???$add@VParallel@pineBT@@@BehaviorSchemaLibrary@pineBT@@QEAAXXZ@@?$_Func_class@PEAVBehavior@pineBT@@AEBV?$basic_string@DU?$char_traits@D@std@@V?$allocator@D@2@@std@@AEAVBehaviorTree@2@@std@@IEAAX$$QEAV<lambda_1>@?1???$add@VParallel@pineBT@@@BehaviorSchemaLibrary@pineBT@@QEAAXXZ@@Z
        788  313 00013260 ??$_Reset@V<lambda_1>@?1???$add@VSelector@pineBT@@@BehaviorSchemaLibrary@pineBT@@QEAAXXZ@@?$_Func_class@PEAVBehavior@pineBT@@AEBV?$basic_string@DU?$char_traits@D@std@@V?$allocator@D@2@@std@@AEAVBehaviorTree@2@@std@@IEAAX$$QEAV<lambda_1>@?1???$add@VSelector@pineBT@@@BehaviorSchemaLibrary@pineBT@@QEAAXXZ@@Z
        789  314 00013270 ??$_Reset@V<lambda_1>@?1???$add@VSequence@pineBT@@@BehaviorSchemaLibrary@pineBT@@QEAAXXZ@@?$_Func_class@PEAVBehavior@pineBT@@AEBV?$basic_string@DU?$char_traits@D@std@@V?$allocator@D@2@@std@@AEAVBehaviorTree@2@@std@@IEAAX$$QEAV<lambda_1>@?1???$add@VSequence@pineBT@@@BehaviorSchemaLibrary@pineBT@@QEAAXXZ@@Z
        790  315 0002FD70 ??$_Resize@I@?$vector@IV?$allocator@I@std@@@std@@AEAAX_KAEBI@Z
        791  316 0003FBA0 ??$_Resize@U_Value_init_tag@std@@@?$vector@V?$basic_json@Vmap@std@@Vvector@2@V?$basic_string@DU?$char_traits@D@std@@V?$allocator@D@2@@2@_N_J_KNVallocator@2@Uadl_serializer@json_abi_v3_11_2@nlohmann@@V?$vector@EV?$allocator@E@std@@@2@@json_abi_v3_11_2@nlohmann@@V?$allocator@V?$basic_json@Vmap@std@@Vvector@2@V?$basic_string@DU?$char_traits@D@std@@V?$allocator@D@2@@2@_N_J_KNVallocator@2@Uadl_serializer@json_abi_v3_11_2@nlohmann@@V?$vector@EV?$allocator@E@std@@@2@@json_abi_v3_11_2@nlohmann@@@std@@@std@@AEAAX_KAEBU_Value_init_tag@1@@Z
        792  317 0002FDE0 ??$_Resize_reallocate@I@?$vector@IV?$allocator@I@std@@@std@@AEAAX_KAEBI@Z
        793  318 0003FC50 ??$_Resize_reallocate@U_Value_init_tag@std@@@?$vector@V?$basic_json@Vmap@std@@Vvector@2@V?$basic_string@DU?$char_traits@D@std@@V?$allocator@D@2@@2@_N_J_KNVallocator@2@Uadl_serializer@json_abi_v3_11_2@nlohmann@@V?$vector@EV?$allocator@E@std@@@2@@json_abi_v3_11_2@nlohmann@@V?$allocator@V?$basic_json@Vmap@std@@Vvector@2@V?$basic_string@DU?$char_traits@D@std@@V?$allocator@D@2@@2@_N_J_KNVallocator@2@Uadl_serializer@json_abi_v3_11_2@nlohmann@@V?$vector@EV?$allocator@E@std@@@2@@json_abi_v3_11_2@nlohmann@@@std@@@std@@AEAAX_KAEBU_Value_init_tag@1@@Z
        794  319 00002180 ??$_Seek_wrapped@PEADAEAPEAD@std@@YAXAEAPEAD0@Z
        795  31A 00002180 ??$_Seek_wrapped@PEADPEAD@std@@YAXAEAPEAD$$QEAPEAD@Z
        796  31B 00002180 ??$_Seek_wrapped@PEAPEAPEAVBehavior@pineBT@@PEAPEAPEAV12@@std@@YAXAEAPEAPEAPEAVBehavior@pineBT@@$$QEAPEAPEAPEAV12@@Z
        797  31C 00002180 ??$_Seek_wrapped@PEAPEAV?$unique_ptr@UBehaviorTreeBuilderContext@pineBT@@U?$default_delete@UBehaviorTreeBuilderContext@pineBT@@@std@@@std@@PEAPEAV12@@std@@YAXAEAPEAPEAV?$unique_ptr@UBehaviorTreeBuilderContext@pineBT@@U?$default_delete@UBehaviorTreeBuilderContext@pineBT@@@std@@@0@$$QEAPEAPEAV10@@Z
        798  31D 00002180 ??$_Seek_wrapped@PEBDPEBD@std@@YAXAEAPEBD$$QEAPEBD@Z
        799  31E 00002180 ??$_Seek_wrapped@PEBIAEAPEBI@std@@YAXAEAPEBI0@Z
        800  31F 00002180 ??$_Seek_wrapped@PEB_KAEAPEB_K@std@@YAXAEAPEB_K0@Z
        801  320 00002180 ??$_Seek_wrapped@V?$_String_view_iterator@U?$char_traits@D@std@@@std@@PEBD@std@@YAXAEAV?$_String_view_iterator@U?$char_traits@D@std@@@0@$$QEAPEBD@Z
        802  321 00002180 ??$_Seek_wrapped@V?$_Tree_iterator@V?$_Tree_val@U?$_Tree_simple_types@U?$pair@$$CBV?$basic_string@DU?$char_traits@D@std@@V?$allocator@D@2@@std@@V?$basic_json@Vmap@std@@Vvector@2@V?$basic_string@DU?$char_traits@D@std@@V?$allocator@D@2@@2@_N_J_KNVallocator@2@Uadl_serializer@json_abi_v3_11_2@nlohmann@@V?$vector@EV?$allocator@E@std@@@2@@json_abi_v3_11_2@nlohmann@@@std@@@std@@@std@@@std@@V?$_Tree_unchecked_iterator@V?$_Tree_val@U?$_Tree_simple_types@U?$pair@$$CBV?$basic_string@DU?$char_traits@D@std@@V?$allocator@D@2@@std@@V?$basic_json@Vmap@std@@Vvector@2@V?$basic_string@DU?$char_traits@D@std@@V?$allocator@D@2@@2@_N_J_KNVallocator@2@Uadl_serializer@json_abi_v3_11_2@nlohmann@@V?$vector@EV?$allocator@E@std@@@2@@json_abi_v3_11_2@nlohmann@@@std@@@std@@@std@@@2@@std@@YAXAEAV?$_Tree_iterator@V?$_Tree_val@U?$_Tree_simple_types@U?$pair@$$CBV?$basic_string@DU?$char_traits@D@std@@V?$allocator@D@2@@std@@V?$basic_json@Vmap@std@@Vvector@2@V?$basic_string@DU?$char_traits@D@std@@V?$allocator@D@2@@2@_N_J_KNVallocator@2@Uadl_serializer@json_abi_v3_11_2@nlohmann@@V?$vector@EV?$allocator@E@std@@@2@@json_abi_v3_11_2@nlohmann@@@std@@@std@@@std@@@0@$$QEAV?$_Tree_unchecked_iterator@V?$_Tree_val@U?$_Tree_simple_types@U?$pair@$$CBV?$basic_string@DU?$char_traits@D@std@@V?$allocator@D@2@@std@@V?$basic_json@Vmap@std@@Vvector@2@V?$basic_string@DU?$char_traits@D@std@@V?$allocator@D@2@@2@_N_J_KNVallocator@2@Uadl_serializer@json_abi_v3_11_2@nlohmann@@V?$vector@EV?$allocator@E@std@@@2@@json_abi_v3_11_2@nlohmann@@@std@@@std@@@std@@@0@@Z
        803  322 0002FF80 ??$_Seek_wrapped@V?$_Vb_iterator@U?$_Wrap_alloc@V?$allocator@I@std@@@std@@@std@@V12@@std@@YAXAEAV?$_Vb_iterator@U?$_Wrap_alloc@V?$allocator@I@std@@@std@@@0@$$QEAV10@@Z
        804  323 00002180 ??$_Seek_wrapped@V?$back_insert_iterator@V?$_Fmt_buffer@D@std@@@std@@V12@@std@@YAXAEAV?$back_insert_iterator@V?$_Fmt_buffer@D@std@@@0@$$QEAV10@@Z
        805  324 00002180 ??$_Seek_wrapped@V?$back_insert_iterator@V?$vector@V?$basic_json@Vmap@std@@Vvector@2@V?$basic_string@DU?$char_traits@D@std@@V?$allocator@D@2@@2@_N_J_KNVallocator@2@Uadl_serializer@json_abi_v3_11_2@nlohmann@@V?$vector@EV?$allocator@E@std@@@2@@json_abi_v3_11_2@nlohmann@@V?$allocator@V?$basic_json@Vmap@std@@Vvector@2@V?$basic_string@DU?$char_traits@D@std@@V?$allocator@D@2@@2@_N_J_KNVallocator@2@Uadl_serializer@json_abi_v3_11_2@nlohmann@@V?$vector@EV?$allocator@E@std@@@2@@json_abi_v3_11_2@nlohmann@@@std@@@std@@@std@@V12@@std@@YAXAEAV?$back_insert_iterator@V?$vector@V?$basic_json@Vmap@std@@Vvector@2@V?$basic_string@DU?$char_traits@D@std@@V?$allocator@D@2@@2@_N_J_KNVallocator@2@Uadl_serializer@json_abi_v3_11_2@nlohmann@@V?$vector@EV?$allocator@E@std@@@2@@json_abi_v3_11_2@nlohmann@@V?$allocator@V?$basic_json@Vmap@std@@Vvector@2@V?$basic_string@DU?$char_traits@D@std@@V?$allocator@D@2@@2@_N_J_KNVallocator@2@Uadl_serializer@json_abi_v3_11_2@nlohmann@@V?$vector@EV?$allocator@E@std@@@2@@json_abi_v3_11_2@nlohmann@@@std@@@std@@@0@$$QEAV10@@Z
        806  325 00013280 ??$_Set_ptr_rep_and_enable_shared@V?$output_string_adapter@DV?$basic_string@DU?$char_traits@D@std@@V?$allocator@D@2@@std@@@detail@json_abi_v3_11_2@nlohmann@@@?$shared_ptr@V?$output_string_adapter@DV?$basic_string@DU?$char_traits@D@std@@V?$allocator@D@2@@std@@@detail@json_abi_v3_11_2@nlohmann@@@std@@AEAAXQEAV?$output_string_adapter@DV?$basic_string@DU?$char_traits@D@std@@V?$allocator@D@2@@std@@@detail@json_abi_v3_11_2@nlohmann@@QEAV_Ref_count_base@1@@Z
        807  326 00013290 ??$_Store@AEAPEBD@?$_Format_arg_store@V?$basic_format_context@V?$back_insert_iterator@V?$_Fmt_buffer@D@std@@@std@@D@std@@AEAPEBDAEBIAEAV?$basic_string@DU?$char_traits@D@std@@V?$allocator@D@2@@2@@std@@AEAAX_KAEAPEBD@Z
        808  327 000132E0 ??$_Store@AEAV?$basic_string@DU?$char_traits@D@std@@V?$allocator@D@2@@std@@@?$_Format_arg_store@V?$basic_format_context@V?$back_insert_iterator@V?$_Fmt_buffer@D@std@@@std@@D@std@@AEAPEBDAEBIAEAV?$basic_string@DU?$char_traits@D@std@@V?$allocator@D@2@@2@@std@@AEAAX_KAEAV?$basic_string@DU?$char_traits@D@std@@V?$allocator@D@2@@1@@Z
        809  328 00013350 ??$_Store@AEAV?$basic_string@DU?$char_traits@D@std@@V?$allocator@D@2@@std@@@?$_Format_arg_store@V?$basic_format_context@V?$back_insert_iterator@V?$_Fmt_buffer@D@std@@@std@@D@std@@AEAV?$basic_string@DU?$char_traits@D@std@@V?$allocator@D@2@@2@@std@@AEAAX_KAEAV?$basic_string@DU?$char_traits@D@std@@V?$allocator@D@2@@1@@Z
        810  329 000133C0 ??$_Store@AEAV?$basic_string@DU?$char_traits@D@std@@V?$allocator@D@2@@std@@@?$_Format_arg_store@V?$basic_format_context@V?$back_insert_iterator@V?$_Fmt_buffer@D@std@@@std@@D@std@@AEBIAEAV?$basic_string@DU?$char_traits@D@std@@V?$allocator@D@2@@2@@std@@AEAAX_KAEAV?$basic_string@DU?$char_traits@D@std@@V?$allocator@D@2@@1@@Z
        811  32A 00013430 ??$_Store@AEBI@?$_Format_arg_store@V?$basic_format_context@V?$back_insert_iterator@V?$_Fmt_buffer@D@std@@@std@@D@std@@AEAPEBDAEBIAEAV?$basic_string@DU?$char_traits@D@std@@V?$allocator@D@2@@2@@std@@AEAAX_KAEBI@Z
        812  32B 00013480 ??$_Store@AEBI@?$_Format_arg_store@V?$basic_format_context@V?$back_insert_iterator@V?$_Fmt_buffer@D@std@@@std@@D@std@@AEBIAEAV?$basic_string@DU?$char_traits@D@std@@V?$allocator@D@2@@2@@std@@AEAAX_KAEBI@Z
        813  32C 000134D0 ??$_Store_impl@I@?$_Format_arg_store@V?$basic_format_context@V?$back_insert_iterator@V?$_Fmt_buffer@D@std@@@std@@D@std@@AEAPEBDAEBIAEAV?$basic_string@DU?$char_traits@D@std@@V?$allocator@D@2@@2@@std@@AEAAX_KW4_Basic_format_arg_type@1@AEBI@Z
        814  32D 00013530 ??$_Store_impl@I@?$_Format_arg_store@V?$basic_format_context@V?$back_insert_iterator@V?$_Fmt_buffer@D@std@@@std@@D@std@@AEBIAEAV?$basic_string@DU?$char_traits@D@std@@V?$allocator@D@2@@2@@std@@AEAAX_KW4_Basic_format_arg_type@1@AEBI@Z
        815  32E 00013590 ??$_Store_impl@PEBD@?$_Format_arg_store@V?$basic_format_context@V?$back_insert_iterator@V?$_Fmt_buffer@D@std@@@std@@D@std@@AEAPEBDAEBIAEAV?$basic_string@DU?$char_traits@D@std@@V?$allocator@D@2@@2@@std@@AEAAX_KW4_Basic_format_arg_type@1@AEBQEBD@Z
        816  32F 000135F0 ??$_Store_impl@V?$basic_string_view@DU?$char_traits@D@std@@@std@@@?$_Format_arg_store@V?$basic_format_context@V?$back_insert_iterator@V?$_Fmt_buffer@D@std@@@std@@D@std@@AEAPEBDAEBIAEAV?$basic_string@DU?$char_traits@D@std@@V?$allocator@D@2@@2@@std@@AEAAX_KW4_Basic_format_arg_type@1@AEBV?$basic_string_view@DU?$char_traits@D@std@@@1@@Z
        817  330 00013650 ??$_Store_impl@V?$basic_string_view@DU?$char_traits@D@std@@@std@@@?$_Format_arg_store@V?$basic_format_context@V?$back_insert_iterator@V?$_Fmt_buffer@D@std@@@std@@D@std@@AEAV?$basic_string@DU?$char_traits@D@std@@V?$allocator@D@2@@2@@std@@AEAAX_KW4_Basic_format_arg_type@1@AEBV?$basic_string_view@DU?$char_traits@D@std@@@1@@Z
        818  331 000136B0 ??$_Store_impl@V?$basic_string_view@DU?$char_traits@D@std@@@std@@@?$_Format_arg_store@V?$basic_format_context@V?$back_insert_iterator@V?$_Fmt_buffer@D@std@@@std@@D@std@@AEBIAEAV?$basic_string@DU?$char_traits@D@std@@V?$allocator@D@2@@2@@std@@AEAAX_KW4_Basic_format_arg_type@1@AEBV?$basic_string_view@DU?$char_traits@D@std@@@1@@Z
        819  332 00006780 ??$_Swap_adl@PEAU?$_List_node@U?$pair@$$CBIW4Result@Behavior@pineBT@@@std@@PEAX@std@@@std@@YAXAEAPEAU?$_List_node@U?$pair@$$CBIW4Result@Behavior@pineBT@@@std@@PEAX@0@0@Z
        820  333 00006780 ??$_Swap_adl@PEAU?$_List_node@U?$pair@$$CBV?$basic_string@DU?$char_traits@D@std@@V?$allocator@D@2@@std@@H@std@@PEAX@std@@@std@@YAXAEAPEAU?$_List_node@U?$pair@$$CBV?$basic_string@DU?$char_traits@D@std@@V?$allocator@D@2@@std@@H@std@@PEAX@0@0@Z
        821  334 00006780 ??$_Swap_adl@PEAV?$_List_unchecked_iterator@V?$_List_val@U?$_List_simple_types@U?$pair@$$CBIW4Result@Behavior@pineBT@@@std@@@std@@@std@@@std@@@std@@YAXAEAPEAV?$_List_unchecked_iterator@V?$_List_val@U?$_List_simple_types@U?$pair@$$CBIW4Result@Behavior@pineBT@@@std@@@std@@@std@@@0@0@Z
        822  335 00006780 ??$_Swap_adl@PEAV?$_List_unchecked_iterator@V?$_List_val@U?$_List_simple_types@U?$pair@$$CBV?$basic_string@DU?$char_traits@D@std@@V?$allocator@D@2@@std@@H@std@@@std@@@std@@@std@@@std@@YAXAEAPEAV?$_List_unchecked_iterator@V?$_List_val@U?$_List_simple_types@U?$pair@$$CBV?$basic_string@DU?$char_traits@D@std@@V?$allocator@D@2@@std@@H@std@@@std@@@std@@@0@0@Z
        823  336 0000B510 ??$_Test_callable@V<lambda_1>@?1???$add@VMockCondition@pineBT@@@BehaviorSchemaLibrary@pineBT@@QEAAXXZ@@std@@YA_NAEBV<lambda_1>@?1???$add@VMockCondition@pineBT@@@BehaviorSchemaLibrary@pineBT@@QEAAXXZ@@Z
        824  337 0000B510 ??$_Test_callable@V<lambda_1>@?1???$add@VMockTask@pineBT@@@BehaviorSchemaLibrary@pineBT@@QEAAXXZ@@std@@YA_NAEBV<lambda_1>@?1???$add@VMockTask@pineBT@@@BehaviorSchemaLibrary@pineBT@@QEAAXXZ@@Z
        825  338 0000B510 ??$_Test_callable@V<lambda_1>@?1???$add@VParallel@pineBT@@@BehaviorSchemaLibrary@pineBT@@QEAAXXZ@@std@@YA_NAEBV<lambda_1>@?1???$add@VParallel@pineBT@@@BehaviorSchemaLibrary@pineBT@@QEAAXXZ@@Z
        826  339 0000B510 ??$_Test_callable@V<lambda_1>@?1???$add@VSelector@pineBT@@@BehaviorSchemaLibrary@pineBT@@QEAAXXZ@@std@@YA_NAEBV<lambda_1>@?1???$add@VSelector@pineBT@@@BehaviorSchemaLibrary@pineBT@@QEAAXXZ@@Z
        827  33A 0000B510 ??$_Test_callable@V<lambda_1>@?1???$add@VSequence@pineBT@@@BehaviorSchemaLibrary@pineBT@@QEAAXXZ@@std@@YA_NAEBV<lambda_1>@?1???$add@VSequence@pineBT@@@BehaviorSchemaLibrary@pineBT@@QEAAXXZ@@Z
        828  33B 00002E00 ??$_To_address@PEAD@std@@YA?A_PAEBQEAD@Z
        829  33C 00002E00 ??$_To_address@PEAE@std@@YA?A_PAEBQEAE@Z
        830  33D 00002E00 ??$_To_address@PEAI@std@@YA?A_PAEBQEAI@Z
        831  33E 00002E00 ??$_To_address@PEAPEAPEAVBehavior@pineBT@@@std@@YA?A_PAEBQEAPEAPEAVBehavior@pineBT@@@Z
        832  33F 00002E00 ??$_To_address@PEAPEAV?$basic_json@Vmap@std@@Vvector@2@V?$basic_string@DU?$char_traits@D@std@@V?$allocator@D@2@@2@_N_J_KNVallocator@2@Uadl_serializer@json_abi_v3_11_2@nlohmann@@V?$vector@EV?$allocator@E@std@@@2@@json_abi_v3_11_2@nlohmann@@@std@@YA?A_PAEBQEAPEAV?$basic_json@Vmap@std@@Vvector@2@V?$basic_string@DU?$char_traits@D@std@@V?$allocator@D@2@@2@_N_J_KNVallocator@2@Uadl_serializer@json_abi_v3_11_2@nlohmann@@V?$vector@EV?$allocator@E@std@@@2@@json_abi_v3_11_2@nlohmann@@@Z
        833  340 00002E00 ??$_To_address@PEAPEAV?$unique_ptr@UBehaviorTreeBuilderContext@pineBT@@U?$default_delete@UBehaviorTreeBuilderContext@pineBT@@@std@@@std@@@std@@YA?A_PAEBQEAPEAV?$unique_ptr@UBehaviorTreeBuilderContext@pineBT@@U?$default_delete@UBehaviorTreeBuilderContext@pineBT@@@std@@@0@@Z
        834  341 00002E00 ??$_To_address@PEAPEAVBehavior@pineBT@@@std@@YA?A_PAEBQEAPEAVBehavior@pineBT@@@Z
        835  342 00002E00 ??$_To_address@PEBD@std@@YA?A_PAEBQEBD@Z
        836  343 00013710 ??$_Traits_compare@U?$char_traits@D@std@@@std@@YAHQEBD_K01@Z
        837  344 00004E10 ??$_Traits_equal@U?$char_traits@D@std@@@std@@YA_NQEBD_K01@Z
        838  345 0000B480 ??$_Transform_unary_unchecked@PEADPEADV?$back_insert_iterator@V?$_Fmt_buffer@D@std@@@std@@U?$_Widen_char@D@2@Uidentity@2@@_Transform_fn@ranges@std@@CA?AU?$in_out_result@PEADV?$back_insert_iterator@V?$_Fmt_buffer@D@std@@@std@@@12@PEADQEADV?$back_insert_iterator@V?$_Fmt_buffer@D@std@@@2@U?$_Widen_char@D@2@Uidentity@2@@Z
        839  346 0000B480 ??$_Transform_unary_unchecked@PEBDPEBDV?$back_insert_iterator@V?$_Fmt_buffer@D@std@@@std@@U?$_Widen_char@D@2@Uidentity@2@@_Transform_fn@ranges@std@@CA?AU?$in_out_result@PEBDV?$back_insert_iterator@V?$_Fmt_buffer@D@std@@@std@@@12@PEBDQEBDV?$back_insert_iterator@V?$_Fmt_buffer@D@std@@@2@U?$_Widen_char@D@2@Uidentity@2@@Z
        840  347 0003FD70 ??$_Try_emplace@AEBH$$V@?$_Hash@V?$_Umap_traits@HV?$unique_ptr@VBehaviorTree@pineBT@@U?$default_delete@VBehaviorTree@pineBT@@@std@@@std@@V?$_Uhash_compare@HU?$hash@H@std@@U?$equal_to@H@2@@2@V?$allocator@U?$pair@$$CBHV?$unique_ptr@VBehaviorTree@pineBT@@U?$default_delete@VBehaviorTree@pineBT@@@std@@@std@@@std@@@2@$0A@@std@@@std@@IEAA?AU?$pair@PEAU?$_List_node@U?$pair@$$CBHV?$unique_ptr@VBehaviorTree@pineBT@@U?$default_delete@VBehaviorTree@pineBT@@@std@@@std@@@std@@PEAX@std@@_N@1@AEBH@Z
        841  348 0002C5A0 ??$_Try_emplace@AEBI$$V@?$_Hash@V?$_Umap_traits@IW4Result@Behavior@pineBT@@V?$_Uhash_compare@IU?$hash@I@std@@U?$equal_to@I@2@@std@@V?$allocator@U?$pair@$$CBIW4Result@Behavior@pineBT@@@std@@@5@$0A@@std@@@std@@IEAA?AU?$pair@PEAU?$_List_node@U?$pair@$$CBIW4Result@Behavior@pineBT@@@std@@PEAX@std@@_N@1@AEBI@Z
        842  349 00006790 ??$_Try_emplace@AEBV?$basic_string@DU?$char_traits@D@std@@V?$allocator@D@2@@std@@$$V@?$_Hash@V?$_Umap_traits@V?$basic_string@DU?$char_traits@D@std@@V?$allocator@D@2@@std@@HV?$_Uhash_compare@V?$basic_string@DU?$char_traits@D@std@@V?$allocator@D@2@@std@@U?$hash@V?$basic_string@DU?$char_traits@D@std@@V?$allocator@D@2@@std@@@2@U?$equal_to@V?$basic_string@DU?$char_traits@D@std@@V?$allocator@D@2@@std@@@2@@2@V?$allocator@U?$pair@$$CBV?$basic_string@DU?$char_traits@D@std@@V?$allocator@D@2@@std@@H@std@@@2@$0A@@std@@@std@@IEAA?AU?$pair@PEAU?$_List_node@U?$pair@$$CBV?$basic_string@DU?$char_traits@D@std@@V?$allocator@D@2@@std@@H@std@@PEAX@std@@_N@1@AEBV?$basic_string@DU?$char_traits@D@std@@V?$allocator@D@2@@1@@Z
        843  34A 00013770 ??$_Try_emplace@AEBV?$basic_string@DU?$char_traits@D@std@@V?$allocator@D@2@@std@@$$V@?$_Hash@V?$_Umap_traits@V?$basic_string@DU?$char_traits@D@std@@V?$allocator@D@2@@std@@UBehaviorSchema@pineBT@@V?$_Uhash_compare@V?$basic_string@DU?$char_traits@D@std@@V?$allocator@D@2@@std@@U?$hash@V?$basic_string@DU?$char_traits@D@std@@V?$allocator@D@2@@std@@@2@U?$equal_to@V?$basic_string@DU?$char_traits@D@std@@V?$allocator@D@2@@std@@@2@@2@V?$allocator@U?$pair@$$CBV?$basic_string@DU?$char_traits@D@std@@V?$allocator@D@2@@std@@UBehaviorSchema@pineBT@@@std@@@2@$0A@@std@@@std@@IEAA?AU?$pair@PEAU?$_List_node@U?$pair@$$CBV?$basic_string@DU?$char_traits@D@std@@V?$allocator@D@2@@std@@UBehaviorSchema@pineBT@@@std@@PEAX@std@@_N@1@AEBV?$basic_string@DU?$char_traits@D@std@@V?$allocator@D@2@@1@@Z
        844  34B 00013A60 ??$_Try_emplace@AEBV?$basic_string@DU?$char_traits@D@std@@V?$allocator@D@2@@std@@$$V@?$_Hash@V?$_Umap_traits@V?$basic_string@DU?$char_traits@D@std@@V?$allocator@D@2@@std@@V?$function@$$A6APEAVBehavior@pineBT@@AEBV?$basic_string@DU?$char_traits@D@std@@V?$allocator@D@2@@std@@AEAVBehaviorTree@2@@Z@2@V?$_Uhash_compare@V?$basic_string@DU?$char_traits@D@std@@V?$allocator@D@2@@std@@U?$hash@V?$basic_string@DU?$char_traits@D@std@@V?$allocator@D@2@@std@@@2@U?$equal_to@V?$basic_string@DU?$char_traits@D@std@@V?$allocator@D@2@@std@@@2@@2@V?$allocator@U?$pair@$$CBV?$basic_string@DU?$char_traits@D@std@@V?$allocator@D@2@@std@@V?$function@$$A6APEAVBehavior@pineBT@@AEBV?$basic_string@DU?$char_traits@D@std@@V?$allocator@D@2@@std@@AEAVBehaviorTree@2@@Z@2@@std@@@2@$0A@@std@@@std@@IEAA?AU?$pair@PEAU?$_List_node@U?$pair@$$CBV?$basic_string@DU?$char_traits@D@std@@V?$allocator@D@2@@std@@V?$function@$$A6APEAVBehavior@pineBT@@AEBV?$basic_string@DU?$char_traits@D@std@@V?$allocator@D@2@@std@@AEAVBehaviorTree@2@@Z@2@@std@@PEAX@std@@_N@1@AEBV?$basic_string@DU?$char_traits@D@std@@V?$allocator@D@2@@1@@Z
        845  34C 0002FF90 ??$_Try_emplace@AEBV?$basic_string@DU?$char_traits@D@std@@V?$allocator@D@2@@std@@$$V@?$map@V?$basic_string@DU?$char_traits@D@std@@V?$allocator@D@2@@std@@V?$basic_json@Vmap@std@@Vvector@2@V?$basic_string@DU?$char_traits@D@std@@V?$allocator@D@2@@2@_N_J_KNVallocator@2@Uadl_serializer@json_abi_v3_11_2@nlohmann@@V?$vector@EV?$allocator@E@std@@@2@@json_abi_v3_11_2@nlohmann@@U?$less@X@2@V?$allocator@U?$pair@$$CBV?$basic_string@DU?$char_traits@D@std@@V?$allocator@D@2@@std@@V?$basic_json@Vmap@std@@Vvector@2@V?$basic_string@DU?$char_traits@D@std@@V?$allocator@D@2@@2@_N_J_KNVallocator@2@Uadl_serializer@json_abi_v3_11_2@nlohmann@@V?$vector@EV?$allocator@E@std@@@2@@json_abi_v3_11_2@nlohmann@@@std@@@2@@std@@AEAA?AU?$pair@PEAU?$_Tree_node@U?$pair@$$CBV?$basic_string@DU?$char_traits@D@std@@V?$allocator@D@2@@std@@V?$basic_json@Vmap@std@@Vvector@2@V?$basic_string@DU?$char_traits@D@std@@V?$allocator@D@2@@2@_N_J_KNVallocator@2@Uadl_serializer@json_abi_v3_11_2@nlohmann@@V?$vector@EV?$allocator@E@std@@@2@@json_abi_v3_11_2@nlohmann@@@std@@PEAX@std@@_N@1@AEBV?$basic_string@DU?$char_traits@D@std@@V?$allocator@D@2@@1@@Z
        846  34D 00002E00 ??$_Tuple_get@$0A@AEBH@std@@YA$$QEA_P$$QEAV?$tuple@AEBH@0@@Z
        847  34E 00002E00 ??$_Tuple_get@$0A@AEBI@std@@YA$$QEA_P$$QEAV?$tuple@AEBI@0@@Z
        848  34F 00002E00 ??$_Tuple_get@$0A@AEBV?$basic_string@DU?$char_traits@D@std@@V?$allocator@D@2@@std@@@std@@YA$$QEA_P$$QEAV?$tuple@AEBV?$basic_string@DU?$char_traits@D@std@@V?$allocator@D@2@@std@@@0@@Z
        849  350 00013D50 ??$_UIntegral_to_buff@DI@std@@YAPEADPEADI@Z
        850  351 00013D90 ??$_UIntegral_to_buff@D_K@std@@YAPEADPEAD_K@Z
        851  352 00013DD0 ??$_UIntegral_to_string@D_K@std@@YA?AV?$basic_string@DU?$char_traits@D@std@@V?$allocator@D@2@@0@_K@Z
        852  353 00002190 ??$_Unfancy@$$CBD@std@@YAPEBDPEBD@Z
        853  354 00002190 ??$_Unfancy@D@std@@YAPEADPEAD@Z
        854  355 00002190 ??$_Unfancy@E@std@@YAPEAEPEAE@Z
        855  356 00002190 ??$_Unfancy@I@std@@YAPEAIPEAI@Z
        856  357 00002190 ??$_Unfancy@PEAV?$basic_json@Vmap@std@@Vvector@2@V?$basic_string@DU?$char_traits@D@std@@V?$allocator@D@2@@2@_N_J_KNVallocator@2@Uadl_serializer@json_abi_v3_11_2@nlohmann@@V?$vector@EV?$allocator@E@std@@@2@@json_abi_v3_11_2@nlohmann@@@std@@YAPEAPEAV?$basic_json@Vmap@std@@Vvector@2@V?$basic_string@DU?$char_traits@D@std@@V?$allocator@D@2@@2@_N_J_KNVallocator@2@Uadl_serializer@json_abi_v3_11_2@nlohmann@@V?$vector@EV?$allocator@E@std@@@2@@json_abi_v3_11_2@nlohmann@@PEAPEAV123@@Z
        857  358 00002190 ??$_Unfancy@PEAVBehavior@pineBT@@@std@@YAPEAPEAVBehavior@pineBT@@PEAPEAV12@@Z
        858  359 00002190 ??$_Unfancy@U_Container_proxy@std@@@std@@YAPEAU_Container_proxy@0@PEAU10@@Z
        859  35A 00002190 ??$_Unfancy@V?$basic_json@Vmap@std@@Vvector@2@V?$basic_string@DU?$char_traits@D@std@@V?$allocator@D@2@@2@_N_J_KNVallocator@2@Uadl_serializer@json_abi_v3_11_2@nlohmann@@V?$vector@EV?$allocator@E@std@@@2@@json_abi_v3_11_2@nlohmann@@@std@@YAPEAV?$basic_json@Vmap@std@@Vvector@2@V?$basic_string@DU?$char_traits@D@std@@V?$allocator@D@2@@2@_N_J_KNVallocator@2@Uadl_serializer@json_abi_v3_11_2@nlohmann@@V?$vector@EV?$allocator@E@std@@@2@@json_abi_v3_11_2@nlohmann@@PEAV123@@Z
        860  35B 00002190 ??$_Unfancy@V?$basic_string@DU?$char_traits@D@std@@V?$allocator@D@2@@std@@@std@@YAPEAV?$basic_string@DU?$char_traits@D@std@@V?$allocator@D@2@@0@PEAV10@@Z
        861  35C 00002190 ??$_Unfancy@V?$unique_ptr@UBehaviorTreeBuilderContext@pineBT@@U?$default_delete@UBehaviorTreeBuilderContext@pineBT@@@std@@@std@@@std@@YAPEAV?$unique_ptr@UBehaviorTreeBuilderContext@pineBT@@U?$default_delete@UBehaviorTreeBuilderContext@pineBT@@@std@@@0@PEAV10@@Z
        862  35D 00002190 ??$_Unfancy_maybe_null@I@std@@YAPEAIPEAI@Z
        863  35E 00002C90 ??$_Uninitialized_copy@PEAEPEAEV?$allocator@E@std@@@std@@YAPEAEPEAE00AEAV?$allocator@E@0@@Z
        864  35F 00004260 ??$_Uninitialized_copy@PEAPEAVBehavior@pineBT@@PEAPEAV12@V?$allocator@PEAVBehavior@pineBT@@@std@@@std@@YAPEAPEAVBehavior@pineBT@@PEAPEAV12@00AEAV?$allocator@PEAVBehavior@pineBT@@@0@@Z
        865  360 00013E60 ??$_Uninitialized_copy@PEAV?$basic_json@Vmap@std@@Vvector@2@V?$basic_string@DU?$char_traits@D@std@@V?$allocator@D@2@@2@_N_J_KNVallocator@2@Uadl_serializer@json_abi_v3_11_2@nlohmann@@V?$vector@EV?$allocator@E@std@@@2@@json_abi_v3_11_2@nlohmann@@PEAV123@V?$allocator@V?$basic_json@Vmap@std@@Vvector@2@V?$basic_string@DU?$char_traits@D@std@@V?$allocator@D@2@@2@_N_J_KNVallocator@2@Uadl_serializer@json_abi_v3_11_2@nlohmann@@V?$vector@EV?$allocator@E@std@@@2@@json_abi_v3_11_2@nlohmann@@@std@@@std@@YAPEAV?$basic_json@Vmap@std@@Vvector@2@V?$basic_string@DU?$char_traits@D@std@@V?$allocator@D@2@@2@_N_J_KNVallocator@2@Uadl_serializer@json_abi_v3_11_2@nlohmann@@V?$vector@EV?$allocator@E@std@@@2@@json_abi_v3_11_2@nlohmann@@PEAV123@00AEAV?$allocator@V?$basic_json@Vmap@std@@Vvector@2@V?$basic_string@DU?$char_traits@D@std@@V?$allocator@D@2@@2@_N_J_KNVallocator@2@Uadl_serializer@json_abi_v3_11_2@nlohmann@@V?$vector@EV?$allocator@E@std@@@2@@json_abi_v3_11_2@nlohmann@@@0@@Z
        866  361 00006A10 ??$_Uninitialized_copy@PEAV?$basic_string@DU?$char_traits@D@std@@V?$allocator@D@2@@std@@PEAV12@V?$allocator@V?$basic_string@DU?$char_traits@D@std@@V?$allocator@D@2@@std@@@2@@std@@YAPEAV?$basic_string@DU?$char_traits@D@std@@V?$allocator@D@2@@0@PEAV10@00AEAV?$allocator@V?$basic_string@DU?$char_traits@D@std@@V?$allocator@D@2@@std@@@0@@Z
        867  362 00006A90 ??$_Uninitialized_copy_n@PEAV?$basic_string@DU?$char_traits@D@std@@V?$allocator@D@2@@std@@V?$allocator@V?$basic_string@DU?$char_traits@D@std@@V?$allocator@D@2@@std@@@2@@std@@YAPEAV?$basic_string@DU?$char_traits@D@std@@V?$allocator@D@2@@0@PEAV10@_K0AEAV?$allocator@V?$basic_string@DU?$char_traits@D@std@@V?$allocator@D@2@@std@@@0@@Z
        868  363 00006A90 ??$_Uninitialized_copy_n@PEBV?$basic_string@DU?$char_traits@D@std@@V?$allocator@D@2@@std@@V?$allocator@V?$basic_string@DU?$char_traits@D@std@@V?$allocator@D@2@@std@@@2@@std@@YAPEAV?$basic_string@DU?$char_traits@D@std@@V?$allocator@D@2@@0@PEBV10@_KPEAV10@AEAV?$allocator@V?$basic_string@DU?$char_traits@D@std@@V?$allocator@D@2@@std@@@0@@Z
        869  364 00002C90 ??$_Uninitialized_copy_unchecked@PEAPEAPEAVBehavior@pineBT@@PEAPEAPEAV12@@std@@YAPEAPEAPEAVBehavior@pineBT@@PEAPEAPEAV12@QEAPEAPEAV12@0@Z
        870  365 00002C90 ??$_Uninitialized_copy_unchecked@PEAPEAV?$unique_ptr@UBehaviorTreeBuilderContext@pineBT@@U?$default_delete@UBehaviorTreeBuilderContext@pineBT@@@std@@@std@@PEAPEAV12@@std@@YAPEAPEAV?$unique_ptr@UBehaviorTreeBuilderContext@pineBT@@U?$default_delete@UBehaviorTreeBuilderContext@pineBT@@@std@@@0@PEAPEAV10@QEAPEAV10@0@Z
        871  366 00030130 ??$_Uninitialized_fill_n@V?$allocator@I@std@@@std@@YAPEAIPEAI_KAEBIAEAV?$allocator@I@0@@Z
        872  367 00002C90 ??$_Uninitialized_move@PEADV?$allocator@D@std@@@std@@YAPEADQEAD0PEADAEAV?$allocator@D@0@@Z
        873  368 00030190 ??$_Uninitialized_move@PEAIV?$allocator@I@std@@@std@@YAPEAIQEAI0PEAIAEAV?$allocator@I@0@@Z
        874  369 00004260 ??$_Uninitialized_move@PEAPEAV?$basic_json@Vmap@std@@Vvector@2@V?$basic_string@DU?$char_traits@D@std@@V?$allocator@D@2@@2@_N_J_KNVallocator@2@Uadl_serializer@json_abi_v3_11_2@nlohmann@@V?$vector@EV?$allocator@E@std@@@2@@json_abi_v3_11_2@nlohmann@@V?$allocator@PEAV?$basic_json@Vmap@std@@Vvector@2@V?$basic_string@DU?$char_traits@D@std@@V?$allocator@D@2@@2@_N_J_KNVallocator@2@Uadl_serializer@json_abi_v3_11_2@nlohmann@@V?$vector@EV?$allocator@E@std@@@2@@json_abi_v3_11_2@nlohmann@@@std@@@std@@YAPEAPEAV?$basic_json@Vmap@std@@Vvector@2@V?$basic_string@DU?$char_traits@D@std@@V?$allocator@D@2@@2@_N_J_KNVallocator@2@Uadl_serializer@json_abi_v3_11_2@nlohmann@@V?$vector@EV?$allocator@E@std@@@2@@json_abi_v3_11_2@nlohmann@@QEAPEAV123@0PEAPEAV123@AEAV?$allocator@PEAV?$basic_json@Vmap@std@@Vvector@2@V?$basic_string@DU?$char_traits@D@std@@V?$allocator@D@2@@2@_N_J_KNVallocator@2@Uadl_serializer@json_abi_v3_11_2@nlohmann@@V?$vector@EV?$allocator@E@std@@@2@@json_abi_v3_11_2@nlohmann@@@0@@Z
        875  36A 00004260 ??$_Uninitialized_move@PEAPEAVBehavior@pineBT@@V?$allocator@PEAVBehavior@pineBT@@@std@@@std@@YAPEAPEAVBehavior@pineBT@@QEAPEAV12@0PEAPEAV12@AEAV?$allocator@PEAVBehavior@pineBT@@@0@@Z
        876  36B 00013EC0 ??$_Uninitialized_move@PEAV?$basic_json@Vmap@std@@Vvector@2@V?$basic_string@DU?$char_traits@D@std@@V?$allocator@D@2@@2@_N_J_KNVallocator@2@Uadl_serializer@json_abi_v3_11_2@nlohmann@@V?$vector@EV?$allocator@E@std@@@2@@json_abi_v3_11_2@nlohmann@@V?$allocator@V?$basic_json@Vmap@std@@Vvector@2@V?$basic_string@DU?$char_traits@D@std@@V?$allocator@D@2@@2@_N_J_KNVallocator@2@Uadl_serializer@json_abi_v3_11_2@nlohmann@@V?$vector@EV?$allocator@E@std@@@2@@json_abi_v3_11_2@nlohmann@@@std@@@std@@YAPEAV?$basic_json@Vmap@std@@Vvector@2@V?$basic_string@DU?$char_traits@D@std@@V?$allocator@D@2@@2@_N_J_KNVallocator@2@Uadl_serializer@json_abi_v3_11_2@nlohmann@@V?$vector@EV?$allocator@E@std@@@2@@json_abi_v3_11_2@nlohmann@@QEAV123@0PEAV123@AEAV?$allocator@V?$basic_json@Vmap@std@@Vvector@2@V?$basic_string@DU?$char_traits@D@std@@V?$allocator@D@2@@2@_N_J_KNVallocator@2@Uadl_serializer@json_abi_v3_11_2@nlohmann@@V?$vector@EV?$allocator@E@std@@@2@@json_abi_v3_11_2@nlohmann@@@0@@Z
        877  36C 00006B10 ??$_Uninitialized_move@PEAV?$basic_string@DU?$char_traits@D@std@@V?$allocator@D@2@@std@@V?$allocator@V?$basic_string@DU?$char_traits@D@std@@V?$allocator@D@2@@std@@@2@@std@@YAPEAV?$basic_string@DU?$char_traits@D@std@@V?$allocator@D@2@@0@QEAV10@0PEAV10@AEAV?$allocator@V?$basic_string@DU?$char_traits@D@std@@V?$allocator@D@2@@std@@@0@@Z
        878  36D 00040040 ??$_Uninitialized_value_construct_n@V?$allocator@V?$basic_json@Vmap@std@@Vvector@2@V?$basic_string@DU?$char_traits@D@std@@V?$allocator@D@2@@2@_N_J_KNVallocator@2@Uadl_serializer@json_abi_v3_11_2@nlohmann@@V?$vector@EV?$allocator@E@std@@@2@@json_abi_v3_11_2@nlohmann@@@std@@@std@@YAPEAV?$basic_json@Vmap@std@@Vvector@2@V?$basic_string@DU?$char_traits@D@std@@V?$allocator@D@2@@2@_N_J_KNVallocator@2@Uadl_serializer@json_abi_v3_11_2@nlohmann@@V?$vector@EV?$allocator@E@std@@@2@@json_abi_v3_11_2@nlohmann@@PEAV123@_KAEAV?$allocator@V?$basic_json@Vmap@std@@Vvector@2@V?$basic_string@DU?$char_traits@D@std@@V?$allocator@D@2@@2@_N_J_KNVallocator@2@Uadl_serializer@json_abi_v3_11_2@nlohmann@@V?$vector@EV?$allocator@E@std@@@2@@json_abi_v3_11_2@nlohmann@@@0@@Z
        879  36E 00002E20 ??$_Uninitialized_value_construct_n_unchecked1@PEAPEAPEAVBehavior@pineBT@@_K@std@@YAPEAPEAPEAVBehavior@pineBT@@PEAPEAPEAV12@_K@Z
        880  36F 00002E20 ??$_Uninitialized_value_construct_n_unchecked1@PEAPEAV?$unique_ptr@UBehaviorTreeBuilderContext@pineBT@@U?$default_delete@UBehaviorTreeBuilderContext@pineBT@@@std@@@std@@_K@std@@YAPEAPEAV?$unique_ptr@UBehaviorTreeBuilderContext@pineBT@@U?$default_delete@UBehaviorTreeBuilderContext@pineBT@@@std@@@0@PEAPEAV10@_K@Z
        881  370 00002E00 ??$_Unwrap_iter@PEADPEAD@ranges@std@@YA?A_T$$QEAPEAD@Z
        882  371 00002E00 ??$_Unwrap_iter@PEAEPEAE@ranges@std@@YA?A_T$$QEAPEAE@Z
        883  372 00002E00 ??$_Unwrap_iter@PEAPEAVBehavior@pineBT@@PEAPEAV12@@ranges@std@@YA?A_T$$QEAPEAPEAVBehavior@pineBT@@@Z
        884  373 00002E00 ??$_Unwrap_iter@PEAV?$basic_json@Vmap@std@@Vvector@2@V?$basic_string@DU?$char_traits@D@std@@V?$allocator@D@2@@2@_N_J_KNVallocator@2@Uadl_serializer@json_abi_v3_11_2@nlohmann@@V?$vector@EV?$allocator@E@std@@@2@@json_abi_v3_11_2@nlohmann@@PEAV123@@ranges@std@@YA?A_T$$QEAPEAV?$basic_json@Vmap@std@@Vvector@2@V?$basic_string@DU?$char_traits@D@std@@V?$allocator@D@2@@2@_N_J_KNVallocator@2@Uadl_serializer@json_abi_v3_11_2@nlohmann@@V?$vector@EV?$allocator@E@std@@@2@@json_abi_v3_11_2@nlohmann@@@Z
        885  374 00002E00 ??$_Unwrap_iter@PEAV?$basic_string@DU?$char_traits@D@std@@V?$allocator@D@2@@std@@PEAV12@@ranges@std@@YA?A_T$$QEAPEAV?$basic_string@DU?$char_traits@D@std@@V?$allocator@D@2@@1@@Z
        886  375 00002E00 ??$_Unwrap_iter@PEBDPEBD@ranges@std@@YA?A_T$$QEAPEBD@Z
        887  376 00002E00 ??$_Unwrap_iter@V?$_String_view_iterator@U?$char_traits@D@std@@@std@@V12@@ranges@std@@YA?A_T$$QEAV?$_String_view_iterator@U?$char_traits@D@std@@@1@@Z
        888  377 00002E00 ??$_Unwrap_range_iter@AEAV?$basic_string_view@DU?$char_traits@D@std@@@std@@V?$_String_view_iterator@U?$char_traits@D@std@@@2@@ranges@std@@YA?A_T$$QEAV?$_String_view_iterator@U?$char_traits@D@std@@@1@@Z
        889  378 00002E00 ??$_Unwrap_range_iter@AEBV?$basic_string_view@DU?$char_traits@D@std@@@std@@V?$_String_view_iterator@U?$char_traits@D@std@@@2@@ranges@std@@YA?A_T$$QEAV?$_String_view_iterator@U?$char_traits@D@std@@@1@@Z
        890  379 00002E00 ??$_Unwrap_sent@PEADPEAD@ranges@std@@YA?A_T$$QEAPEAD@Z
        891  37A 00002E00 ??$_Unwrap_sent@PEAEPEAE@ranges@std@@YA?A_T$$QEAPEAE@Z
        892  37B 00002E00 ??$_Unwrap_sent@PEAPEAVBehavior@pineBT@@PEAPEAV12@@ranges@std@@YA?A_T$$QEAPEAPEAVBehavior@pineBT@@@Z
        893  37C 00002E00 ??$_Unwrap_sent@PEAV?$basic_json@Vmap@std@@Vvector@2@V?$basic_string@DU?$char_traits@D@std@@V?$allocator@D@2@@2@_N_J_KNVallocator@2@Uadl_serializer@json_abi_v3_11_2@nlohmann@@V?$vector@EV?$allocator@E@std@@@2@@json_abi_v3_11_2@nlohmann@@PEAV123@@ranges@std@@YA?A_T$$QEAPEAV?$basic_json@Vmap@std@@Vvector@2@V?$basic_string@DU?$char_traits@D@std@@V?$allocator@D@2@@2@_N_J_KNVallocator@2@Uadl_serializer@json_abi_v3_11_2@nlohmann@@V?$vector@EV?$allocator@E@std@@@2@@json_abi_v3_11_2@nlohmann@@@Z
        894  37D 00002E00 ??$_Unwrap_sent@PEAV?$basic_string@DU?$char_traits@D@std@@V?$allocator@D@2@@std@@PEAV12@@ranges@std@@YA?A_T$$QEAPEAV?$basic_string@DU?$char_traits@D@std@@V?$allocator@D@2@@1@@Z
        895  37E 00002E00 ??$_Unwrap_sent@PEBDPEBD@ranges@std@@YA?A_T$$QEAPEBD@Z
        896  37F 00002190 ??$_Voidify_iter@PEAD@std@@YAPEAXPEAD@Z
        897  380 00002190 ??$_Voidify_iter@PEAE@std@@YAPEAXPEAE@Z
        898  381 00002190 ??$_Voidify_iter@PEAI@std@@YAPEAXPEAI@Z
        899  382 00002190 ??$_Voidify_iter@PEAPEAD@std@@YAPEAXPEAPEAD@Z
        900  383 00002190 ??$_Voidify_iter@PEAPEAPEAVBehavior@pineBT@@@std@@YAPEAXPEAPEAPEAVBehavior@pineBT@@@Z
        901  384 00002190 ??$_Voidify_iter@PEAPEAU?$_List_node@U?$pair@$$CBHV?$unique_ptr@VBehaviorTree@pineBT@@U?$default_delete@VBehaviorTree@pineBT@@@std@@@std@@@std@@PEAX@std@@@std@@YAPEAXPEAPEAU?$_List_node@U?$pair@$$CBHV?$unique_ptr@VBehaviorTree@pineBT@@U?$default_delete@VBehaviorTree@pineBT@@@std@@@std@@@std@@PEAX@0@@Z
        902  385 00002190 ??$_Voidify_iter@PEAPEAU?$_List_node@U?$pair@$$CBIW4Result@Behavior@pineBT@@@std@@PEAX@std@@@std@@YAPEAXPEAPEAU?$_List_node@U?$pair@$$CBIW4Result@Behavior@pineBT@@@std@@PEAX@0@@Z
        903  386 00002190 ??$_Voidify_iter@PEAPEAU?$_List_node@U?$pair@$$CBV?$basic_string@DU?$char_traits@D@std@@V?$allocator@D@2@@std@@H@std@@PEAX@std@@@std@@YAPEAXPEAPEAU?$_List_node@U?$pair@$$CBV?$basic_string@DU?$char_traits@D@std@@V?$allocator@D@2@@std@@H@std@@PEAX@0@@Z
        904  387 00002190 ??$_Voidify_iter@PEAPEAU?$_List_node@U?$pair@$$CBV?$basic_string@DU?$char_traits@D@std@@V?$allocator@D@2@@std@@UBehaviorSchema@pineBT@@@std@@PEAX@std@@@std@@YAPEAXPEAPEAU?$_List_node@U?$pair@$$CBV?$basic_string@DU?$char_traits@D@std@@V?$allocator@D@2@@std@@UBehaviorSchema@pineBT@@@std@@PEAX@0@@Z
        905  388 00002190 ??$_Voidify_iter@PEAPEAU?$_List_node@U?$pair@$$CBV?$basic_string@DU?$char_traits@D@std@@V?$allocator@D@2@@std@@V?$function@$$A6APEAVBehavior@pineBT@@AEBV?$basic_string@DU?$char_traits@D@std@@V?$allocator@D@2@@std@@AEAVBehaviorTree@2@@Z@2@@std@@PEAX@std@@@std@@YAPEAXPEAPEAU?$_List_node@U?$pair@$$CBV?$basic_string@DU?$char_traits@D@std@@V?$allocator@D@2@@std@@V?$function@$$A6APEAVBehavior@pineBT@@AEBV?$basic_string@DU?$char_traits@D@std@@V?$allocator@D@2@@std@@AEAVBehaviorTree@2@@Z@2@@std@@PEAX@0@@Z
        906  389 00002190 ??$_Voidify_iter@PEAPEAU?$_Tree_node@U?$pair@$$CBV?$basic_string@DU?$char_traits@D@std@@V?$allocator@D@2@@std@@V?$basic_json@Vmap@std@@Vvector@2@V?$basic_string@DU?$char_traits@D@std@@V?$allocator@D@2@@2@_N_J_KNVallocator@2@Uadl_serializer@json_abi_v3_11_2@nlohmann@@V?$vector@EV?$allocator@E@std@@@2@@json_abi_v3_11_2@nlohmann@@@std@@PEAX@std@@@std@@YAPEAXPEAPEAU?$_Tree_node@U?$pair@$$CBV?$basic_string@DU?$char_traits@D@std@@V?$allocator@D@2@@std@@V?$basic_json@Vmap@std@@Vvector@2@V?$basic_string@DU?$char_traits@D@std@@V?$allocator@D@2@@2@_N_J_KNVallocator@2@Uadl_serializer@json_abi_v3_11_2@nlohmann@@V?$vector@EV?$allocator@E@std@@@2@@json_abi_v3_11_2@nlohmann@@@std@@PEAX@0@@Z
        907  38A 00002190 ??$_Voidify_iter@PEAPEAV?$basic_json@Vmap@std@@Vvector@2@V?$basic_string@DU?$char_traits@D@std@@V?$allocator@D@2@@2@_N_J_KNVallocator@2@Uadl_serializer@json_abi_v3_11_2@nlohmann@@V?$vector@EV?$allocator@E@std@@@2@@json_abi_v3_11_2@nlohmann@@@std@@YAPEAXPEAPEAV?$basic_json@Vmap@std@@Vvector@2@V?$basic_string@DU?$char_traits@D@std@@V?$allocator@D@2@@2@_N_J_KNVallocator@2@Uadl_serializer@json_abi_v3_11_2@nlohmann@@V?$vector@EV?$allocator@E@std@@@2@@json_abi_v3_11_2@nlohmann@@@Z
        908  38B 00002190 ??$_Voidify_iter@PEAPEAV?$unique_ptr@UBehaviorTreeBuilderContext@pineBT@@U?$default_delete@UBehaviorTreeBuilderContext@pineBT@@@std@@@std@@@std@@YAPEAXPEAPEAV?$unique_ptr@UBehaviorTreeBuilderContext@pineBT@@U?$default_delete@UBehaviorTreeBuilderContext@pineBT@@@std@@@0@@Z
        909  38C 00002190 ??$_Voidify_iter@PEAPEAVBehavior@pineBT@@@std@@YAPEAXPEAPEAVBehavior@pineBT@@@Z
        910  38D 00002190 ??$_Voidify_iter@PEAU?$pair@$$CBHV?$unique_ptr@VBehaviorTree@pineBT@@U?$default_delete@VBehaviorTree@pineBT@@@std@@@std@@@std@@@std@@YAPEAXPEAU?$pair@$$CBHV?$unique_ptr@VBehaviorTree@pineBT@@U?$default_delete@VBehaviorTree@pineBT@@@std@@@std@@@0@@Z
        911  38E 00002190 ??$_Voidify_iter@PEAU?$pair@$$CBIW4Result@Behavior@pineBT@@@std@@@std@@YAPEAXPEAU?$pair@$$CBIW4Result@Behavior@pineBT@@@0@@Z
        912  38F 00002190 ??$_Voidify_iter@PEAU?$pair@$$CBV?$basic_string@DU?$char_traits@D@std@@V?$allocator@D@2@@std@@H@std@@@std@@YAPEAXPEAU?$pair@$$CBV?$basic_string@DU?$char_traits@D@std@@V?$allocator@D@2@@std@@H@0@@Z
        913  390 00002190 ??$_Voidify_iter@PEAU?$pair@$$CBV?$basic_string@DU?$char_traits@D@std@@V?$allocator@D@2@@std@@UBehaviorSchema@pineBT@@@std@@@std@@YAPEAXPEAU?$pair@$$CBV?$basic_string@DU?$char_traits@D@std@@V?$allocator@D@2@@std@@UBehaviorSchema@pineBT@@@0@@Z
        914  391 00002190 ??$_Voidify_iter@PEAU?$pair@$$CBV?$basic_string@DU?$char_traits@D@std@@V?$allocator@D@2@@std@@V?$basic_json@Vmap@std@@Vvector@2@V?$basic_string@DU?$char_traits@D@std@@V?$allocator@D@2@@2@_N_J_KNVallocator@2@Uadl_serializer@json_abi_v3_11_2@nlohmann@@V?$vector@EV?$allocator@E@std@@@2@@json_abi_v3_11_2@nlohmann@@@std@@@std@@YAPEAXPEAU?$pair@$$CBV?$basic_string@DU?$char_traits@D@std@@V?$allocator@D@2@@std@@V?$basic_json@Vmap@std@@Vvector@2@V?$basic_string@DU?$char_traits@D@std@@V?$allocator@D@2@@2@_N_J_KNVallocator@2@Uadl_serializer@json_abi_v3_11_2@nlohmann@@V?$vector@EV?$allocator@E@std@@@2@@json_abi_v3_11_2@nlohmann@@@0@@Z
        915  392 00002190 ??$_Voidify_iter@PEAU?$pair@$$CBV?$basic_string@DU?$char_traits@D@std@@V?$allocator@D@2@@std@@V?$function@$$A6APEAVBehavior@pineBT@@AEBV?$basic_string@DU?$char_traits@D@std@@V?$allocator@D@2@@std@@AEAVBehaviorTree@2@@Z@2@@std@@@std@@YAPEAXPEAU?$pair@$$CBV?$basic_string@DU?$char_traits@D@std@@V?$allocator@D@2@@std@@V?$function@$$A6APEAVBehavior@pineBT@@AEBV?$basic_string@DU?$char_traits@D@std@@V?$allocator@D@2@@std@@AEAVBehaviorTree@2@@Z@2@@0@@Z
        916  393 00002190 ??$_Voidify_iter@PEAU_Container_proxy@std@@@std@@YAPEAXPEAU_Container_proxy@0@@Z
        917  394 00002190 ??$_Voidify_iter@PEAV?$_List_unchecked_iterator@V?$_List_val@U?$_List_simple_types@U?$pair@$$CBHV?$unique_ptr@VBehaviorTree@pineBT@@U?$default_delete@VBehaviorTree@pineBT@@@std@@@std@@@std@@@std@@@std@@@std@@@std@@YAPEAXPEAV?$_List_unchecked_iterator@V?$_List_val@U?$_List_simple_types@U?$pair@$$CBHV?$unique_ptr@VBehaviorTree@pineBT@@U?$default_delete@VBehaviorTree@pineBT@@@std@@@std@@@std@@@std@@@std@@@0@@Z
        918  395 00002190 ??$_Voidify_iter@PEAV?$_List_unchecked_iterator@V?$_List_val@U?$_List_simple_types@U?$pair@$$CBIW4Result@Behavior@pineBT@@@std@@@std@@@std@@@std@@@std@@YAPEAXPEAV?$_List_unchecked_iterator@V?$_List_val@U?$_List_simple_types@U?$pair@$$CBIW4Result@Behavior@pineBT@@@std@@@std@@@std@@@0@@Z
        919  396 00002190 ??$_Voidify_iter@PEAV?$_List_unchecked_iterator@V?$_List_val@U?$_List_simple_types@U?$pair@$$CBV?$basic_string@DU?$char_traits@D@std@@V?$allocator@D@2@@std@@H@std@@@std@@@std@@@std@@@std@@YAPEAXPEAV?$_List_unchecked_iterator@V?$_List_val@U?$_List_simple_types@U?$pair@$$CBV?$basic_string@DU?$char_traits@D@std@@V?$allocator@D@2@@std@@H@std@@@std@@@std@@@0@@Z
        920  397 00002190 ??$_Voidify_iter@PEAV?$_List_unchecked_iterator@V?$_List_val@U?$_List_simple_types@U?$pair@$$CBV?$basic_string@DU?$char_traits@D@std@@V?$allocator@D@2@@std@@UBehaviorSchema@pineBT@@@std@@@std@@@std@@@std@@@std@@YAPEAXPEAV?$_List_unchecked_iterator@V?$_List_val@U?$_List_simple_types@U?$pair@$$CBV?$basic_string@DU?$char_traits@D@std@@V?$allocator@D@2@@std@@UBehaviorSchema@pineBT@@@std@@@std@@@std@@@0@@Z
        921  398 00002190 ??$_Voidify_iter@PEAV?$_List_unchecked_iterator@V?$_List_val@U?$_List_simple_types@U?$pair@$$CBV?$basic_string@DU?$char_traits@D@std@@V?$allocator@D@2@@std@@V?$function@$$A6APEAVBehavior@pineBT@@AEBV?$basic_string@DU?$char_traits@D@std@@V?$allocator@D@2@@std@@AEAVBehaviorTree@2@@Z@2@@std@@@std@@@std@@@std@@@std@@YAPEAXPEAV?$_List_unchecked_iterator@V?$_List_val@U?$_List_simple_types@U?$pair@$$CBV?$basic_string@DU?$char_traits@D@std@@V?$allocator@D@2@@std@@V?$function@$$A6APEAVBehavior@pineBT@@AEBV?$basic_string@DU?$char_traits@D@std@@V?$allocator@D@2@@std@@AEAVBehaviorTree@2@@Z@2@@std@@@std@@@std@@@0@@Z
        922  399 00002190 ??$_Voidify_iter@PEAV?$basic_json@Vmap@std@@Vvector@2@V?$basic_string@DU?$char_traits@D@std@@V?$allocator@D@2@@2@_N_J_KNVallocator@2@Uadl_serializer@json_abi_v3_11_2@nlohmann@@V?$vector@EV?$allocator@E@std@@@2@@json_abi_v3_11_2@nlohmann@@@std@@YAPEAXPEAV?$basic_json@Vmap@std@@Vvector@2@V?$basic_string@DU?$char_traits@D@std@@V?$allocator@D@2@@2@_N_J_KNVallocator@2@Uadl_serializer@json_abi_v3_11_2@nlohmann@@V?$vector@EV?$allocator@E@std@@@2@@json_abi_v3_11_2@nlohmann@@@Z
        923  39A 00002190 ??$_Voidify_iter@PEAV?$basic_string@DU?$char_traits@D@std@@V?$allocator@D@2@@std@@@std@@YAPEAXPEAV?$basic_string@DU?$char_traits@D@std@@V?$allocator@D@2@@0@@Z
        924  39B 00002190 ??$_Voidify_iter@PEAV?$byte_container_with_subtype@V?$vector@EV?$allocator@E@std@@@std@@@json_abi_v3_11_2@nlohmann@@@std@@YAPEAXPEAV?$byte_container_with_subtype@V?$vector@EV?$allocator@E@std@@@std@@@json_abi_v3_11_2@nlohmann@@@Z
        925  39C 00002190 ??$_Voidify_iter@PEAV?$map@V?$basic_string@DU?$char_traits@D@std@@V?$allocator@D@2@@std@@V?$basic_json@Vmap@std@@Vvector@2@V?$basic_string@DU?$char_traits@D@std@@V?$allocator@D@2@@2@_N_J_KNVallocator@2@Uadl_serializer@json_abi_v3_11_2@nlohmann@@V?$vector@EV?$allocator@E@std@@@2@@json_abi_v3_11_2@nlohmann@@U?$less@X@2@V?$allocator@U?$pair@$$CBV?$basic_string@DU?$char_traits@D@std@@V?$allocator@D@2@@std@@V?$basic_json@Vmap@std@@Vvector@2@V?$basic_string@DU?$char_traits@D@std@@V?$allocator@D@2@@2@_N_J_KNVallocator@2@Uadl_serializer@json_abi_v3_11_2@nlohmann@@V?$vector@EV?$allocator@E@std@@@2@@json_abi_v3_11_2@nlohmann@@@std@@@2@@std@@@std@@YAPEAXPEAV?$map@V?$basic_string@DU?$char_traits@D@std@@V?$allocator@D@2@@std@@V?$basic_json@Vmap@std@@Vvector@2@V?$basic_string@DU?$char_traits@D@std@@V?$allocator@D@2@@2@_N_J_KNVallocator@2@Uadl_serializer@json_abi_v3_11_2@nlohmann@@V?$vector@EV?$allocator@E@std@@@2@@json_abi_v3_11_2@nlohmann@@U?$less@X@2@V?$allocator@U?$pair@$$CBV?$basic_string@DU?$char_traits@D@std@@V?$allocator@D@2@@std@@V?$basic_json@Vmap@std@@Vvector@2@V?$basic_string@DU?$char_traits@D@std@@V?$allocator@D@2@@2@_N_J_KNVallocator@2@Uadl_serializer@json_abi_v3_11_2@nlohmann@@V?$vector@EV?$allocator@E@std@@@2@@json_abi_v3_11_2@nlohmann@@@std@@@2@@0@@Z
        926  39D 00002190 ??$_Voidify_iter@PEAV?$output_string_adapter@DV?$basic_string@DU?$char_traits@D@std@@V?$allocator@D@2@@std@@@detail@json_abi_v3_11_2@nlohmann@@@std@@YAPEAXPEAV?$output_string_adapter@DV?$basic_string@DU?$char_traits@D@std@@V?$allocator@D@2@@std@@@detail@json_abi_v3_11_2@nlohmann@@@Z
        927  39E 00002190 ??$_Voidify_iter@PEAV?$unique_ptr@UBehaviorTreeBuilderContext@pineBT@@U?$default_delete@UBehaviorTreeBuilderContext@pineBT@@@std@@@std@@@std@@YAPEAXPEAV?$unique_ptr@UBehaviorTreeBuilderContext@pineBT@@U?$default_delete@UBehaviorTreeBuilderContext@pineBT@@@std@@@0@@Z
        928  39F 00002190 ??$_Voidify_iter@PEAV?$vector@V?$basic_json@Vmap@std@@Vvector@2@V?$basic_string@DU?$char_traits@D@std@@V?$allocator@D@2@@2@_N_J_KNVallocator@2@Uadl_serializer@json_abi_v3_11_2@nlohmann@@V?$vector@EV?$allocator@E@std@@@2@@json_abi_v3_11_2@nlohmann@@V?$allocator@V?$basic_json@Vmap@std@@Vvector@2@V?$basic_string@DU?$char_traits@D@std@@V?$allocator@D@2@@2@_N_J_KNVallocator@2@Uadl_serializer@json_abi_v3_11_2@nlohmann@@V?$vector@EV?$allocator@E@std@@@2@@json_abi_v3_11_2@nlohmann@@@std@@@std@@@std@@YAPEAXPEAV?$vector@V?$basic_json@Vmap@std@@Vvector@2@V?$basic_string@DU?$char_traits@D@std@@V?$allocator@D@2@@2@_N_J_KNVallocator@2@Uadl_serializer@json_abi_v3_11_2@nlohmann@@V?$vector@EV?$allocator@E@std@@@2@@json_abi_v3_11_2@nlohmann@@V?$allocator@V?$basic_json@Vmap@std@@Vvector@2@V?$basic_string@DU?$char_traits@D@std@@V?$allocator@D@2@@2@_N_J_KNVallocator@2@Uadl_serializer@json_abi_v3_11_2@nlohmann@@V?$vector@EV?$allocator@E@std@@@2@@json_abi_v3_11_2@nlohmann@@@std@@@0@@Z
        929  3A0 00013F00 ??$_Write_aligned@V?$back_insert_iterator@V?$_Fmt_buffer@D@std@@@std@@U?$_Basic_format_specs@D@2@AEAV<lambda_1>@?1???$_Fmt_write@DV?$back_insert_iterator@V?$_Fmt_buffer@D@std@@@std@@M@2@YA?AV12@V12@MAEBU32@V_Lazy_locale@2@@Z@@std@@YA?AV?$back_insert_iterator@V?$_Fmt_buffer@D@std@@@0@V10@HAEBU?$_Basic_format_specs@D@0@W4_Fmt_align@0@AEAV<lambda_1>@?1???$_Fmt_write@DV?$back_insert_iterator@V?$_Fmt_buffer@D@std@@@std@@M@0@YA?AV10@0M1V_Lazy_locale@0@@Z@@Z
        930  3A1 00013F00 ??$_Write_aligned@V?$back_insert_iterator@V?$_Fmt_buffer@D@std@@@std@@U?$_Basic_format_specs@D@2@AEAV<lambda_1>@?1???$_Fmt_write@DV?$back_insert_iterator@V?$_Fmt_buffer@D@std@@@std@@N@2@YA?AV12@V12@NAEBU32@V_Lazy_locale@2@@Z@@std@@YA?AV?$back_insert_iterator@V?$_Fmt_buffer@D@std@@@0@V10@HAEBU?$_Basic_format_specs@D@0@W4_Fmt_align@0@AEAV<lambda_1>@?1???$_Fmt_write@DV?$back_insert_iterator@V?$_Fmt_buffer@D@std@@@std@@N@0@YA?AV10@0N1V_Lazy_locale@0@@Z@@Z
        931  3A2 00013F00 ??$_Write_aligned@V?$back_insert_iterator@V?$_Fmt_buffer@D@std@@@std@@U?$_Basic_format_specs@D@2@AEAV<lambda_1>@?1???$_Fmt_write@DV?$back_insert_iterator@V?$_Fmt_buffer@D@std@@@std@@O@2@YA?AV12@V12@OAEBU32@V_Lazy_locale@2@@Z@@std@@YA?AV?$back_insert_iterator@V?$_Fmt_buffer@D@std@@@0@V10@HAEBU?$_Basic_format_specs@D@0@W4_Fmt_align@0@AEAV<lambda_1>@?1???$_Fmt_write@DV?$back_insert_iterator@V?$_Fmt_buffer@D@std@@@std@@O@0@YA?AV10@0O1V_Lazy_locale@0@@Z@@Z
        932  3A3 00014070 ??$_Write_aligned@V?$back_insert_iterator@V?$_Fmt_buffer@D@std@@@std@@U?$_Basic_format_specs@D@2@AEAV<lambda_1>@?1???$_Write_integral@DV?$back_insert_iterator@V?$_Fmt_buffer@D@std@@@std@@D@2@YA?AV12@V12@DU32@V_Lazy_locale@2@@Z@@std@@YA?AV?$back_insert_iterator@V?$_Fmt_buffer@D@std@@@0@V10@HAEBU?$_Basic_format_specs@D@0@W4_Fmt_align@0@AEAV<lambda_1>@?1???$_Write_integral@DV?$back_insert_iterator@V?$_Fmt_buffer@D@std@@@std@@D@0@YA?AV10@0DU20@V_Lazy_locale@0@@Z@@Z
        933  3A4 000141E0 ??$_Write_aligned@V?$back_insert_iterator@V?$_Fmt_buffer@D@std@@@std@@U?$_Basic_format_specs@D@2@AEAV<lambda_1>@?1???$_Write_integral@DV?$back_insert_iterator@V?$_Fmt_buffer@D@std@@@std@@E@2@YA?AV12@V12@EU32@V_Lazy_locale@2@@Z@@std@@YA?AV?$back_insert_iterator@V?$_Fmt_buffer@D@std@@@0@V10@HAEBU?$_Basic_format_specs@D@0@W4_Fmt_align@0@AEAV<lambda_1>@?1???$_Write_integral@DV?$back_insert_iterator@V?$_Fmt_buffer@D@std@@@std@@E@0@YA?AV10@0EU20@V_Lazy_locale@0@@Z@@Z
        934  3A5 00014350 ??$_Write_aligned@V?$back_insert_iterator@V?$_Fmt_buffer@D@std@@@std@@U?$_Basic_format_specs@D@2@AEAV<lambda_1>@?1???$_Write_integral@DV?$back_insert_iterator@V?$_Fmt_buffer@D@std@@@std@@H@2@YA?AV12@V12@HU32@V_Lazy_locale@2@@Z@@std@@YA?AV?$back_insert_iterator@V?$_Fmt_buffer@D@std@@@0@V10@HAEBU?$_Basic_format_specs@D@0@W4_Fmt_align@0@AEAV<lambda_1>@?1???$_Write_integral@DV?$back_insert_iterator@V?$_Fmt_buffer@D@std@@@std@@H@0@YA?AV10@0HU20@V_Lazy_locale@0@@Z@@Z
        935  3A6 000144C0 ??$_Write_aligned@V?$back_insert_iterator@V?$_Fmt_buffer@D@std@@@std@@U?$_Basic_format_specs@D@2@AEAV<lambda_1>@?1???$_Write_integral@DV?$back_insert_iterator@V?$_Fmt_buffer@D@std@@@std@@I@2@YA?AV12@V12@IU32@V_Lazy_locale@2@@Z@@std@@YA?AV?$back_insert_iterator@V?$_Fmt_buffer@D@std@@@0@V10@HAEBU?$_Basic_format_specs@D@0@W4_Fmt_align@0@AEAV<lambda_1>@?1???$_Write_integral@DV?$back_insert_iterator@V?$_Fmt_buffer@D@std@@@std@@I@0@YA?AV10@0IU20@V_Lazy_locale@0@@Z@@Z
        936  3A7 00014630 ??$_Write_aligned@V?$back_insert_iterator@V?$_Fmt_buffer@D@std@@@std@@U?$_Basic_format_specs@D@2@AEAV<lambda_1>@?1???$_Write_integral@DV?$back_insert_iterator@V?$_Fmt_buffer@D@std@@@std@@_J@2@YA?AV12@V12@_JU32@V_Lazy_locale@2@@Z@@std@@YA?AV?$back_insert_iterator@V?$_Fmt_buffer@D@std@@@0@V10@HAEBU?$_Basic_format_specs@D@0@W4_Fmt_align@0@AEAV<lambda_1>@?1???$_Write_integral@DV?$back_insert_iterator@V?$_Fmt_buffer@D@std@@@std@@_J@0@YA?AV10@0_JU20@V_Lazy_locale@0@@Z@@Z
        937  3A8 000144C0 ??$_Write_aligned@V?$back_insert_iterator@V?$_Fmt_buffer@D@std@@@std@@U?$_Basic_format_specs@D@2@AEAV<lambda_1>@?1???$_Write_integral@DV?$back_insert_iterator@V?$_Fmt_buffer@D@std@@@std@@_K@2@YA?AV12@V12@_KU32@V_Lazy_locale@2@@Z@@std@@YA?AV?$back_insert_iterator@V?$_Fmt_buffer@D@std@@@0@V10@HAEBU?$_Basic_format_specs@D@0@W4_Fmt_align@0@AEAV<lambda_1>@?1???$_Write_integral@DV?$back_insert_iterator@V?$_Fmt_buffer@D@std@@@std@@_K@0@YA?AV10@0_KU20@V_Lazy_locale@0@@Z@@Z
        938  3A9 000147A0 ??$_Write_aligned@V?$back_insert_iterator@V?$_Fmt_buffer@D@std@@@std@@U?$_Basic_format_specs@D@2@V<lambda_1>@?1???$_Fmt_write@DV?$back_insert_iterator@V?$_Fmt_buffer@D@std@@@std@@@2@YA?AV12@V12@QEBXAEBU32@V_Lazy_locale@2@@Z@@std@@YA?AV?$back_insert_iterator@V?$_Fmt_buffer@D@std@@@0@V10@HAEBU?$_Basic_format_specs@D@0@W4_Fmt_align@0@$$QEAV<lambda_1>@?1???$_Fmt_write@DV?$back_insert_iterator@V?$_Fmt_buffer@D@std@@@std@@@0@YA?AV10@0QEBX1V_Lazy_locale@0@@Z@@Z
        939  3AA 00014930 ??$_Write_aligned@V?$back_insert_iterator@V?$_Fmt_buffer@D@std@@@std@@U?$_Basic_format_specs@D@2@V<lambda_1>@?1???$_Fmt_write@DV?$back_insert_iterator@V?$_Fmt_buffer@D@std@@@std@@@2@YA?AV12@V12@V?$basic_string_view@DU?$char_traits@D@std@@@2@AEBU32@V_Lazy_locale@2@@Z@@std@@YA?AV?$back_insert_iterator@V?$_Fmt_buffer@D@std@@@0@V10@HAEBU?$_Basic_format_specs@D@0@W4_Fmt_align@0@$$QEAV<lambda_1>@?1???$_Fmt_write@DV?$back_insert_iterator@V?$_Fmt_buffer@D@std@@@std@@@0@YA?AV10@0V?$basic_string_view@DU?$char_traits@D@std@@@0@1V_Lazy_locale@0@@Z@@Z
        940  3AB 00014AF0 ??$_Write_integral@DV?$back_insert_iterator@V?$_Fmt_buffer@D@std@@@std@@D@std@@YA?AV?$back_insert_iterator@V?$_Fmt_buffer@D@std@@@0@V10@DU?$_Basic_format_specs@D@0@V_Lazy_locale@0@@Z
        941  3AC 00014FD0 ??$_Write_integral@DV?$back_insert_iterator@V?$_Fmt_buffer@D@std@@@std@@E@std@@YA?AV?$back_insert_iterator@V?$_Fmt_buffer@D@std@@@0@V10@EU?$_Basic_format_specs@D@0@V_Lazy_locale@0@@Z
        942  3AD 00015440 ??$_Write_integral@DV?$back_insert_iterator@V?$_Fmt_buffer@D@std@@@std@@H@std@@YA?AV?$back_insert_iterator@V?$_Fmt_buffer@D@std@@@0@V10@HU?$_Basic_format_specs@D@0@V_Lazy_locale@0@@Z
        943  3AE 000158E0 ??$_Write_integral@DV?$back_insert_iterator@V?$_Fmt_buffer@D@std@@@std@@I@std@@YA?AV?$back_insert_iterator@V?$_Fmt_buffer@D@std@@@0@V10@IU?$_Basic_format_specs@D@0@V_Lazy_locale@0@@Z
        944  3AF 00015D40 ??$_Write_integral@DV?$back_insert_iterator@V?$_Fmt_buffer@D@std@@@std@@_J@std@@YA?AV?$back_insert_iterator@V?$_Fmt_buffer@D@std@@@0@V10@_JU?$_Basic_format_specs@D@0@V_Lazy_locale@0@@Z
        945  3B0 000161D0 ??$_Write_integral@DV?$back_insert_iterator@V?$_Fmt_buffer@D@std@@@std@@_K@std@@YA?AV?$back_insert_iterator@V?$_Fmt_buffer@D@std@@@0@V10@_KU?$_Basic_format_specs@D@0@V_Lazy_locale@0@@Z
        946  3B1 00016630 ??$_Write_separated_integer@DV?$back_insert_iterator@V?$_Fmt_buffer@D@std@@@std@@@std@@YA?AV?$back_insert_iterator@V?$_Fmt_buffer@D@std@@@0@PEBDQEBDV?$basic_string_view@DU?$char_traits@D@std@@@0@DHV10@@Z
        947  3B2 000167E0 ??$_Write_sign@V?$back_insert_iterator@V?$_Fmt_buffer@D@std@@@std@@@std@@YA?AV?$back_insert_iterator@V?$_Fmt_buffer@D@std@@@0@V10@W4_Fmt_sign@0@_N@Z
        948  3B3 00002E50 ??$_Zero_range@PEAPEAPEAVBehavior@pineBT@@@std@@YAPEAPEAPEAVBehavior@pineBT@@QEAPEAPEAV12@0@Z
        949  3B4 00002E50 ??$_Zero_range@PEAPEAV?$unique_ptr@UBehaviorTreeBuilderContext@pineBT@@U?$default_delete@UBehaviorTreeBuilderContext@pineBT@@@std@@@std@@@std@@YAPEAPEAV?$unique_ptr@UBehaviorTreeBuilderContext@pineBT@@U?$default_delete@UBehaviorTreeBuilderContext@pineBT@@@std@@@0@QEAPEAV10@0@Z
        950  3B5 00016880 ??$__append_c_digits@D@std@@YAXIIQEAD@Z
        951  3B6 00016930 ??$__append_n_digits@D@std@@YAXIIQEAD@Z
        952  3B7 00016A40 ??$__append_nine_digits@D@std@@YAXIQEAD@Z
        953  3B8 00016AE0 ??$__d2fixed_buffered_n@D@std@@YA?AU?$pair@PEADW4errc@std@@@0@PEADQEADNI@Z
        954  3B9 000170B0 ??$__d2s_buffered_n@D@std@@YA?AU?$pair@PEADW4errc@std@@@0@QEAD0NW4chars_format@0@@Z
        955  3BA 00017280 ??$__f2s_buffered_n@D@std@@YA?AU?$pair@PEADW4errc@std@@@0@QEAD0MW4chars_format@0@@Z
        956  3BB 000173B0 ??$__std_find_trivial@$$CBDD@@YAPEBDPEBD0D@Z
        957  3BC 000173B0 ??$__std_find_trivial@DD@@YAPEADPEAD0D@Z
        958  3BD 000173C0 ??$__to_chars@D@std@@YA?AU?$pair@PEADW4errc@std@@@0@QEAD0U__floating_decimal_32@0@W4chars_format@0@II@Z
        959  3BE 00017770 ??$__to_chars@D@std@@YA?AU?$pair@PEADW4errc@std@@@0@QEAD0U__floating_decimal_64@0@W4chars_format@0@N@Z
        960  3BF 00017E40 ??$add@VMockCondition@pineBT@@@BehaviorSchemaLibrary@pineBT@@QEAAXXZ
        961  3C0 00017F60 ??$add@VMockTask@pineBT@@@BehaviorSchemaLibrary@pineBT@@QEAAXXZ
        962  3C1 00018080 ??$add@VParallel@pineBT@@@BehaviorSchemaLibrary@pineBT@@QEAAXXZ
        963  3C2 000181A0 ??$add@VSelector@pineBT@@@BehaviorSchemaLibrary@pineBT@@QEAAXXZ
        964  3C3 000182C0 ??$add@VSequence@pineBT@@@BehaviorSchemaLibrary@pineBT@@QEAAXXZ
        965  3C4 00002190 ??$addressof@$$CBI@std@@YAPEBIAEBI@Z
        966  3C5 00002190 ??$addressof@$$CBU?$pair@$$CBV?$basic_string@DU?$char_traits@D@std@@V?$allocator@D@2@@std@@V?$basic_json@Vmap@std@@Vvector@2@V?$basic_string@DU?$char_traits@D@std@@V?$allocator@D@2@@2@_N_J_KNVallocator@2@Uadl_serializer@json_abi_v3_11_2@nlohmann@@V?$vector@EV?$allocator@E@std@@@2@@json_abi_v3_11_2@nlohmann@@@std@@@std@@YAPEBU?$pair@$$CBV?$basic_string@DU?$char_traits@D@std@@V?$allocator@D@2@@std@@V?$basic_json@Vmap@std@@Vvector@2@V?$basic_string@DU?$char_traits@D@std@@V?$allocator@D@2@@2@_N_J_KNVallocator@2@Uadl_serializer@json_abi_v3_11_2@nlohmann@@V?$vector@EV?$allocator@E@std@@@2@@json_abi_v3_11_2@nlohmann@@@0@AEBU10@@Z
        967  3C6 00002190 ??$addressof@$$CBU?$pair@$$CBV?$basic_string@DU?$char_traits@D@std@@V?$allocator@D@2@@std@@V?$function@$$A6APEAVBehavior@pineBT@@AEBV?$basic_string@DU?$char_traits@D@std@@V?$allocator@D@2@@std@@AEAVBehaviorTree@2@@Z@2@@std@@@std@@YAPEBU?$pair@$$CBV?$basic_string@DU?$char_traits@D@std@@V?$allocator@D@2@@std@@V?$function@$$A6APEAVBehavior@pineBT@@AEBV?$basic_string@DU?$char_traits@D@std@@V?$allocator@D@2@@std@@AEAVBehaviorTree@2@@Z@2@@0@AEBU10@@Z
        968  3C7 00002190 ??$addressof@$$CBV<lambda_1>@?1???$add@VMockCondition@pineBT@@@BehaviorSchemaLibrary@pineBT@@QEAAXXZ@@std@@YAPEBV<lambda_1>@?1???$add@VMockCondition@pineBT@@@BehaviorSchemaLibrary@pineBT@@QEAAXXZ@AEBV1?1???$add@VMockCondition@pineBT@@@23@QEAAXXZ@@Z
        969  3C8 00002190 ??$addressof@$$CBV<lambda_1>@?1???$add@VMockTask@pineBT@@@BehaviorSchemaLibrary@pineBT@@QEAAXXZ@@std@@YAPEBV<lambda_1>@?1???$add@VMockTask@pineBT@@@BehaviorSchemaLibrary@pineBT@@QEAAXXZ@AEBV1?1???$add@VMockTask@pineBT@@@23@QEAAXXZ@@Z
        970  3C9 00002190 ??$addressof@$$CBV<lambda_1>@?1???$add@VParallel@pineBT@@@BehaviorSchemaLibrary@pineBT@@QEAAXXZ@@std@@YAPEBV<lambda_1>@?1???$add@VParallel@pineBT@@@BehaviorSchemaLibrary@pineBT@@QEAAXXZ@AEBV1?1???$add@VParallel@pineBT@@@23@QEAAXXZ@@Z
        971  3CA 00002190 ??$addressof@$$CBV<lambda_1>@?1???$add@VSelector@pineBT@@@BehaviorSchemaLibrary@pineBT@@QEAAXXZ@@std@@YAPEBV<lambda_1>@?1???$add@VSelector@pineBT@@@BehaviorSchemaLibrary@pineBT@@QEAAXXZ@AEBV1?1???$add@VSelector@pineBT@@@23@QEAAXXZ@@Z
        972  3CB 00002190 ??$addressof@$$CBV<lambda_1>@?1???$add@VSequence@pineBT@@@BehaviorSchemaLibrary@pineBT@@QEAAXXZ@@std@@YAPEBV<lambda_1>@?1???$add@VSequence@pineBT@@@BehaviorSchemaLibrary@pineBT@@QEAAXXZ@AEBV1?1???$add@VSequence@pineBT@@@23@QEAAXXZ@@Z
        973  3CC 00002190 ??$addressof@$$CBV?$_Deque_val@U?$_Deque_simple_types@PEAVBehavior@pineBT@@@std@@@std@@@std@@YAPEBV?$_Deque_val@U?$_Deque_simple_types@PEAVBehavior@pineBT@@@std@@@0@AEBV10@@Z
        974  3CD 00002190 ??$addressof@$$CBV?$_Hash@V?$_Umap_traits@V?$basic_string@DU?$char_traits@D@std@@V?$allocator@D@2@@std@@HV?$_Uhash_compare@V?$basic_string@DU?$char_traits@D@std@@V?$allocator@D@2@@std@@U?$hash@V?$basic_string@DU?$char_traits@D@std@@V?$allocator@D@2@@std@@@2@U?$equal_to@V?$basic_string@DU?$char_traits@D@std@@V?$allocator@D@2@@std@@@2@@2@V?$allocator@U?$pair@$$CBV?$basic_string@DU?$char_traits@D@std@@V?$allocator@D@2@@std@@H@std@@@2@$0A@@std@@@std@@@std@@YAPEBV?$_Hash@V?$_Umap_traits@V?$basic_string@DU?$char_traits@D@std@@V?$allocator@D@2@@std@@HV?$_Uhash_compare@V?$basic_string@DU?$char_traits@D@std@@V?$allocator@D@2@@std@@U?$hash@V?$basic_string@DU?$char_traits@D@std@@V?$allocator@D@2@@std@@@2@U?$equal_to@V?$basic_string@DU?$char_traits@D@std@@V?$allocator@D@2@@std@@@2@@2@V?$allocator@U?$pair@$$CBV?$basic_string@DU?$char_traits@D@std@@V?$allocator@D@2@@std@@H@std@@@2@$0A@@std@@@0@AEBV10@@Z
        975  3CE 00002190 ??$addressof@$$CBV?$_List_val@U?$_List_simple_types@U?$pair@$$CBV?$basic_string@DU?$char_traits@D@std@@V?$allocator@D@2@@std@@H@std@@@std@@@std@@@std@@YAPEBV?$_List_val@U?$_List_simple_types@U?$pair@$$CBV?$basic_string@DU?$char_traits@D@std@@V?$allocator@D@2@@std@@H@std@@@std@@@0@AEBV10@@Z
        976  3CF 00002190 ??$addressof@$$CBV?$_List_val@U?$_List_simple_types@U?$pair@$$CBV?$basic_string@DU?$char_traits@D@std@@V?$allocator@D@2@@std@@V?$function@$$A6APEAVBehavior@pineBT@@AEBV?$basic_string@DU?$char_traits@D@std@@V?$allocator@D@2@@std@@AEAVBehaviorTree@2@@Z@2@@std@@@std@@@std@@@std@@YAPEBV?$_List_val@U?$_List_simple_types@U?$pair@$$CBV?$basic_string@DU?$char_traits@D@std@@V?$allocator@D@2@@std@@V?$function@$$A6APEAVBehavior@pineBT@@AEBV?$basic_string@DU?$char_traits@D@std@@V?$allocator@D@2@@std@@AEAVBehaviorTree@2@@Z@2@@std@@@std@@@0@AEBV10@@Z
        977  3D0 00002190 ??$addressof@$$CBV?$_String_val@U?$_Simple_types@D@std@@@std@@@std@@YAPEBV?$_String_val@U?$_Simple_types@D@std@@@0@AEBV10@@Z
        978  3D1 00002190 ??$addressof@$$CBV?$_Tree_val@U?$_Tree_simple_types@U?$pair@$$CBV?$basic_string@DU?$char_traits@D@std@@V?$allocator@D@2@@std@@V?$basic_json@Vmap@std@@Vvector@2@V?$basic_string@DU?$char_traits@D@std@@V?$allocator@D@2@@2@_N_J_KNVallocator@2@Uadl_serializer@json_abi_v3_11_2@nlohmann@@V?$vector@EV?$allocator@E@std@@@2@@json_abi_v3_11_2@nlohmann@@@std@@@std@@@std@@@std@@YAPEBV?$_Tree_val@U?$_Tree_simple_types@U?$pair@$$CBV?$basic_string@DU?$char_traits@D@std@@V?$allocator@D@2@@std@@V?$basic_json@Vmap@std@@Vvector@2@V?$basic_string@DU?$char_traits@D@std@@V?$allocator@D@2@@2@_N_J_KNVallocator@2@Uadl_serializer@json_abi_v3_11_2@nlohmann@@V?$vector@EV?$allocator@E@std@@@2@@json_abi_v3_11_2@nlohmann@@@std@@@std@@@0@AEBV10@@Z
        979  3D2 00002190 ??$addressof@$$CBV?$_Vector_val@U?$_Simple_types@E@std@@@std@@@std@@YAPEBV?$_Vector_val@U?$_Simple_types@E@std@@@0@AEBV10@@Z
        980  3D3 00002190 ??$addressof@$$CBV?$_Vector_val@U?$_Simple_types@V?$basic_json@Vmap@std@@Vvector@2@V?$basic_string@DU?$char_traits@D@std@@V?$allocator@D@2@@2@_N_J_KNVallocator@2@Uadl_serializer@json_abi_v3_11_2@nlohmann@@V?$vector@EV?$allocator@E@std@@@2@@json_abi_v3_11_2@nlohmann@@@std@@@std@@@std@@YAPEBV?$_Vector_val@U?$_Simple_types@V?$basic_json@Vmap@std@@Vvector@2@V?$basic_string@DU?$char_traits@D@std@@V?$allocator@D@2@@2@_N_J_KNVallocator@2@Uadl_serializer@json_abi_v3_11_2@nlohmann@@V?$vector@EV?$allocator@E@std@@@2@@json_abi_v3_11_2@nlohmann@@@std@@@0@AEBV10@@Z
        981  3D4 00002190 ??$addressof@$$CBV?$_Vector_val@U?$_Simple_types@V?$basic_string@DU?$char_traits@D@std@@V?$allocator@D@2@@std@@@std@@@std@@@std@@YAPEBV?$_Vector_val@U?$_Simple_types@V?$basic_string@DU?$char_traits@D@std@@V?$allocator@D@2@@std@@@std@@@0@AEBV10@@Z
        982  3D5 00002190 ??$addressof@$$CBV?$basic_string@DU?$char_traits@D@std@@V?$allocator@D@2@@std@@@std@@YAPEBV?$basic_string@DU?$char_traits@D@std@@V?$allocator@D@2@@0@AEBV10@@Z
        983  3D6 00002190 ??$addressof@$$CBV?$basic_string_view@DU?$char_traits@D@std@@@std@@@std@@YAPEBV?$basic_string_view@DU?$char_traits@D@std@@@0@AEBV10@@Z
        984  3D7 00002190 ??$addressof@$$CBV?$vector@V?$basic_string@DU?$char_traits@D@std@@V?$allocator@D@2@@std@@V?$allocator@V?$basic_string@DU?$char_traits@D@std@@V?$allocator@D@2@@std@@@2@@std@@@std@@YAPEBV?$vector@V?$basic_string@DU?$char_traits@D@std@@V?$allocator@D@2@@std@@V?$allocator@V?$basic_string@DU?$char_traits@D@std@@V?$allocator@D@2@@std@@@2@@0@AEBV10@@Z
        985  3D8 00002190 ??$addressof@D@std@@YAPEADAEAD@Z
        986  3D9 00002190 ??$addressof@PEAD@std@@YAPEAPEADAEAPEAD@Z
        987  3DA 00002190 ??$addressof@PEAPEAVBehavior@pineBT@@@std@@YAPEAPEAPEAVBehavior@pineBT@@AEAPEAPEAV12@@Z
        988  3DB 00002190 ??$addressof@PEAU?$_List_node@U?$pair@$$CBHV?$unique_ptr@VBehaviorTree@pineBT@@U?$default_delete@VBehaviorTree@pineBT@@@std@@@std@@@std@@PEAX@std@@@std@@YAPEAPEAU?$_List_node@U?$pair@$$CBHV?$unique_ptr@VBehaviorTree@pineBT@@U?$default_delete@VBehaviorTree@pineBT@@@std@@@std@@@std@@PEAX@0@AEAPEAU10@@Z
        989  3DC 00002190 ??$addressof@PEAU?$_List_node@U?$pair@$$CBIW4Result@Behavior@pineBT@@@std@@PEAX@std@@@std@@YAPEAPEAU?$_List_node@U?$pair@$$CBIW4Result@Behavior@pineBT@@@std@@PEAX@0@AEAPEAU10@@Z
        990  3DD 00002190 ??$addressof@PEAU?$_List_node@U?$pair@$$CBV?$basic_string@DU?$char_traits@D@std@@V?$allocator@D@2@@std@@H@std@@PEAX@std@@@std@@YAPEAPEAU?$_List_node@U?$pair@$$CBV?$basic_string@DU?$char_traits@D@std@@V?$allocator@D@2@@std@@H@std@@PEAX@0@AEAPEAU10@@Z
        991  3DE 00002190 ??$addressof@PEAU?$_List_node@U?$pair@$$CBV?$basic_string@DU?$char_traits@D@std@@V?$allocator@D@2@@std@@UBehaviorSchema@pineBT@@@std@@PEAX@std@@@std@@YAPEAPEAU?$_List_node@U?$pair@$$CBV?$basic_string@DU?$char_traits@D@std@@V?$allocator@D@2@@std@@UBehaviorSchema@pineBT@@@std@@PEAX@0@AEAPEAU10@@Z
        992  3DF 00002190 ??$addressof@PEAU?$_List_node@U?$pair@$$CBV?$basic_string@DU?$char_traits@D@std@@V?$allocator@D@2@@std@@V?$function@$$A6APEAVBehavior@pineBT@@AEBV?$basic_string@DU?$char_traits@D@std@@V?$allocator@D@2@@std@@AEAVBehaviorTree@2@@Z@2@@std@@PEAX@std@@@std@@YAPEAPEAU?$_List_node@U?$pair@$$CBV?$basic_string@DU?$char_traits@D@std@@V?$allocator@D@2@@std@@V?$function@$$A6APEAVBehavior@pineBT@@AEBV?$basic_string@DU?$char_traits@D@std@@V?$allocator@D@2@@std@@AEAVBehaviorTree@2@@Z@2@@std@@PEAX@0@AEAPEAU10@@Z
        993  3E0 00002190 ??$addressof@PEAU?$_Tree_node@U?$pair@$$CBV?$basic_string@DU?$char_traits@D@std@@V?$allocator@D@2@@std@@V?$basic_json@Vmap@std@@Vvector@2@V?$basic_string@DU?$char_traits@D@std@@V?$allocator@D@2@@2@_N_J_KNVallocator@2@Uadl_serializer@json_abi_v3_11_2@nlohmann@@V?$vector@EV?$allocator@E@std@@@2@@json_abi_v3_11_2@nlohmann@@@std@@PEAX@std@@@std@@YAPEAPEAU?$_Tree_node@U?$pair@$$CBV?$basic_string@DU?$char_traits@D@std@@V?$allocator@D@2@@std@@V?$basic_json@Vmap@std@@Vvector@2@V?$basic_string@DU?$char_traits@D@std@@V?$allocator@D@2@@2@_N_J_KNVallocator@2@Uadl_serializer@json_abi_v3_11_2@nlohmann@@V?$vector@EV?$allocator@E@std@@@2@@json_abi_v3_11_2@nlohmann@@@std@@PEAX@0@AEAPEAU10@@Z
        994  3E1 00002190 ??$addressof@PEAV?$basic_json@Vmap@std@@Vvector@2@V?$basic_string@DU?$char_traits@D@std@@V?$allocator@D@2@@2@_N_J_KNVallocator@2@Uadl_serializer@json_abi_v3_11_2@nlohmann@@V?$vector@EV?$allocator@E@std@@@2@@json_abi_v3_11_2@nlohmann@@@std@@YAPEAPEAV?$basic_json@Vmap@std@@Vvector@2@V?$basic_string@DU?$char_traits@D@std@@V?$allocator@D@2@@2@_N_J_KNVallocator@2@Uadl_serializer@json_abi_v3_11_2@nlohmann@@V?$vector@EV?$allocator@E@std@@@2@@json_abi_v3_11_2@nlohmann@@AEAPEAV123@@Z
        995  3E2 00002190 ??$addressof@PEAV?$unique_ptr@UBehaviorTreeBuilderContext@pineBT@@U?$default_delete@UBehaviorTreeBuilderContext@pineBT@@@std@@@std@@@std@@YAPEAPEAV?$unique_ptr@UBehaviorTreeBuilderContext@pineBT@@U?$default_delete@UBehaviorTreeBuilderContext@pineBT@@@std@@@0@AEAPEAV10@@Z
        996  3E3 00002190 ??$addressof@PEAVBehavior@pineBT@@@std@@YAPEAPEAVBehavior@pineBT@@AEAPEAV12@@Z
        997  3E4 00002190 ??$addressof@QEBD@std@@YAPEBQEBDAEBQEBD@Z
        998  3E5 00002190 ??$addressof@U?$_Basic_format_specs@D@std@@@std@@YAPEAU?$_Basic_format_specs@D@0@AEAU10@@Z
        999  3E6 00002190 ??$addressof@U?$pair@$$CBHV?$unique_ptr@VBehaviorTree@pineBT@@U?$default_delete@VBehaviorTree@pineBT@@@std@@@std@@@std@@@std@@YAPEAU?$pair@$$CBHV?$unique_ptr@VBehaviorTree@pineBT@@U?$default_delete@VBehaviorTree@pineBT@@@std@@@std@@@0@AEAU10@@Z
       1000  3E7 00002190 ??$addressof@U?$pair@$$CBIW4Result@Behavior@pineBT@@@std@@@std@@YAPEAU?$pair@$$CBIW4Result@Behavior@pineBT@@@0@AEAU10@@Z
       1001  3E8 00002190 ??$addressof@U?$pair@$$CBV?$basic_string@DU?$char_traits@D@std@@V?$allocator@D@2@@std@@H@std@@@std@@YAPEAU?$pair@$$CBV?$basic_string@DU?$char_traits@D@std@@V?$allocator@D@2@@std@@H@0@AEAU10@@Z
       1002  3E9 00002190 ??$addressof@U?$pair@$$CBV?$basic_string@DU?$char_traits@D@std@@V?$allocator@D@2@@std@@UBehaviorSchema@pineBT@@@std@@@std@@YAPEAU?$pair@$$CBV?$basic_string@DU?$char_traits@D@std@@V?$allocator@D@2@@std@@UBehaviorSchema@pineBT@@@0@AEAU10@@Z
       1003  3EA 00002190 ??$addressof@U?$pair@$$CBV?$basic_string@DU?$char_traits@D@std@@V?$allocator@D@2@@std@@V?$basic_json@Vmap@std@@Vvector@2@V?$basic_string@DU?$char_traits@D@std@@V?$allocator@D@2@@2@_N_J_KNVallocator@2@Uadl_serializer@json_abi_v3_11_2@nlohmann@@V?$vector@EV?$allocator@E@std@@@2@@json_abi_v3_11_2@nlohmann@@@std@@@std@@YAPEAU?$pair@$$CBV?$basic_string@DU?$char_traits@D@std@@V?$allocator@D@2@@std@@V?$basic_json@Vmap@std@@Vvector@2@V?$basic_string@DU?$char_traits@D@std@@V?$allocator@D@2@@2@_N_J_KNVallocator@2@Uadl_serializer@json_abi_v3_11_2@nlohmann@@V?$vector@EV?$allocator@E@std@@@2@@json_abi_v3_11_2@nlohmann@@@0@AEAU10@@Z
       1004  3EB 00002190 ??$addressof@U?$pair@$$CBV?$basic_string@DU?$char_traits@D@std@@V?$allocator@D@2@@std@@V?$function@$$A6APEAVBehavior@pineBT@@AEBV?$basic_string@DU?$char_traits@D@std@@V?$allocator@D@2@@std@@AEAVBehaviorTree@2@@Z@2@@std@@@std@@YAPEAU?$pair@$$CBV?$basic_string@DU?$char_traits@D@std@@V?$allocator@D@2@@std@@V?$function@$$A6APEAVBehavior@pineBT@@AEBV?$basic_string@DU?$char_traits@D@std@@V?$allocator@D@2@@std@@AEAVBehaviorTree@2@@Z@2@@0@AEAU10@@Z
       1005  3EC 00002190 ??$addressof@U_Container_base12@std@@@std@@YAPEAU_Container_base12@0@AEAU10@@Z
       1006  3ED 00002190 ??$addressof@U_Container_proxy@std@@@std@@YAPEAU_Container_proxy@0@AEAU10@@Z
       1007  3EE 00002190 ??$addressof@V?$_Deque_val@U?$_Deque_simple_types@PEAVBehavior@pineBT@@@std@@@std@@@std@@YAPEAV?$_Deque_val@U?$_Deque_simple_types@PEAVBehavior@pineBT@@@std@@@0@AEAV10@@Z
       1008  3EF 00002190 ??$addressof@V?$_Deque_val@U?$_Deque_simple_types@V?$unique_ptr@UBehaviorTreeBuilderContext@pineBT@@U?$default_delete@UBehaviorTreeBuilderContext@pineBT@@@std@@@std@@@std@@@std@@@std@@YAPEAV?$_Deque_val@U?$_Deque_simple_types@V?$unique_ptr@UBehaviorTreeBuilderContext@pineBT@@U?$default_delete@UBehaviorTreeBuilderContext@pineBT@@@std@@@std@@@std@@@0@AEAV10@@Z
       1009  3F0 00002190 ??$addressof@V?$_Fmt_buffer@D@std@@@std@@YAPEAV?$_Fmt_buffer@D@0@AEAV10@@Z
       1010  3F1 00002190 ??$addressof@V?$_List_unchecked_iterator@V?$_List_val@U?$_List_simple_types@U?$pair@$$CBHV?$unique_ptr@VBehaviorTree@pineBT@@U?$default_delete@VBehaviorTree@pineBT@@@std@@@std@@@std@@@std@@@std@@@std@@@std@@YAPEAV?$_List_unchecked_iterator@V?$_List_val@U?$_List_simple_types@U?$pair@$$CBHV?$unique_ptr@VBehaviorTree@pineBT@@U?$default_delete@VBehaviorTree@pineBT@@@std@@@std@@@std@@@std@@@std@@@0@AEAV10@@Z
       1011  3F2 00002190 ??$addressof@V?$_List_unchecked_iterator@V?$_List_val@U?$_List_simple_types@U?$pair@$$CBIW4Result@Behavior@pineBT@@@std@@@std@@@std@@@std@@@std@@YAPEAV?$_List_unchecked_iterator@V?$_List_val@U?$_List_simple_types@U?$pair@$$CBIW4Result@Behavior@pineBT@@@std@@@std@@@std@@@0@AEAV10@@Z
       1012  3F3 00002190 ??$addressof@V?$_List_unchecked_iterator@V?$_List_val@U?$_List_simple_types@U?$pair@$$CBV?$basic_string@DU?$char_traits@D@std@@V?$allocator@D@2@@std@@H@std@@@std@@@std@@@std@@@std@@YAPEAV?$_List_unchecked_iterator@V?$_List_val@U?$_List_simple_types@U?$pair@$$CBV?$basic_string@DU?$char_traits@D@std@@V?$allocator@D@2@@std@@H@std@@@std@@@std@@@0@AEAV10@@Z
       1013  3F4 00002190 ??$addressof@V?$_List_unchecked_iterator@V?$_List_val@U?$_List_simple_types@U?$pair@$$CBV?$basic_string@DU?$char_traits@D@std@@V?$allocator@D@2@@std@@UBehaviorSchema@pineBT@@@std@@@std@@@std@@@std@@@std@@YAPEAV?$_List_unchecked_iterator@V?$_List_val@U?$_List_simple_types@U?$pair@$$CBV?$basic_string@DU?$char_traits@D@std@@V?$allocator@D@2@@std@@UBehaviorSchema@pineBT@@@std@@@std@@@std@@@0@AEAV10@@Z
       1014  3F5 00002190 ??$addressof@V?$_List_unchecked_iterator@V?$_List_val@U?$_List_simple_types@U?$pair@$$CBV?$basic_string@DU?$char_traits@D@std@@V?$allocator@D@2@@std@@V?$function@$$A6APEAVBehavior@pineBT@@AEBV?$basic_string@DU?$char_traits@D@std@@V?$allocator@D@2@@std@@AEAVBehaviorTree@2@@Z@2@@std@@@std@@@std@@@std@@@std@@YAPEAV?$_List_unchecked_iterator@V?$_List_val@U?$_List_simple_types@U?$pair@$$CBV?$basic_string@DU?$char_traits@D@std@@V?$allocator@D@2@@std@@V?$function@$$A6APEAVBehavior@pineBT@@AEBV?$basic_string@DU?$char_traits@D@std@@V?$allocator@D@2@@std@@AEAVBehaviorTree@2@@Z@2@@std@@@std@@@std@@@0@AEAV10@@Z
       1015  3F6 00002190 ??$addressof@V?$_String_val@U?$_Simple_types@D@std@@@std@@@std@@YAPEAV?$_String_val@U?$_Simple_types@D@std@@@0@AEAV10@@Z
       1016  3F7 00002190 ??$addressof@V?$_Tree_val@U?$_Tree_simple_types@U?$pair@$$CBV?$basic_string@DU?$char_traits@D@std@@V?$allocator@D@2@@std@@V?$basic_json@Vmap@std@@Vvector@2@V?$basic_string@DU?$char_traits@D@std@@V?$allocator@D@2@@2@_N_J_KNVallocator@2@Uadl_serializer@json_abi_v3_11_2@nlohmann@@V?$vector@EV?$allocator@E@std@@@2@@json_abi_v3_11_2@nlohmann@@@std@@@std@@@std@@@std@@YAPEAV?$_Tree_val@U?$_Tree_simple_types@U?$pair@$$CBV?$basic_string@DU?$char_traits@D@std@@V?$allocator@D@2@@std@@V?$basic_json@Vmap@std@@Vvector@2@V?$basic_string@DU?$char_traits@D@std@@V?$allocator@D@2@@2@_N_J_KNVallocator@2@Uadl_serializer@json_abi_v3_11_2@nlohmann@@V?$vector@EV?$allocator@E@std@@@2@@json_abi_v3_11_2@nlohmann@@@std@@@std@@@0@AEAV10@@Z
       1017  3F8 00002190 ??$addressof@V?$_Vector_val@U?$_Simple_types@I@std@@@std@@@std@@YAPEAV?$_Vector_val@U?$_Simple_types@I@std@@@0@AEAV10@@Z
       1018  3F9 00002190 ??$addressof@V?$_Vector_val@U?$_Simple_types@PEAVBehavior@pineBT@@@std@@@std@@@std@@YAPEAV?$_Vector_val@U?$_Simple_types@PEAVBehavior@pineBT@@@std@@@0@AEAV10@@Z
       1019  3FA 00002190 ??$addressof@V?$_Vector_val@U?$_Simple_types@V?$basic_json@Vmap@std@@Vvector@2@V?$basic_string@DU?$char_traits@D@std@@V?$allocator@D@2@@2@_N_J_KNVallocator@2@Uadl_serializer@json_abi_v3_11_2@nlohmann@@V?$vector@EV?$allocator@E@std@@@2@@json_abi_v3_11_2@nlohmann@@@std@@@std@@@std@@YAPEAV?$_Vector_val@U?$_Simple_types@V?$basic_json@Vmap@std@@Vvector@2@V?$basic_string@DU?$char_traits@D@std@@V?$allocator@D@2@@2@_N_J_KNVallocator@2@Uadl_serializer@json_abi_v3_11_2@nlohmann@@V?$vector@EV?$allocator@E@std@@@2@@json_abi_v3_11_2@nlohmann@@@std@@@0@AEAV10@@Z
       1020  3FB 00002190 ??$addressof@V?$_Vector_val@U?$_Simple_types@V?$basic_string@DU?$char_traits@D@std@@V?$allocator@D@2@@std@@@std@@@std@@@std@@YAPEAV?$_Vector_val@U?$_Simple_types@V?$basic_string@DU?$char_traits@D@std@@V?$allocator@D@2@@std@@@std@@@0@AEAV10@@Z
       1021  3FC 00002190 ??$addressof@V?$basic_format_context@V?$back_insert_iterator@V?$_Fmt_buffer@D@std@@@std@@D@std@@@std@@YAPEAV?$basic_format_context@V?$back_insert_iterator@V?$_Fmt_buffer@D@std@@@std@@D@0@AEAV10@@Z
       1022  3FD 00002190 ??$addressof@V?$basic_json@Vmap@std@@Vvector@2@V?$basic_string@DU?$char_traits@D@std@@V?$allocator@D@2@@2@_N_J_KNVallocator@2@Uadl_serializer@json_abi_v3_11_2@nlohmann@@V?$vector@EV?$allocator@E@std@@@2@@json_abi_v3_11_2@nlohmann@@@std@@YAPEAV?$basic_json@Vmap@std@@Vvector@2@V?$basic_string@DU?$char_traits@D@std@@V?$allocator@D@2@@2@_N_J_KNVallocator@2@Uadl_serializer@json_abi_v3_11_2@nlohmann@@V?$vector@EV?$allocator@E@std@@@2@@json_abi_v3_11_2@nlohmann@@AEAV123@@Z
       1023  3FE 00002190 ??$addressof@V?$basic_string@DU?$char_traits@D@std@@V?$allocator@D@2@@std@@@std@@YAPEAV?$basic_string@DU?$char_traits@D@std@@V?$allocator@D@2@@0@AEAV10@@Z
       1024  3FF 00002190 ??$addressof@V?$output_string_adapter@DV?$basic_string@DU?$char_traits@D@std@@V?$allocator@D@2@@std@@@detail@json_abi_v3_11_2@nlohmann@@@std@@YAPEAV?$output_string_adapter@DV?$basic_string@DU?$char_traits@D@std@@V?$allocator@D@2@@std@@@detail@json_abi_v3_11_2@nlohmann@@AEAV1234@@Z
       1025  400 00002190 ??$addressof@V?$unique_ptr@VBehaviorTree@pineBT@@U?$default_delete@VBehaviorTree@pineBT@@@std@@@std@@@std@@YAPEAV?$unique_ptr@VBehaviorTree@pineBT@@U?$default_delete@VBehaviorTree@pineBT@@@std@@@0@AEAV10@@Z
       1026  401 00002190 ??$addressof@V?$vector@V?$basic_json@Vmap@std@@Vvector@2@V?$basic_string@DU?$char_traits@D@std@@V?$allocator@D@2@@2@_N_J_KNVallocator@2@Uadl_serializer@json_abi_v3_11_2@nlohmann@@V?$vector@EV?$allocator@E@std@@@2@@json_abi_v3_11_2@nlohmann@@V?$allocator@V?$basic_json@Vmap@std@@Vvector@2@V?$basic_string@DU?$char_traits@D@std@@V?$allocator@D@2@@2@_N_J_KNVallocator@2@Uadl_serializer@json_abi_v3_11_2@nlohmann@@V?$vector@EV?$allocator@E@std@@@2@@json_abi_v3_11_2@nlohmann@@@std@@@std@@@std@@YAPEAV?$vector@V?$basic_json@Vmap@std@@Vvector@2@V?$basic_string@DU?$char_traits@D@std@@V?$allocator@D@2@@2@_N_J_KNVallocator@2@Uadl_serializer@json_abi_v3_11_2@nlohmann@@V?$vector@EV?$allocator@E@std@@@2@@json_abi_v3_11_2@nlohmann@@V?$allocator@V?$basic_json@Vmap@std@@Vvector@2@V?$basic_string@DU?$char_traits@D@std@@V?$allocator@D@2@@2@_N_J_KNVallocator@2@Uadl_serializer@json_abi_v3_11_2@nlohmann@@V?$vector@EV?$allocator@E@std@@@2@@json_abi_v3_11_2@nlohmann@@@std@@@0@AEAV10@@Z
       1027  402 000183E0 ??$advance@PEBI_J@std@@YAXAEAPEBI_J@Z
       1028  403 000183F0 ??$advance@PEB_K_J@std@@YAXAEAPEB_K_J@Z
       1029  404 000301D0 ??$advance@V?$_String_const_iterator@V?$_String_val@U?$_Simple_types@D@std@@@std@@@std@@H@std@@YAXAEAV?$_String_const_iterator@V?$_String_val@U?$_Simple_types@D@std@@@std@@@0@H@Z
       1030  405 000301E0 ??$advance@V?$_Tree_iterator@V?$_Tree_val@U?$_Tree_simple_types@U?$pair@$$CBV?$basic_string@DU?$char_traits@D@std@@V?$allocator@D@2@@std@@V?$basic_json@Vmap@std@@Vvector@2@V?$basic_string@DU?$char_traits@D@std@@V?$allocator@D@2@@2@_N_J_KNVallocator@2@Uadl_serializer@json_abi_v3_11_2@nlohmann@@V?$vector@EV?$allocator@E@std@@@2@@json_abi_v3_11_2@nlohmann@@@std@@@std@@@std@@@std@@H@std@@YAXAEAV?$_Tree_iterator@V?$_Tree_val@U?$_Tree_simple_types@U?$pair@$$CBV?$basic_string@DU?$char_traits@D@std@@V?$allocator@D@2@@std@@V?$basic_json@Vmap@std@@Vvector@2@V?$basic_string@DU?$char_traits@D@std@@V?$allocator@D@2@@2@_N_J_KNVallocator@2@Uadl_serializer@json_abi_v3_11_2@nlohmann@@V?$vector@EV?$allocator@E@std@@@2@@json_abi_v3_11_2@nlohmann@@@std@@@std@@@std@@@0@H@Z
       1031  406 000302C0 ??$advance@V?$_Vector_iterator@V?$_Vector_val@U?$_Simple_types@V?$basic_json@Vmap@std@@Vvector@2@V?$basic_string@DU?$char_traits@D@std@@V?$allocator@D@2@@2@_N_J_KNVallocator@2@Uadl_serializer@json_abi_v3_11_2@nlohmann@@V?$vector@EV?$allocator@E@std@@@2@@json_abi_v3_11_2@nlohmann@@@std@@@std@@@std@@H@std@@YAXAEAV?$_Vector_iterator@V?$_Vector_val@U?$_Simple_types@V?$basic_json@Vmap@std@@Vvector@2@V?$basic_string@DU?$char_traits@D@std@@V?$allocator@D@2@@2@_N_J_KNVallocator@2@Uadl_serializer@json_abi_v3_11_2@nlohmann@@V?$vector@EV?$allocator@E@std@@@2@@json_abi_v3_11_2@nlohmann@@@std@@@std@@@0@H@Z
       1032  407 00018400 ??$allocate@VMockCondition@pineBT@@$$V@LinearAllocator@pineBT@@QEAAPEAVMockCondition@1@XZ
       1033  408 00018450 ??$allocate@VMockTask@pineBT@@$$V@LinearAllocator@pineBT@@QEAAPEAVMockTask@1@XZ
       1034  409 0002AED0 ??$allocate@VMonitor@pineBT@@$$V@LinearAllocator@pineBT@@QEAAPEAVMonitor@1@XZ
       1035  40A 00018490 ??$allocate@VParallel@pineBT@@$$V@LinearAllocator@pineBT@@QEAAPEAVParallel@1@XZ
       1036  40B 000184E0 ??$allocate@VSelector@pineBT@@$$V@LinearAllocator@pineBT@@QEAAPEAVSelector@1@XZ
       1037  40C 00018530 ??$allocate@VSequence@pineBT@@$$V@LinearAllocator@pineBT@@QEAAPEAVSequence@1@XZ
       1038  40D 000302D0 ??$at@AEAY02$$CBD$0A@@?$basic_json@Vmap@std@@Vvector@2@V?$basic_string@DU?$char_traits@D@std@@V?$allocator@D@2@@2@_N_J_KNVallocator@2@Uadl_serializer@json_abi_v3_11_2@nlohmann@@V?$vector@EV?$allocator@E@std@@@2@@json_abi_v3_11_2@nlohmann@@QEBAAEBV012@AEAY02$$CBD@Z
       1039  40E 000302D0 ??$at@AEAY04$$CBD$0A@@?$basic_json@Vmap@std@@Vvector@2@V?$basic_string@DU?$char_traits@D@std@@V?$allocator@D@2@@2@_N_J_KNVallocator@2@Uadl_serializer@json_abi_v3_11_2@nlohmann@@V?$vector@EV?$allocator@E@std@@@2@@json_abi_v3_11_2@nlohmann@@QEAAAEAV012@AEAY04$$CBD@Z
       1040  40F 000302D0 ??$at@AEAY04$$CBD$0A@@?$basic_json@Vmap@std@@Vvector@2@V?$basic_string@DU?$char_traits@D@std@@V?$allocator@D@2@@2@_N_J_KNVallocator@2@Uadl_serializer@json_abi_v3_11_2@nlohmann@@V?$vector@EV?$allocator@E@std@@@2@@json_abi_v3_11_2@nlohmann@@QEBAAEBV012@AEAY04$$CBD@Z
       1041  410 000302D0 ??$at@AEAY06$$CBD$0A@@?$basic_json@Vmap@std@@Vvector@2@V?$basic_string@DU?$char_traits@D@std@@V?$allocator@D@2@@2@_N_J_KNVallocator@2@Uadl_serializer@json_abi_v3_11_2@nlohmann@@V?$vector@EV?$allocator@E@std@@@2@@json_abi_v3_11_2@nlohmann@@QEBAAEBV012@AEAY06$$CBD@Z
       1042  411 000302D0 ??$at@AEAY07$$CBD$0A@@?$basic_json@Vmap@std@@Vvector@2@V?$basic_string@DU?$char_traits@D@std@@V?$allocator@D@2@@2@_N_J_KNVallocator@2@Uadl_serializer@json_abi_v3_11_2@nlohmann@@V?$vector@EV?$allocator@E@std@@@2@@json_abi_v3_11_2@nlohmann@@QEBAAEBV012@AEAY07$$CBD@Z
       1043  412 000302D0 ??$at@AEAY08$$CBD$0A@@?$basic_json@Vmap@std@@Vvector@2@V?$basic_string@DU?$char_traits@D@std@@V?$allocator@D@2@@2@_N_J_KNVallocator@2@Uadl_serializer@json_abi_v3_11_2@nlohmann@@V?$vector@EV?$allocator@E@std@@@2@@json_abi_v3_11_2@nlohmann@@QEBAAEBV012@AEAY08$$CBD@Z
       1044  413 000031C0 ??$back_inserter@V?$vector@V?$basic_json@Vmap@std@@Vvector@2@V?$basic_string@DU?$char_traits@D@std@@V?$allocator@D@2@@2@_N_J_KNVallocator@2@Uadl_serializer@json_abi_v3_11_2@nlohmann@@V?$vector@EV?$allocator@E@std@@@2@@json_abi_v3_11_2@nlohmann@@V?$allocator@V?$basic_json@Vmap@std@@Vvector@2@V?$basic_string@DU?$char_traits@D@std@@V?$allocator@D@2@@2@_N_J_KNVallocator@2@Uadl_serializer@json_abi_v3_11_2@nlohmann@@V?$vector@EV?$allocator@E@std@@@2@@json_abi_v3_11_2@nlohmann@@@std@@@std@@@std@@YA?AV?$back_insert_iterator@V?$vector@V?$basic_json@Vmap@std@@Vvector@2@V?$basic_string@DU?$char_traits@D@std@@V?$allocator@D@2@@2@_N_J_KNVallocator@2@Uadl_serializer@json_abi_v3_11_2@nlohmann@@V?$vector@EV?$allocator@E@std@@@2@@json_abi_v3_11_2@nlohmann@@V?$allocator@V?$basic_json@Vmap@std@@Vvector@2@V?$basic_string@DU?$char_traits@D@std@@V?$allocator@D@2@@2@_N_J_KNVallocator@2@Uadl_serializer@json_abi_v3_11_2@nlohmann@@V?$vector@EV?$allocator@E@std@@@2@@json_abi_v3_11_2@nlohmann@@@std@@@std@@@0@AEAV?$vector@V?$basic_json@Vmap@std@@Vvector@2@V?$basic_string@DU?$char_traits@D@std@@V?$allocator@D@2@@2@_N_J_KNVallocator@2@Uadl_serializer@json_abi_v3_11_2@nlohmann@@V?$vector@EV?$allocator@E@std@@@2@@json_abi_v3_11_2@nlohmann@@V?$allocator@V?$basic_json@Vmap@std@@Vvector@2@V?$basic_string@DU?$char_traits@D@std@@V?$allocator@D@2@@2@_N_J_KNVallocator@2@Uadl_serializer@json_abi_v3_11_2@nlohmann@@V?$vector@EV?$allocator@E@std@@@2@@json_abi_v3_11_2@nlohmann@@@std@@@0@@Z
       1045  414 00030440 ??$begin@V?$basic_string@DU?$char_traits@D@std@@V?$allocator@D@2@@std@@@std@@YA?AV?$_String_const_iterator@V?$_String_val@U?$_Simple_types@D@std@@@std@@@0@AEBV?$basic_string@DU?$char_traits@D@std@@V?$allocator@D@2@@0@@Z
       1046  415 00018580 ??$bit_width@_K$0A@@std@@YAH_K@Z
       1047  416 000185B0 ??$compute_boundaries@N@dtoa_impl@detail@json_abi_v3_11_2@nlohmann@@YA?AUboundaries@0123@N@Z
       1048  417 00030460 ??$concat@V?$basic_string@DU?$char_traits@D@std@@V?$allocator@D@2@@std@@AEAY05$$CBDV12@AEAY0M@$$CBD@detail@json_abi_v3_11_2@nlohmann@@YA?AV?$basic_string@DU?$char_traits@D@std@@V?$allocator@D@2@@std@@AEAY05$$CBD$$QEAV34@AEAY0M@$$CBD@Z
       1049  418 00018870 ??$concat@V?$basic_string@DU?$char_traits@D@std@@V?$allocator@D@2@@std@@AEAY09$$CBDV12@AEAY09$$CBDV12@@detail@json_abi_v3_11_2@nlohmann@@YA?AV?$basic_string@DU?$char_traits@D@std@@V?$allocator@D@2@@std@@AEAY09$$CBD$$QEAV34@01@Z
       1050  419 000186F0 ??$concat@V?$basic_string@DU?$char_traits@D@std@@V?$allocator@D@2@@std@@AEAY0BB@$$CBDAEBV12@DV12@AEAY02$$CBD@detail@json_abi_v3_11_2@nlohmann@@YA?AV?$basic_string@DU?$char_traits@D@std@@V?$allocator@D@2@@std@@AEAY0BB@$$CBDAEBV34@$$QEAD$$QEAV34@AEAY02$$CBD@Z
       1051  41A 00018A60 ??$concat@V?$basic_string@DU?$char_traits@D@std@@V?$allocator@D@2@@std@@AEAY0BG@$$CBDPEBD@detail@json_abi_v3_11_2@nlohmann@@YA?AV?$basic_string@DU?$char_traits@D@std@@V?$allocator@D@2@@std@@AEAY0BG@$$CBD$$QEAPEBD@Z
       1052  41B 00018990 ??$concat@V?$basic_string@DU?$char_traits@D@std@@V?$allocator@D@2@@std@@AEAY0BH@$$CBDV12@@detail@json_abi_v3_11_2@nlohmann@@YA?AV?$basic_string@DU?$char_traits@D@std@@V?$allocator@D@2@@std@@AEAY0BH@$$CBD$$QEAV34@@Z
       1053  41C 00018990 ??$concat@V?$basic_string@DU?$char_traits@D@std@@V?$allocator@D@2@@std@@AEAY0BI@$$CBDV12@@detail@json_abi_v3_11_2@nlohmann@@YA?AV?$basic_string@DU?$char_traits@D@std@@V?$allocator@D@2@@std@@AEAY0BI@$$CBD$$QEAV34@@Z
       1054  41D 00018A60 ??$concat@V?$basic_string@DU?$char_traits@D@std@@V?$allocator@D@2@@std@@AEAY0BJ@$$CBDPEBD@detail@json_abi_v3_11_2@nlohmann@@YA?AV?$basic_string@DU?$char_traits@D@std@@V?$allocator@D@2@@std@@AEAY0BJ@$$CBD$$QEAPEBD@Z
       1055  41E 00030560 ??$concat@V?$basic_string@DU?$char_traits@D@std@@V?$allocator@D@2@@std@@AEAY0BK@$$CBDV12@D@detail@json_abi_v3_11_2@nlohmann@@YA?AV?$basic_string@DU?$char_traits@D@std@@V?$allocator@D@2@@std@@AEAY0BK@$$CBD$$QEAV34@$$QEAD@Z
       1056  41F 00018A60 ??$concat@V?$basic_string@DU?$char_traits@D@std@@V?$allocator@D@2@@std@@AEAY0BN@$$CBDPEBD@detail@json_abi_v3_11_2@nlohmann@@YA?AV?$basic_string@DU?$char_traits@D@std@@V?$allocator@D@2@@std@@AEAY0BN@$$CBD$$QEAPEBD@Z
       1057  420 00018870 ??$concat@V?$basic_string@DU?$char_traits@D@std@@V?$allocator@D@2@@std@@AEAY0BN@$$CBDV12@AEAY04$$CBDV12@@detail@json_abi_v3_11_2@nlohmann@@YA?AV?$basic_string@DU?$char_traits@D@std@@V?$allocator@D@2@@std@@AEAY0BN@$$CBD$$QEAV34@AEAY04$$CBD1@Z
       1058  421 00018A60 ??$concat@V?$basic_string@DU?$char_traits@D@std@@V?$allocator@D@2@@std@@AEAY0BO@$$CBDPEBD@detail@json_abi_v3_11_2@nlohmann@@YA?AV?$basic_string@DU?$char_traits@D@std@@V?$allocator@D@2@@std@@AEAY0BO@$$CBD$$QEAPEBD@Z
       1059  422 00018990 ??$concat@V?$basic_string@DU?$char_traits@D@std@@V?$allocator@D@2@@std@@AEAY0CH@$$CBDV12@@detail@json_abi_v3_11_2@nlohmann@@YA?AV?$basic_string@DU?$char_traits@D@std@@V?$allocator@D@2@@std@@AEAY0CH@$$CBD$$QEAV34@@Z
       1060  423 00018A60 ??$concat@V?$basic_string@DU?$char_traits@D@std@@V?$allocator@D@2@@std@@AEAY0DD@$$CBDPEBD@detail@json_abi_v3_11_2@nlohmann@@YA?AV?$basic_string@DU?$char_traits@D@std@@V?$allocator@D@2@@std@@AEAY0DD@$$CBD$$QEAPEBD@Z
       1061  424 00018A60 ??$concat@V?$basic_string@DU?$char_traits@D@std@@V?$allocator@D@2@@std@@AEAY0DE@$$CBDPEBD@detail@json_abi_v3_11_2@nlohmann@@YA?AV?$basic_string@DU?$char_traits@D@std@@V?$allocator@D@2@@std@@AEAY0DE@$$CBD$$QEAPEBD@Z
       1062  425 00018A60 ??$concat@V?$basic_string@DU?$char_traits@D@std@@V?$allocator@D@2@@std@@AEAY0M@$$CBDPEBD@detail@json_abi_v3_11_2@nlohmann@@YA?AV?$basic_string@DU?$char_traits@D@std@@V?$allocator@D@2@@std@@AEAY0M@$$CBD$$QEAPEBD@Z
       1063  426 00030560 ??$concat@V?$basic_string@DU?$char_traits@D@std@@V?$allocator@D@2@@std@@AEAY0P@$$CBDAEBV12@D@detail@json_abi_v3_11_2@nlohmann@@YA?AV?$basic_string@DU?$char_traits@D@std@@V?$allocator@D@2@@std@@AEAY0P@$$CBDAEBV34@$$QEAD@Z
       1064  427 00030680 ??$concat@V?$basic_string@DU?$char_traits@D@std@@V?$allocator@D@2@@std@@PEBDAEAY0P@$$CBDV12@D@detail@json_abi_v3_11_2@nlohmann@@YA?AV?$basic_string@DU?$char_traits@D@std@@V?$allocator@D@2@@std@@$$QEAPEBDAEAY0P@$$CBD$$QEAV34@$$QEAD@Z
       1065  428 000307D0 ??$concat@V?$basic_string@DU?$char_traits@D@std@@V?$allocator@D@2@@std@@V12@AEAY0M@$$CBDV12@AEAY02$$CBDV12@AEBV12@@detail@json_abi_v3_11_2@nlohmann@@YA?AV?$basic_string@DU?$char_traits@D@std@@V?$allocator@D@2@@std@@$$QEAV34@AEAY0M@$$CBD0AEAY02$$CBD0AEBV34@@Z
       1066  429 00018B40 ??$concat@V?$basic_string@DU?$char_traits@D@std@@V?$allocator@D@2@@std@@V12@V12@AEBV12@@detail@json_abi_v3_11_2@nlohmann@@YA?AV?$basic_string@DU?$char_traits@D@std@@V?$allocator@D@2@@std@@$$QEAV34@0AEBV34@@Z
       1067  42A 000021E0 ??$concat_into@V?$basic_string@DU?$char_traits@D@std@@V?$allocator@D@2@@std@@@detail@json_abi_v3_11_2@nlohmann@@YAXAEAV?$basic_string@DU?$char_traits@D@std@@V?$allocator@D@2@@std@@@Z
       1068  42B 00018C10 ??$concat_into@V?$basic_string@DU?$char_traits@D@std@@V?$allocator@D@2@@std@@AEAY02$$CBD$$V$0A@@detail@json_abi_v3_11_2@nlohmann@@YAXAEAV?$basic_string@DU?$char_traits@D@std@@V?$allocator@D@2@@std@@AEAY02$$CBD@Z
       1069  42C 00030950 ??$concat_into@V?$basic_string@DU?$char_traits@D@std@@V?$allocator@D@2@@std@@AEAY02$$CBDV12@AEBV12@$0A@@detail@json_abi_v3_11_2@nlohmann@@YAXAEAV?$basic_string@DU?$char_traits@D@std@@V?$allocator@D@2@@std@@AEAY02$$CBD$$QEAV34@AEBV34@@Z
       1070  42D 00018C30 ??$concat_into@V?$basic_string@DU?$char_traits@D@std@@V?$allocator@D@2@@std@@AEAY04$$CBDV12@$0A@@detail@json_abi_v3_11_2@nlohmann@@YAXAEAV?$basic_string@DU?$char_traits@D@std@@V?$allocator@D@2@@std@@AEAY04$$CBD$$QEAV34@@Z
       1071  42E 000309C0 ??$concat_into@V?$basic_string@DU?$char_traits@D@std@@V?$allocator@D@2@@std@@AEAY05$$CBDV12@AEAY0M@$$CBD$0A@@detail@json_abi_v3_11_2@nlohmann@@YAXAEAV?$basic_string@DU?$char_traits@D@std@@V?$allocator@D@2@@std@@AEAY05$$CBD$$QEAV34@AEAY0M@$$CBD@Z
       1072  42F 00018C30 ??$concat_into@V?$basic_string@DU?$char_traits@D@std@@V?$allocator@D@2@@std@@AEAY09$$CBDV12@$0A@@detail@json_abi_v3_11_2@nlohmann@@YAXAEAV?$basic_string@DU?$char_traits@D@std@@V?$allocator@D@2@@std@@AEAY09$$CBD$$QEAV34@@Z
       1073  430 00018D80 ??$concat_into@V?$basic_string@DU?$char_traits@D@std@@V?$allocator@D@2@@std@@AEAY09$$CBDV12@AEAY09$$CBDV12@$0A@@detail@json_abi_v3_11_2@nlohmann@@YAXAEAV?$basic_string@DU?$char_traits@D@std@@V?$allocator@D@2@@std@@AEAY09$$CBD$$QEAV34@12@Z
       1074  431 00018C90 ??$concat_into@V?$basic_string@DU?$char_traits@D@std@@V?$allocator@D@2@@std@@AEAY0BB@$$CBDAEBV12@DV12@AEAY02$$CBD$0A@@detail@json_abi_v3_11_2@nlohmann@@YAXAEAV?$basic_string@DU?$char_traits@D@std@@V?$allocator@D@2@@std@@AEAY0BB@$$CBDAEBV34@$$QEAD$$QEAV34@AEAY02$$CBD@Z
       1075  432 00018E30 ??$concat_into@V?$basic_string@DU?$char_traits@D@std@@V?$allocator@D@2@@std@@AEAY0BG@$$CBDPEBD$0A@@detail@json_abi_v3_11_2@nlohmann@@YAXAEAV?$basic_string@DU?$char_traits@D@std@@V?$allocator@D@2@@std@@AEAY0BG@$$CBD$$QEAPEBD@Z
       1076  433 00018C30 ??$concat_into@V?$basic_string@DU?$char_traits@D@std@@V?$allocator@D@2@@std@@AEAY0BH@$$CBDV12@$0A@@detail@json_abi_v3_11_2@nlohmann@@YAXAEAV?$basic_string@DU?$char_traits@D@std@@V?$allocator@D@2@@std@@AEAY0BH@$$CBD$$QEAV34@@Z
       1077  434 00018C30 ??$concat_into@V?$basic_string@DU?$char_traits@D@std@@V?$allocator@D@2@@std@@AEAY0BI@$$CBDV12@$0A@@detail@json_abi_v3_11_2@nlohmann@@YAXAEAV?$basic_string@DU?$char_traits@D@std@@V?$allocator@D@2@@std@@AEAY0BI@$$CBD$$QEAV34@@Z
       1078  435 00018E30 ??$concat_into@V?$basic_string@DU?$char_traits@D@std@@V?$allocator@D@2@@std@@AEAY0BJ@$$CBDPEBD$0A@@detail@json_abi_v3_11_2@nlohmann@@YAXAEAV?$basic_string@DU?$char_traits@D@std@@V?$allocator@D@2@@std@@AEAY0BJ@$$CBD$$QEAPEBD@Z
       1079  436 00030A50 ??$concat_into@V?$basic_string@DU?$char_traits@D@std@@V?$allocator@D@2@@std@@AEAY0BK@$$CBDV12@D$0A@@detail@json_abi_v3_11_2@nlohmann@@YAXAEAV?$basic_string@DU?$char_traits@D@std@@V?$allocator@D@2@@std@@AEAY0BK@$$CBD$$QEAV34@$$QEAD@Z
       1080  437 00018E30 ??$concat_into@V?$basic_string@DU?$char_traits@D@std@@V?$allocator@D@2@@std@@AEAY0BN@$$CBDPEBD$0A@@detail@json_abi_v3_11_2@nlohmann@@YAXAEAV?$basic_string@DU?$char_traits@D@std@@V?$allocator@D@2@@std@@AEAY0BN@$$CBD$$QEAPEBD@Z
       1081  438 00018D80 ??$concat_into@V?$basic_string@DU?$char_traits@D@std@@V?$allocator@D@2@@std@@AEAY0BN@$$CBDV12@AEAY04$$CBDV12@$0A@@detail@json_abi_v3_11_2@nlohmann@@YAXAEAV?$basic_string@DU?$char_traits@D@std@@V?$allocator@D@2@@std@@AEAY0BN@$$CBD$$QEAV34@AEAY04$$CBD2@Z
       1082  439 00018E30 ??$concat_into@V?$basic_string@DU?$char_traits@D@std@@V?$allocator@D@2@@std@@AEAY0BO@$$CBDPEBD$0A@@detail@json_abi_v3_11_2@nlohmann@@YAXAEAV?$basic_string@DU?$char_traits@D@std@@V?$allocator@D@2@@std@@AEAY0BO@$$CBD$$QEAPEBD@Z
       1083  43A 00018C30 ??$concat_into@V?$basic_string@DU?$char_traits@D@std@@V?$allocator@D@2@@std@@AEAY0CH@$$CBDV12@$0A@@detail@json_abi_v3_11_2@nlohmann@@YAXAEAV?$basic_string@DU?$char_traits@D@std@@V?$allocator@D@2@@std@@AEAY0CH@$$CBD$$QEAV34@@Z
       1084  43B 00018E30 ??$concat_into@V?$basic_string@DU?$char_traits@D@std@@V?$allocator@D@2@@std@@AEAY0DD@$$CBDPEBD$0A@@detail@json_abi_v3_11_2@nlohmann@@YAXAEAV?$basic_string@DU?$char_traits@D@std@@V?$allocator@D@2@@std@@AEAY0DD@$$CBD$$QEAPEBD@Z
       1085  43C 00018E30 ??$concat_into@V?$basic_string@DU?$char_traits@D@std@@V?$allocator@D@2@@std@@AEAY0DE@$$CBDPEBD$0A@@detail@json_abi_v3_11_2@nlohmann@@YAXAEAV?$basic_string@DU?$char_traits@D@std@@V?$allocator@D@2@@std@@AEAY0DE@$$CBD$$QEAPEBD@Z
       1086  43D 00018C10 ??$concat_into@V?$basic_string@DU?$char_traits@D@std@@V?$allocator@D@2@@std@@AEAY0M@$$CBD$$V$0A@@detail@json_abi_v3_11_2@nlohmann@@YAXAEAV?$basic_string@DU?$char_traits@D@std@@V?$allocator@D@2@@std@@AEAY0M@$$CBD@Z
       1087  43E 00018E30 ??$concat_into@V?$basic_string@DU?$char_traits@D@std@@V?$allocator@D@2@@std@@AEAY0M@$$CBDPEBD$0A@@detail@json_abi_v3_11_2@nlohmann@@YAXAEAV?$basic_string@DU?$char_traits@D@std@@V?$allocator@D@2@@std@@AEAY0M@$$CBD$$QEAPEBD@Z
       1088  43F 00030B00 ??$concat_into@V?$basic_string@DU?$char_traits@D@std@@V?$allocator@D@2@@std@@AEAY0M@$$CBDV12@AEAY02$$CBDV12@AEBV12@$0A@@detail@json_abi_v3_11_2@nlohmann@@YAXAEAV?$basic_string@DU?$char_traits@D@std@@V?$allocator@D@2@@std@@AEAY0M@$$CBD$$QEAV34@AEAY02$$CBD2AEBV34@@Z
       1089  440 00030A50 ??$concat_into@V?$basic_string@DU?$char_traits@D@std@@V?$allocator@D@2@@std@@AEAY0P@$$CBDAEBV12@D$0A@@detail@json_abi_v3_11_2@nlohmann@@YAXAEAV?$basic_string@DU?$char_traits@D@std@@V?$allocator@D@2@@std@@AEAY0P@$$CBDAEBV34@$$QEAD@Z
       1090  441 00030A50 ??$concat_into@V?$basic_string@DU?$char_traits@D@std@@V?$allocator@D@2@@std@@AEAY0P@$$CBDV12@D$0A@@detail@json_abi_v3_11_2@nlohmann@@YAXAEAV?$basic_string@DU?$char_traits@D@std@@V?$allocator@D@2@@std@@AEAY0P@$$CBD$$QEAV34@$$QEAD@Z
       1091  442 00018E90 ??$concat_into@V?$basic_string@DU?$char_traits@D@std@@V?$allocator@D@2@@std@@AEBV12@$$V$0A@@detail@json_abi_v3_11_2@nlohmann@@YAXAEAV?$basic_string@DU?$char_traits@D@std@@V?$allocator@D@2@@std@@AEBV34@@Z
       1092  443 00030BD0 ??$concat_into@V?$basic_string@DU?$char_traits@D@std@@V?$allocator@D@2@@std@@AEBV12@D$0A@@detail@json_abi_v3_11_2@nlohmann@@YAXAEAV?$basic_string@DU?$char_traits@D@std@@V?$allocator@D@2@@std@@AEBV34@$$QEAD@Z
       1093  444 00018EB0 ??$concat_into@V?$basic_string@DU?$char_traits@D@std@@V?$allocator@D@2@@std@@AEBV12@DV12@AEAY02$$CBD$0A@@detail@json_abi_v3_11_2@nlohmann@@YAXAEAV?$basic_string@DU?$char_traits@D@std@@V?$allocator@D@2@@std@@AEBV34@$$QEAD$$QEAV34@AEAY02$$CBD@Z
       1094  445 00030C50 ??$concat_into@V?$basic_string@DU?$char_traits@D@std@@V?$allocator@D@2@@std@@D$$V$0A@@detail@json_abi_v3_11_2@nlohmann@@YAXAEAV?$basic_string@DU?$char_traits@D@std@@V?$allocator@D@2@@std@@$$QEAD@Z
       1095  446 00018F70 ??$concat_into@V?$basic_string@DU?$char_traits@D@std@@V?$allocator@D@2@@std@@DV12@AEAY02$$CBD$0A@@detail@json_abi_v3_11_2@nlohmann@@YAXAEAV?$basic_string@DU?$char_traits@D@std@@V?$allocator@D@2@@std@@$$QEAD$$QEAV34@AEAY02$$CBD@Z
       1096  447 00019020 ??$concat_into@V?$basic_string@DU?$char_traits@D@std@@V?$allocator@D@2@@std@@PEBD$$V$0A@@detail@json_abi_v3_11_2@nlohmann@@YAXAEAV?$basic_string@DU?$char_traits@D@std@@V?$allocator@D@2@@std@@$$QEAPEBD@Z
       1097  448 00030C90 ??$concat_into@V?$basic_string@DU?$char_traits@D@std@@V?$allocator@D@2@@std@@PEBDAEAY0P@$$CBDV12@D$0A@@detail@json_abi_v3_11_2@nlohmann@@YAXAEAV?$basic_string@DU?$char_traits@D@std@@V?$allocator@D@2@@std@@$$QEAPEBDAEAY0P@$$CBD$$QEAV34@$$QEAD@Z
       1098  449 00018E90 ??$concat_into@V?$basic_string@DU?$char_traits@D@std@@V?$allocator@D@2@@std@@V12@$$V$0A@@detail@json_abi_v3_11_2@nlohmann@@YAXAEAV?$basic_string@DU?$char_traits@D@std@@V?$allocator@D@2@@std@@$$QEAV34@@Z
       1099  44A 00019040 ??$concat_into@V?$basic_string@DU?$char_traits@D@std@@V?$allocator@D@2@@std@@V12@AEAY02$$CBD$0A@@detail@json_abi_v3_11_2@nlohmann@@YAXAEAV?$basic_string@DU?$char_traits@D@std@@V?$allocator@D@2@@std@@$$QEAV34@AEAY02$$CBD@Z
       1100  44B 00030D60 ??$concat_into@V?$basic_string@DU?$char_traits@D@std@@V?$allocator@D@2@@std@@V12@AEAY02$$CBDV12@AEBV12@$0A@@detail@json_abi_v3_11_2@nlohmann@@YAXAEAV?$basic_string@DU?$char_traits@D@std@@V?$allocator@D@2@@std@@$$QEAV34@AEAY02$$CBD1AEBV34@@Z
       1101  44C 00019090 ??$concat_into@V?$basic_string@DU?$char_traits@D@std@@V?$allocator@D@2@@std@@V12@AEAY04$$CBDV12@$0A@@detail@json_abi_v3_11_2@nlohmann@@YAXAEAV?$basic_string@DU?$char_traits@D@std@@V?$allocator@D@2@@std@@$$QEAV34@AEAY04$$CBD1@Z
       1102  44D 00019090 ??$concat_into@V?$basic_string@DU?$char_traits@D@std@@V?$allocator@D@2@@std@@V12@AEAY09$$CBDV12@$0A@@detail@json_abi_v3_11_2@nlohmann@@YAXAEAV?$basic_string@DU?$char_traits@D@std@@V?$allocator@D@2@@std@@$$QEAV34@AEAY09$$CBD1@Z
       1103  44E 00019040 ??$concat_into@V?$basic_string@DU?$char_traits@D@std@@V?$allocator@D@2@@std@@V12@AEAY0M@$$CBD$0A@@detail@json_abi_v3_11_2@nlohmann@@YAXAEAV?$basic_string@DU?$char_traits@D@std@@V?$allocator@D@2@@std@@$$QEAV34@AEAY0M@$$CBD@Z
       1104  44F 00030DF0 ??$concat_into@V?$basic_string@DU?$char_traits@D@std@@V?$allocator@D@2@@std@@V12@AEAY0M@$$CBDV12@AEAY02$$CBDV12@AEBV12@$0A@@detail@json_abi_v3_11_2@nlohmann@@YAXAEAV?$basic_string@DU?$char_traits@D@std@@V?$allocator@D@2@@std@@$$QEAV34@AEAY0M@$$CBD1AEAY02$$CBD1AEBV34@@Z
       1105  450 00019100 ??$concat_into@V?$basic_string@DU?$char_traits@D@std@@V?$allocator@D@2@@std@@V12@AEBV12@$0A@@detail@json_abi_v3_11_2@nlohmann@@YAXAEAV?$basic_string@DU?$char_traits@D@std@@V?$allocator@D@2@@std@@$$QEAV34@AEBV34@@Z
       1106  451 00030BD0 ??$concat_into@V?$basic_string@DU?$char_traits@D@std@@V?$allocator@D@2@@std@@V12@D$0A@@detail@json_abi_v3_11_2@nlohmann@@YAXAEAV?$basic_string@DU?$char_traits@D@std@@V?$allocator@D@2@@std@@$$QEAV34@$$QEAD@Z
       1107  452 00019150 ??$concat_into@V?$basic_string@DU?$char_traits@D@std@@V?$allocator@D@2@@std@@V12@V12@AEBV12@$0A@@detail@json_abi_v3_11_2@nlohmann@@YAXAEAV?$basic_string@DU?$char_traits@D@std@@V?$allocator@D@2@@std@@$$QEAV34@1AEBV34@@Z
       1108  453 00030ED0 ??$concat_length@$$V@detail@json_abi_v3_11_2@nlohmann@@YA_KD@Z
       1109  454 000029C0 ??$concat_length@$$V@detail@json_abi_v3_11_2@nlohmann@@YA_KPEBD@Z
       1110  455 00030EE0 ??$concat_length@AEAY0P@$$CBDV?$basic_string@DU?$char_traits@D@std@@V?$allocator@D@2@@std@@D@detail@json_abi_v3_11_2@nlohmann@@YA_KPEBDAEAY0P@$$CBD$$QEAV?$basic_string@DU?$char_traits@D@std@@V?$allocator@D@2@@std@@$$QEAD@Z
       1111  456 00030F20 ??$concat_length@AEBV?$basic_string@DU?$char_traits@D@std@@V?$allocator@D@2@@std@@D@detail@json_abi_v3_11_2@nlohmann@@YA_KPEBDAEBV?$basic_string@DU?$char_traits@D@std@@V?$allocator@D@2@@std@@$$QEAD@Z
       1112  457 000191C0 ??$concat_length@AEBV?$basic_string@DU?$char_traits@D@std@@V?$allocator@D@2@@std@@DV12@AEAY02$$CBD@detail@json_abi_v3_11_2@nlohmann@@YA_KPEBDAEBV?$basic_string@DU?$char_traits@D@std@@V?$allocator@D@2@@std@@$$QEAD$$QEAV34@AEAY02$$CBD@Z
       1113  458 00019200 ??$concat_length@PEBD@detail@json_abi_v3_11_2@nlohmann@@YA_KPEBD$$QEAPEBD@Z
       1114  459 00005560 ??$concat_length@V?$basic_string@DU?$char_traits@D@std@@V?$allocator@D@2@@std@@$$V@detail@json_abi_v3_11_2@nlohmann@@YA_KAEBV?$basic_string@DU?$char_traits@D@std@@V?$allocator@D@2@@std@@@Z
       1115  45A 00019230 ??$concat_length@V?$basic_string@DU?$char_traits@D@std@@V?$allocator@D@2@@std@@@detail@json_abi_v3_11_2@nlohmann@@YA_KPEBD$$QEAV?$basic_string@DU?$char_traits@D@std@@V?$allocator@D@2@@std@@@Z
       1116  45B 00019250 ??$concat_length@V?$basic_string@DU?$char_traits@D@std@@V?$allocator@D@2@@std@@AEAY02$$CBD@detail@json_abi_v3_11_2@nlohmann@@YA_KAEBV?$basic_string@DU?$char_traits@D@std@@V?$allocator@D@2@@std@@AEAY02$$CBD@Z
       1117  45C 00019270 ??$concat_length@V?$basic_string@DU?$char_traits@D@std@@V?$allocator@D@2@@std@@AEAY02$$CBD@detail@json_abi_v3_11_2@nlohmann@@YA_KD$$QEAV?$basic_string@DU?$char_traits@D@std@@V?$allocator@D@2@@std@@AEAY02$$CBD@Z
       1118  45D 00030F40 ??$concat_length@V?$basic_string@DU?$char_traits@D@std@@V?$allocator@D@2@@std@@AEAY02$$CBDV12@AEBV12@@detail@json_abi_v3_11_2@nlohmann@@YA_KAEBV?$basic_string@DU?$char_traits@D@std@@V?$allocator@D@2@@std@@AEAY02$$CBD$$QEAV34@0@Z
       1119  45E 00030F60 ??$concat_length@V?$basic_string@DU?$char_traits@D@std@@V?$allocator@D@2@@std@@AEAY02$$CBDV12@AEBV12@@detail@json_abi_v3_11_2@nlohmann@@YA_KPEBD$$QEAV?$basic_string@DU?$char_traits@D@std@@V?$allocator@D@2@@std@@AEAY02$$CBD1AEBV34@@Z
       1120  45F 000192A0 ??$concat_length@V?$basic_string@DU?$char_traits@D@std@@V?$allocator@D@2@@std@@AEAY04$$CBDV12@@detail@json_abi_v3_11_2@nlohmann@@YA_KAEBV?$basic_string@DU?$char_traits@D@std@@V?$allocator@D@2@@std@@AEAY04$$CBD$$QEAV34@@Z
       1121  460 000192C0 ??$concat_length@V?$basic_string@DU?$char_traits@D@std@@V?$allocator@D@2@@std@@AEAY04$$CBDV12@@detail@json_abi_v3_11_2@nlohmann@@YA_KPEBD$$QEAV?$basic_string@DU?$char_traits@D@std@@V?$allocator@D@2@@std@@AEAY04$$CBD1@Z
       1122  461 000192A0 ??$concat_length@V?$basic_string@DU?$char_traits@D@std@@V?$allocator@D@2@@std@@AEAY09$$CBDV12@@detail@json_abi_v3_11_2@nlohmann@@YA_KAEBV?$basic_string@DU?$char_traits@D@std@@V?$allocator@D@2@@std@@AEAY09$$CBD$$QEAV34@@Z
       1123  462 000192C0 ??$concat_length@V?$basic_string@DU?$char_traits@D@std@@V?$allocator@D@2@@std@@AEAY09$$CBDV12@@detail@json_abi_v3_11_2@nlohmann@@YA_KPEBD$$QEAV?$basic_string@DU?$char_traits@D@std@@V?$allocator@D@2@@std@@AEAY09$$CBD1@Z
       1124  463 00019250 ??$concat_length@V?$basic_string@DU?$char_traits@D@std@@V?$allocator@D@2@@std@@AEAY0M@$$CBD@detail@json_abi_v3_11_2@nlohmann@@YA_KAEBV?$basic_string@DU?$char_traits@D@std@@V?$allocator@D@2@@std@@AEAY0M@$$CBD@Z
       1125  464 00030FA0 ??$concat_length@V?$basic_string@DU?$char_traits@D@std@@V?$allocator@D@2@@std@@AEAY0M@$$CBD@detail@json_abi_v3_11_2@nlohmann@@YA_KPEBD$$QEAV?$basic_string@DU?$char_traits@D@std@@V?$allocator@D@2@@std@@AEAY0M@$$CBD@Z
       1126  465 00030FE0 ??$concat_length@V?$basic_string@DU?$char_traits@D@std@@V?$allocator@D@2@@std@@AEAY0M@$$CBDV12@AEAY02$$CBDV12@AEBV12@@detail@json_abi_v3_11_2@nlohmann@@YA_KAEBV?$basic_string@DU?$char_traits@D@std@@V?$allocator@D@2@@std@@AEAY0M@$$CBD$$QEAV34@AEAY02$$CBD20@Z
       1127  466 00019300 ??$concat_length@V?$basic_string@DU?$char_traits@D@std@@V?$allocator@D@2@@std@@AEBV12@@detail@json_abi_v3_11_2@nlohmann@@YA_KAEBV?$basic_string@DU?$char_traits@D@std@@V?$allocator@D@2@@std@@0@Z
       1128  467 00031030 ??$concat_length@V?$basic_string@DU?$char_traits@D@std@@V?$allocator@D@2@@std@@AEBV12@@detail@json_abi_v3_11_2@nlohmann@@YA_KPEBD$$QEAV?$basic_string@DU?$char_traits@D@std@@V?$allocator@D@2@@std@@AEBV34@@Z
       1129  468 00031050 ??$concat_length@V?$basic_string@DU?$char_traits@D@std@@V?$allocator@D@2@@std@@D@detail@json_abi_v3_11_2@nlohmann@@YA_KAEBV?$basic_string@DU?$char_traits@D@std@@V?$allocator@D@2@@std@@$$QEAD@Z
       1130  469 00030F20 ??$concat_length@V?$basic_string@DU?$char_traits@D@std@@V?$allocator@D@2@@std@@D@detail@json_abi_v3_11_2@nlohmann@@YA_KPEBD$$QEAV?$basic_string@DU?$char_traits@D@std@@V?$allocator@D@2@@std@@$$QEAD@Z
       1131  46A 00019310 ??$concat_length@V?$basic_string@DU?$char_traits@D@std@@V?$allocator@D@2@@std@@DV12@AEAY02$$CBD@detail@json_abi_v3_11_2@nlohmann@@YA_KAEBV?$basic_string@DU?$char_traits@D@std@@V?$allocator@D@2@@std@@$$QEAD$$QEAV34@AEAY02$$CBD@Z
       1132  46B 00019340 ??$concat_length@V?$basic_string@DU?$char_traits@D@std@@V?$allocator@D@2@@std@@V12@AEBV12@@detail@json_abi_v3_11_2@nlohmann@@YA_KAEBV?$basic_string@DU?$char_traits@D@std@@V?$allocator@D@2@@std@@$$QEAV34@0@Z
       1133  46C 00019350 ??$construct@DD@?$_Default_allocator_traits@V?$allocator@D@std@@@std@@SAXAEAV?$allocator@D@1@QEAD$$QEAD@Z
       1134  46D 00019350 ??$construct@EAEAE@?$_Default_allocator_traits@V?$allocator@E@std@@@std@@SAXAEAV?$allocator@E@1@QEAEAEAE@Z
       1135  46E 00031060 ??$construct@IAEBI@?$_Default_allocator_traits@V?$allocator@I@std@@@std@@SAXAEAV?$allocator@I@1@QEAIAEBI@Z
       1136  46F 00031060 ??$construct@II@?$_Default_allocator_traits@V?$allocator@I@std@@@std@@SAXAEAV?$allocator@I@1@QEAI$$QEAI@Z
       1137  470 00002E70 ??$construct@PEAV?$basic_json@Vmap@std@@Vvector@2@V?$basic_string@DU?$char_traits@D@std@@V?$allocator@D@2@@2@_N_J_KNVallocator@2@Uadl_serializer@json_abi_v3_11_2@nlohmann@@V?$vector@EV?$allocator@E@std@@@2@@json_abi_v3_11_2@nlohmann@@AEBQEAV123@@?$_Default_allocator_traits@V?$allocator@PEAV?$basic_json@Vmap@std@@Vvector@2@V?$basic_string@DU?$char_traits@D@std@@V?$allocator@D@2@@2@_N_J_KNVallocator@2@Uadl_serializer@json_abi_v3_11_2@nlohmann@@V?$vector@EV?$allocator@E@std@@@2@@json_abi_v3_11_2@nlohmann@@@std@@@std@@SAXAEAV?$allocator@PEAV?$basic_json@Vmap@std@@Vvector@2@V?$basic_string@DU?$char_traits@D@std@@V?$allocator@D@2@@2@_N_J_KNVallocator@2@Uadl_serializer@json_abi_v3_11_2@nlohmann@@V?$vector@EV?$allocator@E@std@@@2@@json_abi_v3_11_2@nlohmann@@@1@QEAPEAV?$basic_json@Vmap@std@@Vvector@2@V?$basic_string@DU?$char_traits@D@std@@V?$allocator@D@2@@2@_N_J_KNVallocator@2@Uadl_serializer@json_abi_v3_11_2@nlohmann@@V?$vector@EV?$allocator@E@std@@@2@@json_abi_v3_11_2@nlohmann@@AEBQEAV345@@Z
       1138  471 00002E70 ??$construct@PEAV?$basic_json@Vmap@std@@Vvector@2@V?$basic_string@DU?$char_traits@D@std@@V?$allocator@D@2@@2@_N_J_KNVallocator@2@Uadl_serializer@json_abi_v3_11_2@nlohmann@@V?$vector@EV?$allocator@E@std@@@2@@json_abi_v3_11_2@nlohmann@@PEAV123@@?$_Default_allocator_traits@V?$allocator@PEAV?$basic_json@Vmap@std@@Vvector@2@V?$basic_string@DU?$char_traits@D@std@@V?$allocator@D@2@@2@_N_J_KNVallocator@2@Uadl_serializer@json_abi_v3_11_2@nlohmann@@V?$vector@EV?$allocator@E@std@@@2@@json_abi_v3_11_2@nlohmann@@@std@@@std@@SAXAEAV?$allocator@PEAV?$basic_json@Vmap@std@@Vvector@2@V?$basic_string@DU?$char_traits@D@std@@V?$allocator@D@2@@2@_N_J_KNVallocator@2@Uadl_serializer@json_abi_v3_11_2@nlohmann@@V?$vector@EV?$allocator@E@std@@@2@@json_abi_v3_11_2@nlohmann@@@1@QEAPEAV?$basic_json@Vmap@std@@Vvector@2@V?$basic_string@DU?$char_traits@D@std@@V?$allocator@D@2@@2@_N_J_KNVallocator@2@Uadl_serializer@json_abi_v3_11_2@nlohmann@@V?$vector@EV?$allocator@E@std@@@2@@json_abi_v3_11_2@nlohmann@@$$QEAPEAV345@@Z
       1139  472 00002E70 ??$construct@PEAVBehavior@pineBT@@AEAPEAV12@@?$_Default_allocator_traits@V?$allocator@PEAVBehavior@pineBT@@@std@@@std@@SAXAEAV?$allocator@PEAVBehavior@pineBT@@@1@QEAPEAVBehavior@pineBT@@AEAPEAV34@@Z
       1140  473 00002E70 ??$construct@PEAVBehavior@pineBT@@AEBQEAV12@@?$_Default_allocator_traits@V?$allocator@PEAVBehavior@pineBT@@@std@@@std@@SAXAEAV?$allocator@PEAVBehavior@pineBT@@@1@QEAPEAVBehavior@pineBT@@AEBQEAV34@@Z
       1141  474 00002E70 ??$construct@PEAVBehavior@pineBT@@PEAV12@@?$_Default_allocator_traits@V?$allocator@PEAVBehavior@pineBT@@@std@@@std@@SAXAEAV?$allocator@PEAVBehavior@pineBT@@@1@QEAPEAVBehavior@pineBT@@$$QEAPEAV34@@Z
       1142  475 00040080 ??$construct@U?$pair@$$CBHV?$unique_ptr@VBehaviorTree@pineBT@@U?$default_delete@VBehaviorTree@pineBT@@@std@@@std@@@std@@AEBUpiecewise_construct_t@2@V?$tuple@AEBH@2@V?$tuple@$$V@2@@?$_Default_allocator_traits@V?$allocator@U?$_List_node@U?$pair@$$CBHV?$unique_ptr@VBehaviorTree@pineBT@@U?$default_delete@VBehaviorTree@pineBT@@@std@@@std@@@std@@PEAX@std@@@std@@@std@@SAXAEAV?$allocator@U?$_List_node@U?$pair@$$CBHV?$unique_ptr@VBehaviorTree@pineBT@@U?$default_delete@VBehaviorTree@pineBT@@@std@@@std@@@std@@PEAX@std@@@1@QEAU?$pair@$$CBHV?$unique_ptr@VBehaviorTree@pineBT@@U?$default_delete@VBehaviorTree@pineBT@@@std@@@std@@@1@AEBUpiecewise_construct_t@1@$$QEAV?$tuple@AEBH@1@$$QEAV?$tuple@$$V@1@@Z
       1143  476 0002C860 ??$construct@U?$pair@$$CBIW4Result@Behavior@pineBT@@@std@@AEBUpiecewise_construct_t@2@V?$tuple@AEBI@2@V?$tuple@$$V@2@@?$_Default_allocator_traits@V?$allocator@U?$_List_node@U?$pair@$$CBIW4Result@Behavior@pineBT@@@std@@PEAX@std@@@std@@@std@@SAXAEAV?$allocator@U?$_List_node@U?$pair@$$CBIW4Result@Behavior@pineBT@@@std@@PEAX@std@@@1@QEAU?$pair@$$CBIW4Result@Behavior@pineBT@@@1@AEBUpiecewise_construct_t@1@$$QEAV?$tuple@AEBI@1@$$QEAV?$tuple@$$V@1@@Z
       1144  477 00006B90 ??$construct@U?$pair@$$CBV?$basic_string@DU?$char_traits@D@std@@V?$allocator@D@2@@std@@H@std@@AEBU12@@?$_Default_allocator_traits@V?$allocator@U?$_List_node@U?$pair@$$CBV?$basic_string@DU?$char_traits@D@std@@V?$allocator@D@2@@std@@H@std@@PEAX@std@@@std@@@std@@SAXAEAV?$allocator@U?$_List_node@U?$pair@$$CBV?$basic_string@DU?$char_traits@D@std@@V?$allocator@D@2@@std@@H@std@@PEAX@std@@@1@QEAU?$pair@$$CBV?$basic_string@DU?$char_traits@D@std@@V?$allocator@D@2@@std@@H@1@AEBU31@@Z
       1145  478 00006BC0 ??$construct@U?$pair@$$CBV?$basic_string@DU?$char_traits@D@std@@V?$allocator@D@2@@std@@H@std@@AEBUpiecewise_construct_t@2@V?$tuple@AEBV?$basic_string@DU?$char_traits@D@std@@V?$allocator@D@2@@std@@@2@V?$tuple@$$V@2@@?$_Default_allocator_traits@V?$allocator@U?$_List_node@U?$pair@$$CBV?$basic_string@DU?$char_traits@D@std@@V?$allocator@D@2@@std@@H@std@@PEAX@std@@@std@@@std@@SAXAEAV?$allocator@U?$_List_node@U?$pair@$$CBV?$basic_string@DU?$char_traits@D@std@@V?$allocator@D@2@@std@@H@std@@PEAX@std@@@1@QEAU?$pair@$$CBV?$basic_string@DU?$char_traits@D@std@@V?$allocator@D@2@@std@@H@1@AEBUpiecewise_construct_t@1@$$QEAV?$tuple@AEBV?$basic_string@DU?$char_traits@D@std@@V?$allocator@D@2@@std@@@1@$$QEAV?$tuple@$$V@1@@Z
       1146  479 00019360 ??$construct@U?$pair@$$CBV?$basic_string@DU?$char_traits@D@std@@V?$allocator@D@2@@std@@UBehaviorSchema@pineBT@@@std@@AEBUpiecewise_construct_t@2@V?$tuple@AEBV?$basic_string@DU?$char_traits@D@std@@V?$allocator@D@2@@std@@@2@V?$tuple@$$V@2@@?$_Default_allocator_traits@V?$allocator@U?$_List_node@U?$pair@$$CBV?$basic_string@DU?$char_traits@D@std@@V?$allocator@D@2@@std@@UBehaviorSchema@pineBT@@@std@@PEAX@std@@@std@@@std@@SAXAEAV?$allocator@U?$_List_node@U?$pair@$$CBV?$basic_string@DU?$char_traits@D@std@@V?$allocator@D@2@@std@@UBehaviorSchema@pineBT@@@std@@PEAX@std@@@1@QEAU?$pair@$$CBV?$basic_string@DU?$char_traits@D@std@@V?$allocator@D@2@@std@@UBehaviorSchema@pineBT@@@1@AEBUpiecewise_construct_t@1@$$QEAV?$tuple@AEBV?$basic_string@DU?$char_traits@D@std@@V?$allocator@D@2@@std@@@1@$$QEAV?$tuple@$$V@1@@Z
       1147  47A 00019390 ??$construct@U?$pair@$$CBV?$basic_string@DU?$char_traits@D@std@@V?$allocator@D@2@@std@@V?$basic_json@Vmap@std@@Vvector@2@V?$basic_string@DU?$char_traits@D@std@@V?$allocator@D@2@@2@_N_J_KNVallocator@2@Uadl_serializer@json_abi_v3_11_2@nlohmann@@V?$vector@EV?$allocator@E@std@@@2@@json_abi_v3_11_2@nlohmann@@@std@@AEAU12@@?$_Default_allocator_traits@V?$allocator@U?$_Tree_node@U?$pair@$$CBV?$basic_string@DU?$char_traits@D@std@@V?$allocator@D@2@@std@@V?$basic_json@Vmap@std@@Vvector@2@V?$basic_string@DU?$char_traits@D@std@@V?$allocator@D@2@@2@_N_J_KNVallocator@2@Uadl_serializer@json_abi_v3_11_2@nlohmann@@V?$vector@EV?$allocator@E@std@@@2@@json_abi_v3_11_2@nlohmann@@@std@@PEAX@std@@@std@@@std@@SAXAEAV?$allocator@U?$_Tree_node@U?$pair@$$CBV?$basic_string@DU?$char_traits@D@std@@V?$allocator@D@2@@std@@V?$basic_json@Vmap@std@@Vvector@2@V?$basic_string@DU?$char_traits@D@std@@V?$allocator@D@2@@2@_N_J_KNVallocator@2@Uadl_serializer@json_abi_v3_11_2@nlohmann@@V?$vector@EV?$allocator@E@std@@@2@@json_abi_v3_11_2@nlohmann@@@std@@PEAX@std@@@1@QEAU?$pair@$$CBV?$basic_string@DU?$char_traits@D@std@@V?$allocator@D@2@@std@@V?$basic_json@Vmap@std@@Vvector@2@V?$basic_string@DU?$char_traits@D@std@@V?$allocator@D@2@@2@_N_J_KNVallocator@2@Uadl_serializer@json_abi_v3_11_2@nlohmann@@V?$vector@EV?$allocator@E@std@@@2@@json_abi_v3_11_2@nlohmann@@@1@AEAU31@@Z
       1148  47B 00031070 ??$construct@U?$pair@$$CBV?$basic_string@DU?$char_traits@D@std@@V?$allocator@D@2@@std@@V?$basic_json@Vmap@std@@Vvector@2@V?$basic_string@DU?$char_traits@D@std@@V?$allocator@D@2@@2@_N_J_KNVallocator@2@Uadl_serializer@json_abi_v3_11_2@nlohmann@@V?$vector@EV?$allocator@E@std@@@2@@json_abi_v3_11_2@nlohmann@@@std@@AEBUpiecewise_construct_t@2@V?$tuple@AEBV?$basic_string@DU?$char_traits@D@std@@V?$allocator@D@2@@std@@@2@V?$tuple@$$V@2@@?$_Default_allocator_traits@V?$allocator@U?$_Tree_node@U?$pair@$$CBV?$basic_string@DU?$char_traits@D@std@@V?$allocator@D@2@@std@@V?$basic_json@Vmap@std@@Vvector@2@V?$basic_string@DU?$char_traits@D@std@@V?$allocator@D@2@@2@_N_J_KNVallocator@2@Uadl_serializer@json_abi_v3_11_2@nlohmann@@V?$vector@EV?$allocator@E@std@@@2@@json_abi_v3_11_2@nlohmann@@@std@@PEAX@std@@@std@@@std@@SAXAEAV?$allocator@U?$_Tree_node@U?$pair@$$CBV?$basic_string@DU?$char_traits@D@std@@V?$allocator@D@2@@std@@V?$basic_json@Vmap@std@@Vvector@2@V?$basic_string@DU?$char_traits@D@std@@V?$allocator@D@2@@2@_N_J_KNVallocator@2@Uadl_serializer@json_abi_v3_11_2@nlohmann@@V?$vector@EV?$allocator@E@std@@@2@@json_abi_v3_11_2@nlohmann@@@std@@PEAX@std@@@1@QEAU?$pair@$$CBV?$basic_string@DU?$char_traits@D@std@@V?$allocator@D@2@@std@@V?$basic_json@Vmap@std@@Vvector@2@V?$basic_string@DU?$char_traits@D@std@@V?$allocator@D@2@@2@_N_J_KNVallocator@2@Uadl_serializer@json_abi_v3_11_2@nlohmann@@V?$vector@EV?$allocator@E@std@@@2@@json_abi_v3_11_2@nlohmann@@@1@AEBUpiecewise_construct_t@1@$$QEAV?$tuple@AEBV?$basic_string@DU?$char_traits@D@std@@V?$allocator@D@2@@std@@@1@$$QEAV?$tuple@$$V@1@@Z
       1149  47C 000193D0 ??$construct@U?$pair@$$CBV?$basic_string@DU?$char_traits@D@std@@V?$allocator@D@2@@std@@V?$basic_json@Vmap@std@@Vvector@2@V?$basic_string@DU?$char_traits@D@std@@V?$allocator@D@2@@2@_N_J_KNVallocator@2@Uadl_serializer@json_abi_v3_11_2@nlohmann@@V?$vector@EV?$allocator@E@std@@@2@@json_abi_v3_11_2@nlohmann@@@std@@V?$basic_string@DU?$char_traits@D@std@@V?$allocator@D@2@@2@$$T@?$_Default_allocator_traits@V?$allocator@U?$_Tree_node@U?$pair@$$CBV?$basic_string@DU?$char_traits@D@std@@V?$allocator@D@2@@std@@V?$basic_json@Vmap@std@@Vvector@2@V?$basic_string@DU?$char_traits@D@std@@V?$allocator@D@2@@2@_N_J_KNVallocator@2@Uadl_serializer@json_abi_v3_11_2@nlohmann@@V?$vector@EV?$allocator@E@std@@@2@@json_abi_v3_11_2@nlohmann@@@std@@PEAX@std@@@std@@@std@@SAXAEAV?$allocator@U?$_Tree_node@U?$pair@$$CBV?$basic_string@DU?$char_traits@D@std@@V?$allocator@D@2@@std@@V?$basic_json@Vmap@std@@Vvector@2@V?$basic_string@DU?$char_traits@D@std@@V?$allocator@D@2@@2@_N_J_KNVallocator@2@Uadl_serializer@json_abi_v3_11_2@nlohmann@@V?$vector@EV?$allocator@E@std@@@2@@json_abi_v3_11_2@nlohmann@@@std@@PEAX@std@@@1@QEAU?$pair@$$CBV?$basic_string@DU?$char_traits@D@std@@V?$allocator@D@2@@std@@V?$basic_json@Vmap@std@@Vvector@2@V?$basic_string@DU?$char_traits@D@std@@V?$allocator@D@2@@2@_N_J_KNVallocator@2@Uadl_serializer@json_abi_v3_11_2@nlohmann@@V?$vector@EV?$allocator@E@std@@@2@@json_abi_v3_11_2@nlohmann@@@1@$$QEAV?$basic_string@DU?$char_traits@D@std@@V?$allocator@D@2@@1@$$QEA$$T@Z
       1150  47D 00019420 ??$construct@U?$pair@$$CBV?$basic_string@DU?$char_traits@D@std@@V?$allocator@D@2@@std@@V?$function@$$A6APEAVBehavior@pineBT@@AEBV?$basic_string@DU?$char_traits@D@std@@V?$allocator@D@2@@std@@AEAVBehaviorTree@2@@Z@2@@std@@AEBUpiecewise_construct_t@2@V?$tuple@AEBV?$basic_string@DU?$char_traits@D@std@@V?$allocator@D@2@@std@@@2@V?$tuple@$$V@2@@?$_Default_allocator_traits@V?$allocator@U?$_List_node@U?$pair@$$CBV?$basic_string@DU?$char_traits@D@std@@V?$allocator@D@2@@std@@V?$function@$$A6APEAVBehavior@pineBT@@AEBV?$basic_string@DU?$char_traits@D@std@@V?$allocator@D@2@@std@@AEAVBehaviorTree@2@@Z@2@@std@@PEAX@std@@@std@@@std@@SAXAEAV?$allocator@U?$_List_node@U?$pair@$$CBV?$basic_string@DU?$char_traits@D@std@@V?$allocator@D@2@@std@@V?$function@$$A6APEAVBehavior@pineBT@@AEBV?$basic_string@DU?$char_traits@D@std@@V?$allocator@D@2@@std@@AEAVBehaviorTree@2@@Z@2@@std@@PEAX@std@@@1@QEAU?$pair@$$CBV?$basic_string@DU?$char_traits@D@std@@V?$allocator@D@2@@std@@V?$function@$$A6APEAVBehavior@pineBT@@AEBV?$basic_string@DU?$char_traits@D@std@@V?$allocator@D@2@@std@@AEAVBehaviorTree@2@@Z@2@@1@AEBUpiecewise_construct_t@1@$$QEAV?$tuple@AEBV?$basic_string@DU?$char_traits@D@std@@V?$allocator@D@2@@std@@@1@$$QEAV?$tuple@$$V@1@@Z
       1151  47E 00019450 ??$construct@V?$basic_json@Vmap@std@@Vvector@2@V?$basic_string@DU?$char_traits@D@std@@V?$allocator@D@2@@2@_N_J_KNVallocator@2@Uadl_serializer@json_abi_v3_11_2@nlohmann@@V?$vector@EV?$allocator@E@std@@@2@@json_abi_v3_11_2@nlohmann@@$$BY03D$0A@@?$external_constructor@$02@detail@json_abi_v3_11_2@nlohmann@@SAXAEAV?$basic_json@Vmap@std@@Vvector@2@V?$basic_string@DU?$char_traits@D@std@@V?$allocator@D@2@@2@_N_J_KNVallocator@2@Uadl_serializer@json_abi_v3_11_2@nlohmann@@V?$vector@EV?$allocator@E@std@@@2@@23@AEAY03$$CBD@Z
       1152  47F 00019450 ??$construct@V?$basic_json@Vmap@std@@Vvector@2@V?$basic_string@DU?$char_traits@D@std@@V?$allocator@D@2@@2@_N_J_KNVallocator@2@Uadl_serializer@json_abi_v3_11_2@nlohmann@@V?$vector@EV?$allocator@E@std@@@2@@json_abi_v3_11_2@nlohmann@@$$BY04D$0A@@?$external_constructor@$02@detail@json_abi_v3_11_2@nlohmann@@SAXAEAV?$basic_json@Vmap@std@@Vvector@2@V?$basic_string@DU?$char_traits@D@std@@V?$allocator@D@2@@2@_N_J_KNVallocator@2@Uadl_serializer@json_abi_v3_11_2@nlohmann@@V?$vector@EV?$allocator@E@std@@@2@@23@AEAY04$$CBD@Z
       1153  480 00019450 ??$construct@V?$basic_json@Vmap@std@@Vvector@2@V?$basic_string@DU?$char_traits@D@std@@V?$allocator@D@2@@2@_N_J_KNVallocator@2@Uadl_serializer@json_abi_v3_11_2@nlohmann@@V?$vector@EV?$allocator@E@std@@@2@@json_abi_v3_11_2@nlohmann@@$$BY06D$0A@@?$external_constructor@$02@detail@json_abi_v3_11_2@nlohmann@@SAXAEAV?$basic_json@Vmap@std@@Vvector@2@V?$basic_string@DU?$char_traits@D@std@@V?$allocator@D@2@@2@_N_J_KNVallocator@2@Uadl_serializer@json_abi_v3_11_2@nlohmann@@V?$vector@EV?$allocator@E@std@@@2@@23@AEAY06$$CBD@Z
       1154  481 00019450 ??$construct@V?$basic_json@Vmap@std@@Vvector@2@V?$basic_string@DU?$char_traits@D@std@@V?$allocator@D@2@@2@_N_J_KNVallocator@2@Uadl_serializer@json_abi_v3_11_2@nlohmann@@V?$vector@EV?$allocator@E@std@@@2@@json_abi_v3_11_2@nlohmann@@$$BY07D$0A@@?$external_constructor@$02@detail@json_abi_v3_11_2@nlohmann@@SAXAEAV?$basic_json@Vmap@std@@Vvector@2@V?$basic_string@DU?$char_traits@D@std@@V?$allocator@D@2@@2@_N_J_KNVallocator@2@Uadl_serializer@json_abi_v3_11_2@nlohmann@@V?$vector@EV?$allocator@E@std@@@2@@23@AEAY07$$CBD@Z
       1155  482 000310A0 ??$construct@V?$basic_json@Vmap@std@@Vvector@2@V?$basic_string@DU?$char_traits@D@std@@V?$allocator@D@2@@2@_N_J_KNVallocator@2@Uadl_serializer@json_abi_v3_11_2@nlohmann@@V?$vector@EV?$allocator@E@std@@@2@@json_abi_v3_11_2@nlohmann@@$$T@?$_Default_allocator_traits@V?$allocator@V?$basic_json@Vmap@std@@Vvector@2@V?$basic_string@DU?$char_traits@D@std@@V?$allocator@D@2@@2@_N_J_KNVallocator@2@Uadl_serializer@json_abi_v3_11_2@nlohmann@@V?$vector@EV?$allocator@E@std@@@2@@json_abi_v3_11_2@nlohmann@@@std@@@std@@SAXAEAV?$allocator@V?$basic_json@Vmap@std@@Vvector@2@V?$basic_string@DU?$char_traits@D@std@@V?$allocator@D@2@@2@_N_J_KNVallocator@2@Uadl_serializer@json_abi_v3_11_2@nlohmann@@V?$vector@EV?$allocator@E@std@@@2@@json_abi_v3_11_2@nlohmann@@@1@QEAV?$basic_json@Vmap@std@@Vvector@2@V?$basic_string@DU?$char_traits@D@std@@V?$allocator@D@2@@2@_N_J_KNVallocator@2@Uadl_serializer@json_abi_v3_11_2@nlohmann@@V?$vector@EV?$allocator@E@std@@@2@@json_abi_v3_11_2@nlohmann@@$$QEA$$T@Z
       1156  483 000310A0 ??$construct@V?$basic_json@Vmap@std@@Vvector@2@V?$basic_string@DU?$char_traits@D@std@@V?$allocator@D@2@@2@_N_J_KNVallocator@2@Uadl_serializer@json_abi_v3_11_2@nlohmann@@V?$vector@EV?$allocator@E@std@@@2@@json_abi_v3_11_2@nlohmann@@$$V@?$_Default_allocator_traits@V?$allocator@V?$basic_json@Vmap@std@@Vvector@2@V?$basic_string@DU?$char_traits@D@std@@V?$allocator@D@2@@2@_N_J_KNVallocator@2@Uadl_serializer@json_abi_v3_11_2@nlohmann@@V?$vector@EV?$allocator@E@std@@@2@@json_abi_v3_11_2@nlohmann@@@std@@@std@@SAXAEAV?$allocator@V?$basic_json@Vmap@std@@Vvector@2@V?$basic_string@DU?$char_traits@D@std@@V?$allocator@D@2@@2@_N_J_KNVallocator@2@Uadl_serializer@json_abi_v3_11_2@nlohmann@@V?$vector@EV?$allocator@E@std@@@2@@json_abi_v3_11_2@nlohmann@@@1@QEAV?$basic_json@Vmap@std@@Vvector@2@V?$basic_string@DU?$char_traits@D@std@@V?$allocator@D@2@@2@_N_J_KNVallocator@2@Uadl_serializer@json_abi_v3_11_2@nlohmann@@V?$vector@EV?$allocator@E@std@@@2@@json_abi_v3_11_2@nlohmann@@@Z
       1157  484 00040090 ??$construct@V?$basic_json@Vmap@std@@Vvector@2@V?$basic_string@DU?$char_traits@D@std@@V?$allocator@D@2@@2@_N_J_KNVallocator@2@Uadl_serializer@json_abi_v3_11_2@nlohmann@@V?$vector@EV?$allocator@E@std@@@2@@json_abi_v3_11_2@nlohmann@@@?$external_constructor@$02@detail@json_abi_v3_11_2@nlohmann@@SAXAEAV?$basic_json@Vmap@std@@Vvector@2@V?$basic_string@DU?$char_traits@D@std@@V?$allocator@D@2@@2@_N_J_KNVallocator@2@Uadl_serializer@json_abi_v3_11_2@nlohmann@@V?$vector@EV?$allocator@E@std@@@2@@23@$$QEAV?$basic_string@DU?$char_traits@D@std@@V?$allocator@D@2@@std@@@Z
       1158  485 000194E0 ??$construct@V?$basic_json@Vmap@std@@Vvector@2@V?$basic_string@DU?$char_traits@D@std@@V?$allocator@D@2@@2@_N_J_KNVallocator@2@Uadl_serializer@json_abi_v3_11_2@nlohmann@@V?$vector@EV?$allocator@E@std@@@2@@json_abi_v3_11_2@nlohmann@@@?$external_constructor@$02@detail@json_abi_v3_11_2@nlohmann@@SAXAEAV?$basic_json@Vmap@std@@Vvector@2@V?$basic_string@DU?$char_traits@D@std@@V?$allocator@D@2@@2@_N_J_KNVallocator@2@Uadl_serializer@json_abi_v3_11_2@nlohmann@@V?$vector@EV?$allocator@E@std@@@2@@23@AEBV?$basic_string@DU?$char_traits@D@std@@V?$allocator@D@2@@std@@@Z
       1159  486 000310C0 ??$construct@V?$basic_json@Vmap@std@@Vvector@2@V?$basic_string@DU?$char_traits@D@std@@V?$allocator@D@2@@2@_N_J_KNVallocator@2@Uadl_serializer@json_abi_v3_11_2@nlohmann@@V?$vector@EV?$allocator@E@std@@@2@@json_abi_v3_11_2@nlohmann@@@?$external_constructor@$03@detail@json_abi_v3_11_2@nlohmann@@SAXAEAV?$basic_json@Vmap@std@@Vvector@2@V?$basic_string@DU?$char_traits@D@std@@V?$allocator@D@2@@2@_N_J_KNVallocator@2@Uadl_serializer@json_abi_v3_11_2@nlohmann@@V?$vector@EV?$allocator@E@std@@@2@@23@_N@Z
       1160  487 00019550 ??$construct@V?$basic_json@Vmap@std@@Vvector@2@V?$basic_string@DU?$char_traits@D@std@@V?$allocator@D@2@@2@_N_J_KNVallocator@2@Uadl_serializer@json_abi_v3_11_2@nlohmann@@V?$vector@EV?$allocator@E@std@@@2@@json_abi_v3_11_2@nlohmann@@@?$external_constructor@$04@detail@json_abi_v3_11_2@nlohmann@@SAXAEAV?$basic_json@Vmap@std@@Vvector@2@V?$basic_string@DU?$char_traits@D@std@@V?$allocator@D@2@@2@_N_J_KNVallocator@2@Uadl_serializer@json_abi_v3_11_2@nlohmann@@V?$vector@EV?$allocator@E@std@@@2@@23@_J@Z
       1161  488 00031110 ??$construct@V?$basic_json@Vmap@std@@Vvector@2@V?$basic_string@DU?$char_traits@D@std@@V?$allocator@D@2@@2@_N_J_KNVallocator@2@Uadl_serializer@json_abi_v3_11_2@nlohmann@@V?$vector@EV?$allocator@E@std@@@2@@json_abi_v3_11_2@nlohmann@@@?$external_constructor@$05@detail@json_abi_v3_11_2@nlohmann@@SAXAEAV?$basic_json@Vmap@std@@Vvector@2@V?$basic_string@DU?$char_traits@D@std@@V?$allocator@D@2@@2@_N_J_KNVallocator@2@Uadl_serializer@json_abi_v3_11_2@nlohmann@@V?$vector@EV?$allocator@E@std@@@2@@23@_K@Z
       1162  489 00031150 ??$construct@V?$basic_json@Vmap@std@@Vvector@2@V?$basic_string@DU?$char_traits@D@std@@V?$allocator@D@2@@2@_N_J_KNVallocator@2@Uadl_serializer@json_abi_v3_11_2@nlohmann@@V?$vector@EV?$allocator@E@std@@@2@@json_abi_v3_11_2@nlohmann@@@?$external_constructor@$06@detail@json_abi_v3_11_2@nlohmann@@SAXAEAV?$basic_json@Vmap@std@@Vvector@2@V?$basic_string@DU?$char_traits@D@std@@V?$allocator@D@2@@2@_N_J_KNVallocator@2@Uadl_serializer@json_abi_v3_11_2@nlohmann@@V?$vector@EV?$allocator@E@std@@@2@@23@N@Z
       1163  48A 000311A0 ??$construct@V?$basic_json@Vmap@std@@Vvector@2@V?$basic_string@DU?$char_traits@D@std@@V?$allocator@D@2@@2@_N_J_KNVallocator@2@Uadl_serializer@json_abi_v3_11_2@nlohmann@@V?$vector@EV?$allocator@E@std@@@2@@json_abi_v3_11_2@nlohmann@@AEAN@?$_Default_allocator_traits@V?$allocator@V?$basic_json@Vmap@std@@Vvector@2@V?$basic_string@DU?$char_traits@D@std@@V?$allocator@D@2@@2@_N_J_KNVallocator@2@Uadl_serializer@json_abi_v3_11_2@nlohmann@@V?$vector@EV?$allocator@E@std@@@2@@json_abi_v3_11_2@nlohmann@@@std@@@std@@SAXAEAV?$allocator@V?$basic_json@Vmap@std@@Vvector@2@V?$basic_string@DU?$char_traits@D@std@@V?$allocator@D@2@@2@_N_J_KNVallocator@2@Uadl_serializer@json_abi_v3_11_2@nlohmann@@V?$vector@EV?$allocator@E@std@@@2@@json_abi_v3_11_2@nlohmann@@@1@QEAV?$basic_json@Vmap@std@@Vvector@2@V?$basic_string@DU?$char_traits@D@std@@V?$allocator@D@2@@2@_N_J_KNVallocator@2@Uadl_serializer@json_abi_v3_11_2@nlohmann@@V?$vector@EV?$allocator@E@std@@@2@@json_abi_v3_11_2@nlohmann@@AEAN@Z
       1164  48B 00019590 ??$construct@V?$basic_json@Vmap@std@@Vvector@2@V?$basic_string@DU?$char_traits@D@std@@V?$allocator@D@2@@2@_N_J_KNVallocator@2@Uadl_serializer@json_abi_v3_11_2@nlohmann@@V?$vector@EV?$allocator@E@std@@@2@@json_abi_v3_11_2@nlohmann@@AEAV123@@?$_Default_allocator_traits@V?$allocator@V?$basic_json@Vmap@std@@Vvector@2@V?$basic_string@DU?$char_traits@D@std@@V?$allocator@D@2@@2@_N_J_KNVallocator@2@Uadl_serializer@json_abi_v3_11_2@nlohmann@@V?$vector@EV?$allocator@E@std@@@2@@json_abi_v3_11_2@nlohmann@@@std@@@std@@SAXAEAV?$allocator@V?$basic_json@Vmap@std@@Vvector@2@V?$basic_string@DU?$char_traits@D@std@@V?$allocator@D@2@@2@_N_J_KNVallocator@2@Uadl_serializer@json_abi_v3_11_2@nlohmann@@V?$vector@EV?$allocator@E@std@@@2@@json_abi_v3_11_2@nlohmann@@@1@QEAV?$basic_json@Vmap@std@@Vvector@2@V?$basic_string@DU?$char_traits@D@std@@V?$allocator@D@2@@2@_N_J_KNVallocator@2@Uadl_serializer@json_abi_v3_11_2@nlohmann@@V?$vector@EV?$allocator@E@std@@@2@@json_abi_v3_11_2@nlohmann@@AEAV345@@Z
       1165  48C 000311F0 ??$construct@V?$basic_json@Vmap@std@@Vvector@2@V?$basic_string@DU?$char_traits@D@std@@V?$allocator@D@2@@2@_N_J_KNVallocator@2@Uadl_serializer@json_abi_v3_11_2@nlohmann@@V?$vector@EV?$allocator@E@std@@@2@@json_abi_v3_11_2@nlohmann@@AEAV?$basic_string@DU?$char_traits@D@std@@V?$allocator@D@2@@std@@@?$_Default_allocator_traits@V?$allocator@V?$basic_json@Vmap@std@@Vvector@2@V?$basic_string@DU?$char_traits@D@std@@V?$allocator@D@2@@2@_N_J_KNVallocator@2@Uadl_serializer@json_abi_v3_11_2@nlohmann@@V?$vector@EV?$allocator@E@std@@@2@@json_abi_v3_11_2@nlohmann@@@std@@@std@@SAXAEAV?$allocator@V?$basic_json@Vmap@std@@Vvector@2@V?$basic_string@DU?$char_traits@D@std@@V?$allocator@D@2@@2@_N_J_KNVallocator@2@Uadl_serializer@json_abi_v3_11_2@nlohmann@@V?$vector@EV?$allocator@E@std@@@2@@json_abi_v3_11_2@nlohmann@@@1@QEAV?$basic_json@Vmap@std@@Vvector@2@V?$basic_string@DU?$char_traits@D@std@@V?$allocator@D@2@@2@_N_J_KNVallocator@2@Uadl_serializer@json_abi_v3_11_2@nlohmann@@V?$vector@EV?$allocator@E@std@@@2@@json_abi_v3_11_2@nlohmann@@AEAV?$basic_string@DU?$char_traits@D@std@@V?$allocator@D@2@@1@@Z
       1166  48D 00031260 ??$construct@V?$basic_json@Vmap@std@@Vvector@2@V?$basic_string@DU?$char_traits@D@std@@V?$allocator@D@2@@2@_N_J_KNVallocator@2@Uadl_serializer@json_abi_v3_11_2@nlohmann@@V?$vector@EV?$allocator@E@std@@@2@@json_abi_v3_11_2@nlohmann@@AEA_J@?$_Default_allocator_traits@V?$allocator@V?$basic_json@Vmap@std@@Vvector@2@V?$basic_string@DU?$char_traits@D@std@@V?$allocator@D@2@@2@_N_J_KNVallocator@2@Uadl_serializer@json_abi_v3_11_2@nlohmann@@V?$vector@EV?$allocator@E@std@@@2@@json_abi_v3_11_2@nlohmann@@@std@@@std@@SAXAEAV?$allocator@V?$basic_json@Vmap@std@@Vvector@2@V?$basic_string@DU?$char_traits@D@std@@V?$allocator@D@2@@2@_N_J_KNVallocator@2@Uadl_serializer@json_abi_v3_11_2@nlohmann@@V?$vector@EV?$allocator@E@std@@@2@@json_abi_v3_11_2@nlohmann@@@1@QEAV?$basic_json@Vmap@std@@Vvector@2@V?$basic_string@DU?$char_traits@D@std@@V?$allocator@D@2@@2@_N_J_KNVallocator@2@Uadl_serializer@json_abi_v3_11_2@nlohmann@@V?$vector@EV?$allocator@E@std@@@2@@json_abi_v3_11_2@nlohmann@@AEA_J@Z
       1167  48E 000312B0 ??$construct@V?$basic_json@Vmap@std@@Vvector@2@V?$basic_string@DU?$char_traits@D@std@@V?$allocator@D@2@@2@_N_J_KNVallocator@2@Uadl_serializer@json_abi_v3_11_2@nlohmann@@V?$vector@EV?$allocator@E@std@@@2@@json_abi_v3_11_2@nlohmann@@AEA_K@?$_Default_allocator_traits@V?$allocator@V?$basic_json@Vmap@std@@Vvector@2@V?$basic_string@DU?$char_traits@D@std@@V?$allocator@D@2@@2@_N_J_KNVallocator@2@Uadl_serializer@json_abi_v3_11_2@nlohmann@@V?$vector@EV?$allocator@E@std@@@2@@json_abi_v3_11_2@nlohmann@@@std@@@std@@SAXAEAV?$allocator@V?$basic_json@Vmap@std@@Vvector@2@V?$basic_string@DU?$char_traits@D@std@@V?$allocator@D@2@@2@_N_J_KNVallocator@2@Uadl_serializer@json_abi_v3_11_2@nlohmann@@V?$vector@EV?$allocator@E@std@@@2@@json_abi_v3_11_2@nlohmann@@@1@QEAV?$basic_json@Vmap@std@@Vvector@2@V?$basic_string@DU?$char_traits@D@std@@V?$allocator@D@2@@2@_N_J_KNVallocator@2@Uadl_serializer@json_abi_v3_11_2@nlohmann@@V?$vector@EV?$allocator@E@std@@@2@@json_abi_v3_11_2@nlohmann@@AEA_K@Z
       1168  48F 00031300 ??$construct@V?$basic_json@Vmap@std@@Vvector@2@V?$basic_string@DU?$char_traits@D@std@@V?$allocator@D@2@@2@_N_J_KNVallocator@2@Uadl_serializer@json_abi_v3_11_2@nlohmann@@V?$vector@EV?$allocator@E@std@@@2@@json_abi_v3_11_2@nlohmann@@AEA_N@?$_Default_allocator_traits@V?$allocator@V?$basic_json@Vmap@std@@Vvector@2@V?$basic_string@DU?$char_traits@D@std@@V?$allocator@D@2@@2@_N_J_KNVallocator@2@Uadl_serializer@json_abi_v3_11_2@nlohmann@@V?$vector@EV?$allocator@E@std@@@2@@json_abi_v3_11_2@nlohmann@@@std@@@std@@SAXAEAV?$allocator@V?$basic_json@Vmap@std@@Vvector@2@V?$basic_string@DU?$char_traits@D@std@@V?$allocator@D@2@@2@_N_J_KNVallocator@2@Uadl_serializer@json_abi_v3_11_2@nlohmann@@V?$vector@EV?$allocator@E@std@@@2@@json_abi_v3_11_2@nlohmann@@@1@QEAV?$basic_json@Vmap@std@@Vvector@2@V?$basic_string@DU?$char_traits@D@std@@V?$allocator@D@2@@2@_N_J_KNVallocator@2@Uadl_serializer@json_abi_v3_11_2@nlohmann@@V?$vector@EV?$allocator@E@std@@@2@@json_abi_v3_11_2@nlohmann@@AEA_N@Z
       1169  490 000195A0 ??$construct@V?$basic_json@Vmap@std@@Vvector@2@V?$basic_string@DU?$char_traits@D@std@@V?$allocator@D@2@@2@_N_J_KNVallocator@2@Uadl_serializer@json_abi_v3_11_2@nlohmann@@V?$vector@EV?$allocator@E@std@@@2@@json_abi_v3_11_2@nlohmann@@V123@@?$_Default_allocator_traits@V?$allocator@V?$basic_json@Vmap@std@@Vvector@2@V?$basic_string@DU?$char_traits@D@std@@V?$allocator@D@2@@2@_N_J_KNVallocator@2@Uadl_serializer@json_abi_v3_11_2@nlohmann@@V?$vector@EV?$allocator@E@std@@@2@@json_abi_v3_11_2@nlohmann@@@std@@@std@@SAXAEAV?$allocator@V?$basic_json@Vmap@std@@Vvector@2@V?$basic_string@DU?$char_traits@D@std@@V?$allocator@D@2@@2@_N_J_KNVallocator@2@Uadl_serializer@json_abi_v3_11_2@nlohmann@@V?$vector@EV?$allocator@E@std@@@2@@json_abi_v3_11_2@nlohmann@@@1@QEAV?$basic_json@Vmap@std@@Vvector@2@V?$basic_string@DU?$char_traits@D@std@@V?$allocator@D@2@@2@_N_J_KNVallocator@2@Uadl_serializer@json_abi_v3_11_2@nlohmann@@V?$vector@EV?$allocator@E@std@@@2@@json_abi_v3_11_2@nlohmann@@$$QEAV345@@Z
       1170  491 00031350 ??$construct@V?$basic_json@Vmap@std@@Vvector@2@V?$basic_string@DU?$char_traits@D@std@@V?$allocator@D@2@@2@_N_J_KNVallocator@2@Uadl_serializer@json_abi_v3_11_2@nlohmann@@V?$vector@EV?$allocator@E@std@@@2@@json_abi_v3_11_2@nlohmann@@W4value_t@detail@23@@?$_Default_allocator_traits@V?$allocator@V?$basic_json@Vmap@std@@Vvector@2@V?$basic_string@DU?$char_traits@D@std@@V?$allocator@D@2@@2@_N_J_KNVallocator@2@Uadl_serializer@json_abi_v3_11_2@nlohmann@@V?$vector@EV?$allocator@E@std@@@2@@json_abi_v3_11_2@nlohmann@@@std@@@std@@SAXAEAV?$allocator@V?$basic_json@Vmap@std@@Vvector@2@V?$basic_string@DU?$char_traits@D@std@@V?$allocator@D@2@@2@_N_J_KNVallocator@2@Uadl_serializer@json_abi_v3_11_2@nlohmann@@V?$vector@EV?$allocator@E@std@@@2@@json_abi_v3_11_2@nlohmann@@@1@QEAV?$basic_json@Vmap@std@@Vvector@2@V?$basic_string@DU?$char_traits@D@std@@V?$allocator@D@2@@2@_N_J_KNVallocator@2@Uadl_serializer@json_abi_v3_11_2@nlohmann@@V?$vector@EV?$allocator@E@std@@@2@@json_abi_v3_11_2@nlohmann@@$$QEAW4value_t@detail@45@@Z
       1171  492 00006BF0 ??$construct@V?$basic_string@DU?$char_traits@D@std@@V?$allocator@D@2@@std@@AEAV12@@?$_Default_allocator_traits@V?$allocator@V?$basic_string@DU?$char_traits@D@std@@V?$allocator@D@2@@std@@@std@@@std@@SAXAEAV?$allocator@V?$basic_string@DU?$char_traits@D@std@@V?$allocator@D@2@@std@@@1@QEAV?$basic_string@DU?$char_traits@D@std@@V?$allocator@D@2@@1@AEAV31@@Z
       1172  493 000195C0 ??$construct@V?$basic_string@DU?$char_traits@D@std@@V?$allocator@D@2@@std@@AEAY00$$CBD@?$_Default_allocator_traits@V?$allocator@V?$basic_string@DU?$char_traits@D@std@@V?$allocator@D@2@@std@@@std@@@std@@SAXAEAV?$allocator@V?$basic_string@DU?$char_traits@D@std@@V?$allocator@D@2@@std@@@1@QEAV?$basic_string@DU?$char_traits@D@std@@V?$allocator@D@2@@1@AEAY00$$CBD@Z
       1173  494 000195C0 ??$construct@V?$basic_string@DU?$char_traits@D@std@@V?$allocator@D@2@@std@@AEAY03$$CBD@?$_Default_allocator_traits@V?$allocator@V?$basic_string@DU?$char_traits@D@std@@V?$allocator@D@2@@std@@@std@@@std@@SAXAEAV?$allocator@V?$basic_string@DU?$char_traits@D@std@@V?$allocator@D@2@@std@@@1@QEAV?$basic_string@DU?$char_traits@D@std@@V?$allocator@D@2@@1@AEAY03$$CBD@Z
       1174  495 000195C0 ??$construct@V?$basic_string@DU?$char_traits@D@std@@V?$allocator@D@2@@std@@AEAY04$$CBD@?$_Default_allocator_traits@V?$allocator@V?$basic_string@DU?$char_traits@D@std@@V?$allocator@D@2@@std@@@std@@@std@@SAXAEAV?$allocator@V?$basic_string@DU?$char_traits@D@std@@V?$allocator@D@2@@std@@@1@QEAV?$basic_string@DU?$char_traits@D@std@@V?$allocator@D@2@@1@AEAY04$$CBD@Z
       1175  496 000195C0 ??$construct@V?$basic_string@DU?$char_traits@D@std@@V?$allocator@D@2@@std@@AEAY06$$CBD@?$_Default_allocator_traits@V?$allocator@V?$basic_string@DU?$char_traits@D@std@@V?$allocator@D@2@@std@@@std@@@std@@SAXAEAV?$allocator@V?$basic_string@DU?$char_traits@D@std@@V?$allocator@D@2@@std@@@1@QEAV?$basic_string@DU?$char_traits@D@std@@V?$allocator@D@2@@1@AEAY06$$CBD@Z
       1176  497 000195C0 ??$construct@V?$basic_string@DU?$char_traits@D@std@@V?$allocator@D@2@@std@@AEAY07$$CBD@?$_Default_allocator_traits@V?$allocator@V?$basic_string@DU?$char_traits@D@std@@V?$allocator@D@2@@std@@@std@@@std@@SAXAEAV?$allocator@V?$basic_string@DU?$char_traits@D@std@@V?$allocator@D@2@@std@@@1@QEAV?$basic_string@DU?$char_traits@D@std@@V?$allocator@D@2@@1@AEAY07$$CBD@Z
       1177  498 00006BF0 ??$construct@V?$basic_string@DU?$char_traits@D@std@@V?$allocator@D@2@@std@@AEBV12@@?$_Default_allocator_traits@V?$allocator@V?$basic_string@DU?$char_traits@D@std@@V?$allocator@D@2@@std@@@std@@@std@@SAXAEAV?$allocator@V?$basic_string@DU?$char_traits@D@std@@V?$allocator@D@2@@std@@@1@QEAV?$basic_string@DU?$char_traits@D@std@@V?$allocator@D@2@@1@AEBV31@@Z
       1178  499 00006C00 ??$construct@V?$basic_string@DU?$char_traits@D@std@@V?$allocator@D@2@@std@@V12@@?$_Default_allocator_traits@V?$allocator@V?$basic_string@DU?$char_traits@D@std@@V?$allocator@D@2@@std@@@std@@@std@@SAXAEAV?$allocator@V?$basic_string@DU?$char_traits@D@std@@V?$allocator@D@2@@std@@@1@QEAV?$basic_string@DU?$char_traits@D@std@@V?$allocator@D@2@@1@$$QEAV31@@Z
       1179  49A 00019600 ??$construct@V?$byte_container_with_subtype@V?$vector@EV?$allocator@E@std@@@std@@@json_abi_v3_11_2@nlohmann@@$$V@?$_Default_allocator_traits@V?$allocator@V?$byte_container_with_subtype@V?$vector@EV?$allocator@E@std@@@std@@@json_abi_v3_11_2@nlohmann@@@std@@@std@@SAXAEAV?$allocator@V?$byte_container_with_subtype@V?$vector@EV?$allocator@E@std@@@std@@@json_abi_v3_11_2@nlohmann@@@1@QEAV?$byte_container_with_subtype@V?$vector@EV?$allocator@E@std@@@std@@@json_abi_v3_11_2@nlohmann@@@Z
       1180  49B 00019620 ??$construct@V?$byte_container_with_subtype@V?$vector@EV?$allocator@E@std@@@std@@@json_abi_v3_11_2@nlohmann@@AEBV123@@?$_Default_allocator_traits@V?$allocator@V?$byte_container_with_subtype@V?$vector@EV?$allocator@E@std@@@std@@@json_abi_v3_11_2@nlohmann@@@std@@@std@@SAXAEAV?$allocator@V?$byte_container_with_subtype@V?$vector@EV?$allocator@E@std@@@std@@@json_abi_v3_11_2@nlohmann@@@1@QEAV?$byte_container_with_subtype@V?$vector@EV?$allocator@E@std@@@std@@@json_abi_v3_11_2@nlohmann@@AEBV345@@Z
       1181  49C 00019630 ??$construct@V?$map@V?$basic_string@DU?$char_traits@D@std@@V?$allocator@D@2@@std@@V?$basic_json@Vmap@std@@Vvector@2@V?$basic_string@DU?$char_traits@D@std@@V?$allocator@D@2@@2@_N_J_KNVallocator@2@Uadl_serializer@json_abi_v3_11_2@nlohmann@@V?$vector@EV?$allocator@E@std@@@2@@json_abi_v3_11_2@nlohmann@@U?$less@X@2@V?$allocator@U?$pair@$$CBV?$basic_string@DU?$char_traits@D@std@@V?$allocator@D@2@@std@@V?$basic_json@Vmap@std@@Vvector@2@V?$basic_string@DU?$char_traits@D@std@@V?$allocator@D@2@@2@_N_J_KNVallocator@2@Uadl_serializer@json_abi_v3_11_2@nlohmann@@V?$vector@EV?$allocator@E@std@@@2@@json_abi_v3_11_2@nlohmann@@@std@@@2@@std@@$$V@?$_Default_allocator_traits@V?$allocator@V?$map@V?$basic_string@DU?$char_traits@D@std@@V?$allocator@D@2@@std@@V?$basic_json@Vmap@std@@Vvector@2@V?$basic_string@DU?$char_traits@D@std@@V?$allocator@D@2@@2@_N_J_KNVallocator@2@Uadl_serializer@json_abi_v3_11_2@nlohmann@@V?$vector@EV?$allocator@E@std@@@2@@json_abi_v3_11_2@nlohmann@@U?$less@X@2@V?$allocator@U?$pair@$$CBV?$basic_string@DU?$char_traits@D@std@@V?$allocator@D@2@@std@@V?$basic_json@Vmap@std@@Vvector@2@V?$basic_string@DU?$char_traits@D@std@@V?$allocator@D@2@@2@_N_J_KNVallocator@2@Uadl_serializer@json_abi_v3_11_2@nlohmann@@V?$vector@EV?$allocator@E@std@@@2@@json_abi_v3_11_2@nlohmann@@@std@@@2@@std@@@std@@@std@@SAXAEAV?$allocator@V?$map@V?$basic_string@DU?$char_traits@D@std@@V?$allocator@D@2@@std@@V?$basic_json@Vmap@std@@Vvector@2@V?$basic_string@DU?$char_traits@D@std@@V?$allocator@D@2@@2@_N_J_KNVallocator@2@Uadl_serializer@json_abi_v3_11_2@nlohmann@@V?$vector@EV?$allocator@E@std@@@2@@json_abi_v3_11_2@nlohmann@@U?$less@X@2@V?$allocator@U?$pair@$$CBV?$basic_string@DU?$char_traits@D@std@@V?$allocator@D@2@@std@@V?$basic_json@Vmap@std@@Vvector@2@V?$basic_string@DU?$char_traits@D@std@@V?$allocator@D@2@@2@_N_J_KNVallocator@2@Uadl_serializer@json_abi_v3_11_2@nlohmann@@V?$vector@EV?$allocator@E@std@@@2@@json_abi_v3_11_2@nlohmann@@@std@@@2@@std@@@1@QEAV?$map@V?$basic_string@DU?$char_traits@D@std@@V?$allocator@D@2@@std@@V?$basic_json@Vmap@std@@Vvector@2@V?$basic_string@DU?$char_traits@D@std@@V?$allocator@D@2@@2@_N_J_KNVallocator@2@Uadl_serializer@json_abi_v3_11_2@nlohmann@@V?$vector@EV?$allocator@E@std@@@2@@json_abi_v3_11_2@nlohmann@@U?$less@X@2@V?$allocator@U?$pair@$$CBV?$basic_string@DU?$char_traits@D@std@@V?$allocator@D@2@@std@@V?$basic_json@Vmap@std@@Vvector@2@V?$basic_string@DU?$char_traits@D@std@@V?$allocator@D@2@@2@_N_J_KNVallocator@2@Uadl_serializer@json_abi_v3_11_2@nlohmann@@V?$vector@EV?$allocator@E@std@@@2@@json_abi_v3_11_2@nlohmann@@@std@@@2@@1@@Z
       1182  49D 00019670 ??$construct@V?$map@V?$basic_string@DU?$char_traits@D@std@@V?$allocator@D@2@@std@@V?$basic_json@Vmap@std@@Vvector@2@V?$basic_string@DU?$char_traits@D@std@@V?$allocator@D@2@@2@_N_J_KNVallocator@2@Uadl_serializer@json_abi_v3_11_2@nlohmann@@V?$vector@EV?$allocator@E@std@@@2@@json_abi_v3_11_2@nlohmann@@U?$less@X@2@V?$allocator@U?$pair@$$CBV?$basic_string@DU?$char_traits@D@std@@V?$allocator@D@2@@std@@V?$basic_json@Vmap@std@@Vvector@2@V?$basic_string@DU?$char_traits@D@std@@V?$allocator@D@2@@2@_N_J_KNVallocator@2@Uadl_serializer@json_abi_v3_11_2@nlohmann@@V?$vector@EV?$allocator@E@std@@@2@@json_abi_v3_11_2@nlohmann@@@std@@@2@@std@@AEBV12@@?$_Default_allocator_traits@V?$allocator@V?$map@V?$basic_string@DU?$char_traits@D@std@@V?$allocator@D@2@@std@@V?$basic_json@Vmap@std@@Vvector@2@V?$basic_string@DU?$char_traits@D@std@@V?$allocator@D@2@@2@_N_J_KNVallocator@2@Uadl_serializer@json_abi_v3_11_2@nlohmann@@V?$vector@EV?$allocator@E@std@@@2@@json_abi_v3_11_2@nlohmann@@U?$less@X@2@V?$allocator@U?$pair@$$CBV?$basic_string@DU?$char_traits@D@std@@V?$allocator@D@2@@std@@V?$basic_json@Vmap@std@@Vvector@2@V?$basic_string@DU?$char_traits@D@std@@V?$allocator@D@2@@2@_N_J_KNVallocator@2@Uadl_serializer@json_abi_v3_11_2@nlohmann@@V?$vector@EV?$allocator@E@std@@@2@@json_abi_v3_11_2@nlohmann@@@std@@@2@@std@@@std@@@std@@SAXAEAV?$allocator@V?$map@V?$basic_string@DU?$char_traits@D@std@@V?$allocator@D@2@@std@@V?$basic_json@Vmap@std@@Vvector@2@V?$basic_string@DU?$char_traits@D@std@@V?$allocator@D@2@@2@_N_J_KNVallocator@2@Uadl_serializer@json_abi_v3_11_2@nlohmann@@V?$vector@EV?$allocator@E@std@@@2@@json_abi_v3_11_2@nlohmann@@U?$less@X@2@V?$allocator@U?$pair@$$CBV?$basic_string@DU?$char_traits@D@std@@V?$allocator@D@2@@std@@V?$basic_json@Vmap@std@@Vvector@2@V?$basic_string@DU?$char_traits@D@std@@V?$allocator@D@2@@2@_N_J_KNVallocator@2@Uadl_serializer@json_abi_v3_11_2@nlohmann@@V?$vector@EV?$allocator@E@std@@@2@@json_abi_v3_11_2@nlohmann@@@std@@@2@@std@@@1@QEAV?$map@V?$basic_string@DU?$char_traits@D@std@@V?$allocator@D@2@@std@@V?$basic_json@Vmap@std@@Vvector@2@V?$basic_string@DU?$char_traits@D@std@@V?$allocator@D@2@@2@_N_J_KNVallocator@2@Uadl_serializer@json_abi_v3_11_2@nlohmann@@V?$vector@EV?$allocator@E@std@@@2@@json_abi_v3_11_2@nlohmann@@U?$less@X@2@V?$allocator@U?$pair@$$CBV?$basic_string@DU?$char_traits@D@std@@V?$allocator@D@2@@std@@V?$basic_json@Vmap@std@@Vvector@2@V?$basic_string@DU?$char_traits@D@std@@V?$allocator@D@2@@2@_N_J_KNVallocator@2@Uadl_serializer@json_abi_v3_11_2@nlohmann@@V?$vector@EV?$allocator@E@std@@@2@@json_abi_v3_11_2@nlohmann@@@std@@@2@@1@AEBV31@@Z
       1183  49E 0002AF20 ??$construct@V?$unique_ptr@UBehaviorTreeBuilderContext@pineBT@@U?$default_delete@UBehaviorTreeBuilderContext@pineBT@@@std@@@std@@V12@@?$_Default_allocator_traits@V?$allocator@V?$unique_ptr@UBehaviorTreeBuilderContext@pineBT@@U?$default_delete@UBehaviorTreeBuilderContext@pineBT@@@std@@@std@@@std@@@std@@SAXAEAV?$allocator@V?$unique_ptr@UBehaviorTreeBuilderContext@pineBT@@U?$default_delete@UBehaviorTreeBuilderContext@pineBT@@@std@@@std@@@1@QEAV?$unique_ptr@UBehaviorTreeBuilderContext@pineBT@@U?$default_delete@UBehaviorTreeBuilderContext@pineBT@@@std@@@1@$$QEAV31@@Z
       1184  49F 00019680 ??$construct@V?$vector@V?$basic_json@Vmap@std@@Vvector@2@V?$basic_string@DU?$char_traits@D@std@@V?$allocator@D@2@@2@_N_J_KNVallocator@2@Uadl_serializer@json_abi_v3_11_2@nlohmann@@V?$vector@EV?$allocator@E@std@@@2@@json_abi_v3_11_2@nlohmann@@V?$allocator@V?$basic_json@Vmap@std@@Vvector@2@V?$basic_string@DU?$char_traits@D@std@@V?$allocator@D@2@@2@_N_J_KNVallocator@2@Uadl_serializer@json_abi_v3_11_2@nlohmann@@V?$vector@EV?$allocator@E@std@@@2@@json_abi_v3_11_2@nlohmann@@@std@@@std@@$$V@?$_Default_allocator_traits@V?$allocator@V?$vector@V?$basic_json@Vmap@std@@Vvector@2@V?$basic_string@DU?$char_traits@D@std@@V?$allocator@D@2@@2@_N_J_KNVallocator@2@Uadl_serializer@json_abi_v3_11_2@nlohmann@@V?$vector@EV?$allocator@E@std@@@2@@json_abi_v3_11_2@nlohmann@@V?$allocator@V?$basic_json@Vmap@std@@Vvector@2@V?$basic_string@DU?$char_traits@D@std@@V?$allocator@D@2@@2@_N_J_KNVallocator@2@Uadl_serializer@json_abi_v3_11_2@nlohmann@@V?$vector@EV?$allocator@E@std@@@2@@json_abi_v3_11_2@nlohmann@@@std@@@std@@@std@@@std@@SAXAEAV?$allocator@V?$vector@V?$basic_json@Vmap@std@@Vvector@2@V?$basic_string@DU?$char_traits@D@std@@V?$allocator@D@2@@2@_N_J_KNVallocator@2@Uadl_serializer@json_abi_v3_11_2@nlohmann@@V?$vector@EV?$allocator@E@std@@@2@@json_abi_v3_11_2@nlohmann@@V?$allocator@V?$basic_json@Vmap@std@@Vvector@2@V?$basic_string@DU?$char_traits@D@std@@V?$allocator@D@2@@2@_N_J_KNVallocator@2@Uadl_serializer@json_abi_v3_11_2@nlohmann@@V?$vector@EV?$allocator@E@std@@@2@@json_abi_v3_11_2@nlohmann@@@std@@@std@@@1@QEAV?$vector@V?$basic_json@Vmap@std@@Vvector@2@V?$basic_string@DU?$char_traits@D@std@@V?$allocator@D@2@@2@_N_J_KNVallocator@2@Uadl_serializer@json_abi_v3_11_2@nlohmann@@V?$vector@EV?$allocator@E@std@@@2@@json_abi_v3_11_2@nlohmann@@V?$allocator@V?$basic_json@Vmap@std@@Vvector@2@V?$basic_string@DU?$char_traits@D@std@@V?$allocator@D@2@@2@_N_J_KNVallocator@2@Uadl_serializer@json_abi_v3_11_2@nlohmann@@V?$vector@EV?$allocator@E@std@@@2@@json_abi_v3_11_2@nlohmann@@@std@@@1@@Z
       1185  4A0 00019690 ??$construct@V?$vector@V?$basic_json@Vmap@std@@Vvector@2@V?$basic_string@DU?$char_traits@D@std@@V?$allocator@D@2@@2@_N_J_KNVallocator@2@Uadl_serializer@json_abi_v3_11_2@nlohmann@@V?$vector@EV?$allocator@E@std@@@2@@json_abi_v3_11_2@nlohmann@@V?$allocator@V?$basic_json@Vmap@std@@Vvector@2@V?$basic_string@DU?$char_traits@D@std@@V?$allocator@D@2@@2@_N_J_KNVallocator@2@Uadl_serializer@json_abi_v3_11_2@nlohmann@@V?$vector@EV?$allocator@E@std@@@2@@json_abi_v3_11_2@nlohmann@@@std@@@std@@AEBV12@@?$_Default_allocator_traits@V?$allocator@V?$vector@V?$basic_json@Vmap@std@@Vvector@2@V?$basic_string@DU?$char_traits@D@std@@V?$allocator@D@2@@2@_N_J_KNVallocator@2@Uadl_serializer@json_abi_v3_11_2@nlohmann@@V?$vector@EV?$allocator@E@std@@@2@@json_abi_v3_11_2@nlohmann@@V?$allocator@V?$basic_json@Vmap@std@@Vvector@2@V?$basic_string@DU?$char_traits@D@std@@V?$allocator@D@2@@2@_N_J_KNVallocator@2@Uadl_serializer@json_abi_v3_11_2@nlohmann@@V?$vector@EV?$allocator@E@std@@@2@@json_abi_v3_11_2@nlohmann@@@std@@@std@@@std@@@std@@SAXAEAV?$allocator@V?$vector@V?$basic_json@Vmap@std@@Vvector@2@V?$basic_string@DU?$char_traits@D@std@@V?$allocator@D@2@@2@_N_J_KNVallocator@2@Uadl_serializer@json_abi_v3_11_2@nlohmann@@V?$vector@EV?$allocator@E@std@@@2@@json_abi_v3_11_2@nlohmann@@V?$allocator@V?$basic_json@Vmap@std@@Vvector@2@V?$basic_string@DU?$char_traits@D@std@@V?$allocator@D@2@@2@_N_J_KNVallocator@2@Uadl_serializer@json_abi_v3_11_2@nlohmann@@V?$vector@EV?$allocator@E@std@@@2@@json_abi_v3_11_2@nlohmann@@@std@@@std@@@1@QEAV?$vector@V?$basic_json@Vmap@std@@Vvector@2@V?$basic_string@DU?$char_traits@D@std@@V?$allocator@D@2@@2@_N_J_KNVallocator@2@Uadl_serializer@json_abi_v3_11_2@nlohmann@@V?$vector@EV?$allocator@E@std@@@2@@json_abi_v3_11_2@nlohmann@@V?$allocator@V?$basic_json@Vmap@std@@Vvector@2@V?$basic_string@DU?$char_traits@D@std@@V?$allocator@D@2@@2@_N_J_KNVallocator@2@Uadl_serializer@json_abi_v3_11_2@nlohmann@@V?$vector@EV?$allocator@E@std@@@2@@json_abi_v3_11_2@nlohmann@@@std@@@1@AEBV31@@Z
       1186  4A1 00002450 ??$construct_at@DAEBD$0A@@std@@YAPEADQEADAEBD@Z
       1187  4A2 00002450 ??$construct_at@DD$0A@@std@@YAPEADQEAD$$QEAD@Z
       1188  4A3 00002450 ??$construct_at@EAEAE$0A@@std@@YAPEAEQEAEAEAE@Z
       1189  4A4 000044D0 ??$construct_at@IAEBI$0A@@std@@YAPEAIQEAIAEBI@Z
       1190  4A5 000044D0 ??$construct_at@II$0A@@std@@YAPEAIQEAI$$QEAI@Z
       1191  4A6 00002460 ??$construct_at@PEADAEAPEAD$0A@@std@@YAPEAPEADQEAPEADAEAPEAD@Z
       1192  4A7 00002460 ??$construct_at@PEADAEBQEAD$0A@@std@@YAPEAPEADQEAPEADAEBQEAD@Z
       1193  4A8 00002460 ??$construct_at@PEAPEAVBehavior@pineBT@@AEAPEAPEAV12@$0A@@std@@YAPEAPEAPEAVBehavior@pineBT@@QEAPEAPEAV12@AEAPEAPEAV12@@Z
       1194  4A9 00002460 ??$construct_at@PEAU?$_List_node@U?$pair@$$CBHV?$unique_ptr@VBehaviorTree@pineBT@@U?$default_delete@VBehaviorTree@pineBT@@@std@@@std@@@std@@PEAX@std@@AEAPEAU12@$0A@@std@@YAPEAPEAU?$_List_node@U?$pair@$$CBHV?$unique_ptr@VBehaviorTree@pineBT@@U?$default_delete@VBehaviorTree@pineBT@@@std@@@std@@@std@@PEAX@0@QEAPEAU10@AEAPEAU10@@Z
       1195  4AA 00002460 ??$construct_at@PEAU?$_List_node@U?$pair@$$CBHV?$unique_ptr@VBehaviorTree@pineBT@@U?$default_delete@VBehaviorTree@pineBT@@@std@@@std@@@std@@PEAX@std@@AEBQEAU12@$0A@@std@@YAPEAPEAU?$_List_node@U?$pair@$$CBHV?$unique_ptr@VBehaviorTree@pineBT@@U?$default_delete@VBehaviorTree@pineBT@@@std@@@std@@@std@@PEAX@0@QEAPEAU10@AEBQEAU10@@Z
       1196  4AB 00002460 ??$construct_at@PEAU?$_List_node@U?$pair@$$CBIW4Result@Behavior@pineBT@@@std@@PEAX@std@@AEAPEAU12@$0A@@std@@YAPEAPEAU?$_List_node@U?$pair@$$CBIW4Result@Behavior@pineBT@@@std@@PEAX@0@QEAPEAU10@AEAPEAU10@@Z
       1197  4AC 00002460 ??$construct_at@PEAU?$_List_node@U?$pair@$$CBIW4Result@Behavior@pineBT@@@std@@PEAX@std@@AEBQEAU12@$0A@@std@@YAPEAPEAU?$_List_node@U?$pair@$$CBIW4Result@Behavior@pineBT@@@std@@PEAX@0@QEAPEAU10@AEBQEAU10@@Z
       1198  4AD 00002460 ??$construct_at@PEAU?$_List_node@U?$pair@$$CBV?$basic_string@DU?$char_traits@D@std@@V?$allocator@D@2@@std@@H@std@@PEAX@std@@AEAPEAU12@$0A@@std@@YAPEAPEAU?$_List_node@U?$pair@$$CBV?$basic_string@DU?$char_traits@D@std@@V?$allocator@D@2@@std@@H@std@@PEAX@0@QEAPEAU10@AEAPEAU10@@Z
       1199  4AE 00002460 ??$construct_at@PEAU?$_List_node@U?$pair@$$CBV?$basic_string@DU?$char_traits@D@std@@V?$allocator@D@2@@std@@H@std@@PEAX@std@@AEBQEAU12@$0A@@std@@YAPEAPEAU?$_List_node@U?$pair@$$CBV?$basic_string@DU?$char_traits@D@std@@V?$allocator@D@2@@std@@H@std@@PEAX@0@QEAPEAU10@AEBQEAU10@@Z
       1200  4AF 00002460 ??$construct_at@PEAU?$_List_node@U?$pair@$$CBV?$basic_string@DU?$char_traits@D@std@@V?$allocator@D@2@@std@@H@std@@PEAX@std@@PEAU12@$0A@@std@@YAPEAPEAU?$_List_node@U?$pair@$$CBV?$basic_string@DU?$char_traits@D@std@@V?$allocator@D@2@@std@@H@std@@PEAX@0@QEAPEAU10@$$QEAPEAU10@@Z
       1201  4B0 00002460 ??$construct_at@PEAU?$_List_node@U?$pair@$$CBV?$basic_string@DU?$char_traits@D@std@@V?$allocator@D@2@@std@@UBehaviorSchema@pineBT@@@std@@PEAX@std@@AEAPEAU12@$0A@@std@@YAPEAPEAU?$_List_node@U?$pair@$$CBV?$basic_string@DU?$char_traits@D@std@@V?$allocator@D@2@@std@@UBehaviorSchema@pineBT@@@std@@PEAX@0@QEAPEAU10@AEAPEAU10@@Z
       1202  4B1 00002460 ??$construct_at@PEAU?$_List_node@U?$pair@$$CBV?$basic_string@DU?$char_traits@D@std@@V?$allocator@D@2@@std@@UBehaviorSchema@pineBT@@@std@@PEAX@std@@AEBQEAU12@$0A@@std@@YAPEAPEAU?$_List_node@U?$pair@$$CBV?$basic_string@DU?$char_traits@D@std@@V?$allocator@D@2@@std@@UBehaviorSchema@pineBT@@@std@@PEAX@0@QEAPEAU10@AEBQEAU10@@Z
       1203  4B2 00002460 ??$construct_at@PEAU?$_List_node@U?$pair@$$CBV?$basic_string@DU?$char_traits@D@std@@V?$allocator@D@2@@std@@V?$function@$$A6APEAVBehavior@pineBT@@AEBV?$basic_string@DU?$char_traits@D@std@@V?$allocator@D@2@@std@@AEAVBehaviorTree@2@@Z@2@@std@@PEAX@std@@AEAPEAU12@$0A@@std@@YAPEAPEAU?$_List_node@U?$pair@$$CBV?$basic_string@DU?$char_traits@D@std@@V?$allocator@D@2@@std@@V?$function@$$A6APEAVBehavior@pineBT@@AEBV?$basic_string@DU?$char_traits@D@std@@V?$allocator@D@2@@std@@AEAVBehaviorTree@2@@Z@2@@std@@PEAX@0@QEAPEAU10@AEAPEAU10@@Z
       1204  4B3 00002460 ??$construct_at@PEAU?$_List_node@U?$pair@$$CBV?$basic_string@DU?$char_traits@D@std@@V?$allocator@D@2@@std@@V?$function@$$A6APEAVBehavior@pineBT@@AEBV?$basic_string@DU?$char_traits@D@std@@V?$allocator@D@2@@std@@AEAVBehaviorTree@2@@Z@2@@std@@PEAX@std@@AEBQEAU12@$0A@@std@@YAPEAPEAU?$_List_node@U?$pair@$$CBV?$basic_string@DU?$char_traits@D@std@@V?$allocator@D@2@@std@@V?$function@$$A6APEAVBehavior@pineBT@@AEBV?$basic_string@DU?$char_traits@D@std@@V?$allocator@D@2@@std@@AEAVBehaviorTree@2@@Z@2@@std@@PEAX@0@QEAPEAU10@AEBQEAU10@@Z
       1205  4B4 00002460 ??$construct_at@PEAU?$_Tree_node@U?$pair@$$CBV?$basic_string@DU?$char_traits@D@std@@V?$allocator@D@2@@std@@V?$basic_json@Vmap@std@@Vvector@2@V?$basic_string@DU?$char_traits@D@std@@V?$allocator@D@2@@2@_N_J_KNVallocator@2@Uadl_serializer@json_abi_v3_11_2@nlohmann@@V?$vector@EV?$allocator@E@std@@@2@@json_abi_v3_11_2@nlohmann@@@std@@PEAX@std@@AEAPEAU12@$0A@@std@@YAPEAPEAU?$_Tree_node@U?$pair@$$CBV?$basic_string@DU?$char_traits@D@std@@V?$allocator@D@2@@std@@V?$basic_json@Vmap@std@@Vvector@2@V?$basic_string@DU?$char_traits@D@std@@V?$allocator@D@2@@2@_N_J_KNVallocator@2@Uadl_serializer@json_abi_v3_11_2@nlohmann@@V?$vector@EV?$allocator@E@std@@@2@@json_abi_v3_11_2@nlohmann@@@std@@PEAX@0@QEAPEAU10@AEAPEAU10@@Z
       1206  4B5 00002460 ??$construct_at@PEAU?$_Tree_node@U?$pair@$$CBV?$basic_string@DU?$char_traits@D@std@@V?$allocator@D@2@@std@@V?$basic_json@Vmap@std@@Vvector@2@V?$basic_string@DU?$char_traits@D@std@@V?$allocator@D@2@@2@_N_J_KNVallocator@2@Uadl_serializer@json_abi_v3_11_2@nlohmann@@V?$vector@EV?$allocator@E@std@@@2@@json_abi_v3_11_2@nlohmann@@@std@@PEAX@std@@AEBQEAU12@$0A@@std@@YAPEAPEAU?$_Tree_node@U?$pair@$$CBV?$basic_string@DU?$char_traits@D@std@@V?$allocator@D@2@@std@@V?$basic_json@Vmap@std@@Vvector@2@V?$basic_string@DU?$char_traits@D@std@@V?$allocator@D@2@@2@_N_J_KNVallocator@2@Uadl_serializer@json_abi_v3_11_2@nlohmann@@V?$vector@EV?$allocator@E@std@@@2@@json_abi_v3_11_2@nlohmann@@@std@@PEAX@0@QEAPEAU10@AEBQEAU10@@Z
       1207  4B6 00002460 ??$construct_at@PEAV?$basic_json@Vmap@std@@Vvector@2@V?$basic_string@DU?$char_traits@D@std@@V?$allocator@D@2@@2@_N_J_KNVallocator@2@Uadl_serializer@json_abi_v3_11_2@nlohmann@@V?$vector@EV?$allocator@E@std@@@2@@json_abi_v3_11_2@nlohmann@@AEBQEAV123@$0A@@std@@YAPEAPEAV?$basic_json@Vmap@std@@Vvector@2@V?$basic_string@DU?$char_traits@D@std@@V?$allocator@D@2@@2@_N_J_KNVallocator@2@Uadl_serializer@json_abi_v3_11_2@nlohmann@@V?$vector@EV?$allocator@E@std@@@2@@json_abi_v3_11_2@nlohmann@@QEAPEAV123@AEBQEAV123@@Z
       1208  4B7 00002460 ??$construct_at@PEAV?$basic_json@Vmap@std@@Vvector@2@V?$basic_string@DU?$char_traits@D@std@@V?$allocator@D@2@@2@_N_J_KNVallocator@2@Uadl_serializer@json_abi_v3_11_2@nlohmann@@V?$vector@EV?$allocator@E@std@@@2@@json_abi_v3_11_2@nlohmann@@PEAV123@$0A@@std@@YAPEAPEAV?$basic_json@Vmap@std@@Vvector@2@V?$basic_string@DU?$char_traits@D@std@@V?$allocator@D@2@@2@_N_J_KNVallocator@2@Uadl_serializer@json_abi_v3_11_2@nlohmann@@V?$vector@EV?$allocator@E@std@@@2@@json_abi_v3_11_2@nlohmann@@QEAPEAV123@$$QEAPEAV123@@Z
       1209  4B8 00002460 ??$construct_at@PEAV?$unique_ptr@UBehaviorTreeBuilderContext@pineBT@@U?$default_delete@UBehaviorTreeBuilderContext@pineBT@@@std@@@std@@AEAPEAV12@$0A@@std@@YAPEAPEAV?$unique_ptr@UBehaviorTreeBuilderContext@pineBT@@U?$default_delete@UBehaviorTreeBuilderContext@pineBT@@@std@@@0@QEAPEAV10@AEAPEAV10@@Z
       1210  4B9 00002460 ??$construct_at@PEAVBehavior@pineBT@@AEAPEAV12@$0A@@std@@YAPEAPEAVBehavior@pineBT@@QEAPEAV12@AEAPEAV12@@Z
       1211  4BA 00002460 ??$construct_at@PEAVBehavior@pineBT@@AEBQEAV12@$0A@@std@@YAPEAPEAVBehavior@pineBT@@QEAPEAV12@AEBQEAV12@@Z
       1212  4BB 00002460 ??$construct_at@PEAVBehavior@pineBT@@PEAV12@$0A@@std@@YAPEAPEAVBehavior@pineBT@@QEAPEAV12@$$QEAPEAV12@@Z
       1213  4BC 0003F810 ??$construct_at@U?$pair@$$CBHV?$unique_ptr@VBehaviorTree@pineBT@@U?$default_delete@VBehaviorTree@pineBT@@@std@@@std@@@std@@AEBUpiecewise_construct_t@2@V?$tuple@AEBH@2@V?$tuple@$$V@2@$0A@@std@@YAPEAU?$pair@$$CBHV?$unique_ptr@VBehaviorTree@pineBT@@U?$default_delete@VBehaviorTree@pineBT@@@std@@@std@@@0@QEAU10@AEBUpiecewise_construct_t@0@$$QEAV?$tuple@AEBH@0@$$QEAV?$tuple@$$V@0@@Z
       1214  4BD 0002C250 ??$construct_at@U?$pair@$$CBIW4Result@Behavior@pineBT@@@std@@AEBUpiecewise_construct_t@2@V?$tuple@AEBI@2@V?$tuple@$$V@2@$0A@@std@@YAPEAU?$pair@$$CBIW4Result@Behavior@pineBT@@@0@QEAU10@AEBUpiecewise_construct_t@0@$$QEAV?$tuple@AEBI@0@$$QEAV?$tuple@$$V@0@@Z
       1215  4BE 00006C30 ??$construct_at@U?$pair@$$CBV?$basic_string@DU?$char_traits@D@std@@V?$allocator@D@2@@std@@H@std@@AEBU12@$0A@@std@@YAPEAU?$pair@$$CBV?$basic_string@DU?$char_traits@D@std@@V?$allocator@D@2@@std@@H@0@QEAU10@AEBU10@@Z
       1216  4BF 00005900 ??$construct_at@U?$pair@$$CBV?$basic_string@DU?$char_traits@D@std@@V?$allocator@D@2@@std@@H@std@@AEBUpiecewise_construct_t@2@V?$tuple@AEBV?$basic_string@DU?$char_traits@D@std@@V?$allocator@D@2@@std@@@2@V?$tuple@$$V@2@$0A@@std@@YAPEAU?$pair@$$CBV?$basic_string@DU?$char_traits@D@std@@V?$allocator@D@2@@std@@H@0@QEAU10@AEBUpiecewise_construct_t@0@$$QEAV?$tuple@AEBV?$basic_string@DU?$char_traits@D@std@@V?$allocator@D@2@@std@@@0@$$QEAV?$tuple@$$V@0@@Z
       1217  4C0 000196A0 ??$construct_at@U?$pair@$$CBV?$basic_string@DU?$char_traits@D@std@@V?$allocator@D@2@@std@@UBehaviorSchema@pineBT@@@std@@AEBUpiecewise_construct_t@2@V?$tuple@AEBV?$basic_string@DU?$char_traits@D@std@@V?$allocator@D@2@@std@@@2@V?$tuple@$$V@2@$0A@@std@@YAPEAU?$pair@$$CBV?$basic_string@DU?$char_traits@D@std@@V?$allocator@D@2@@std@@UBehaviorSchema@pineBT@@@0@QEAU10@AEBUpiecewise_construct_t@0@$$QEAV?$tuple@AEBV?$basic_string@DU?$char_traits@D@std@@V?$allocator@D@2@@std@@@0@$$QEAV?$tuple@$$V@0@@Z
       1218  4C1 000196D0 ??$construct_at@U?$pair@$$CBV?$basic_string@DU?$char_traits@D@std@@V?$allocator@D@2@@std@@V?$basic_json@Vmap@std@@Vvector@2@V?$basic_string@DU?$char_traits@D@std@@V?$allocator@D@2@@2@_N_J_KNVallocator@2@Uadl_serializer@json_abi_v3_11_2@nlohmann@@V?$vector@EV?$allocator@E@std@@@2@@json_abi_v3_11_2@nlohmann@@@std@@AEAU12@$0A@@std@@YAPEAU?$pair@$$CBV?$basic_string@DU?$char_traits@D@std@@V?$allocator@D@2@@std@@V?$basic_json@Vmap@std@@Vvector@2@V?$basic_string@DU?$char_traits@D@std@@V?$allocator@D@2@@2@_N_J_KNVallocator@2@Uadl_serializer@json_abi_v3_11_2@nlohmann@@V?$vector@EV?$allocator@E@std@@@2@@json_abi_v3_11_2@nlohmann@@@0@QEAU10@AEAU10@@Z
       1219  4C2 0002D9D0 ??$construct_at@U?$pair@$$CBV?$basic_string@DU?$char_traits@D@std@@V?$allocator@D@2@@std@@V?$basic_json@Vmap@std@@Vvector@2@V?$basic_string@DU?$char_traits@D@std@@V?$allocator@D@2@@2@_N_J_KNVallocator@2@Uadl_serializer@json_abi_v3_11_2@nlohmann@@V?$vector@EV?$allocator@E@std@@@2@@json_abi_v3_11_2@nlohmann@@@std@@AEBUpiecewise_construct_t@2@V?$tuple@AEBV?$basic_string@DU?$char_traits@D@std@@V?$allocator@D@2@@std@@@2@V?$tuple@$$V@2@$0A@@std@@YAPEAU?$pair@$$CBV?$basic_string@DU?$char_traits@D@std@@V?$allocator@D@2@@std@@V?$basic_json@Vmap@std@@Vvector@2@V?$basic_string@DU?$char_traits@D@std@@V?$allocator@D@2@@2@_N_J_KNVallocator@2@Uadl_serializer@json_abi_v3_11_2@nlohmann@@V?$vector@EV?$allocator@E@std@@@2@@json_abi_v3_11_2@nlohmann@@@0@QEAU10@AEBUpiecewise_construct_t@0@$$QEAV?$tuple@AEBV?$basic_string@DU?$char_traits@D@std@@V?$allocator@D@2@@std@@@0@$$QEAV?$tuple@$$V@0@@Z
       1220  4C3 00008F50 ??$construct_at@U?$pair@$$CBV?$basic_string@DU?$char_traits@D@std@@V?$allocator@D@2@@std@@V?$basic_json@Vmap@std@@Vvector@2@V?$basic_string@DU?$char_traits@D@std@@V?$allocator@D@2@@2@_N_J_KNVallocator@2@Uadl_serializer@json_abi_v3_11_2@nlohmann@@V?$vector@EV?$allocator@E@std@@@2@@json_abi_v3_11_2@nlohmann@@@std@@V?$basic_string@DU?$char_traits@D@std@@V?$allocator@D@2@@2@$$T$0A@@std@@YAPEAU?$pair@$$CBV?$basic_string@DU?$char_traits@D@std@@V?$allocator@D@2@@std@@V?$basic_json@Vmap@std@@Vvector@2@V?$basic_string@DU?$char_traits@D@std@@V?$allocator@D@2@@2@_N_J_KNVallocator@2@Uadl_serializer@json_abi_v3_11_2@nlohmann@@V?$vector@EV?$allocator@E@std@@@2@@json_abi_v3_11_2@nlohmann@@@0@QEAU10@$$QEAV?$basic_string@DU?$char_traits@D@std@@V?$allocator@D@2@@0@$$QEA$$T@Z
       1221  4C4 00008C20 ??$construct_at@U?$pair@$$CBV?$basic_string@DU?$char_traits@D@std@@V?$allocator@D@2@@std@@V?$function@$$A6APEAVBehavior@pineBT@@AEBV?$basic_string@DU?$char_traits@D@std@@V?$allocator@D@2@@std@@AEAVBehaviorTree@2@@Z@2@@std@@AEBUpiecewise_construct_t@2@V?$tuple@AEBV?$basic_string@DU?$char_traits@D@std@@V?$allocator@D@2@@std@@@2@V?$tuple@$$V@2@$0A@@std@@YAPEAU?$pair@$$CBV?$basic_string@DU?$char_traits@D@std@@V?$allocator@D@2@@std@@V?$function@$$A6APEAVBehavior@pineBT@@AEBV?$basic_string@DU?$char_traits@D@std@@V?$allocator@D@2@@std@@AEAVBehaviorTree@2@@Z@2@@0@QEAU10@AEBUpiecewise_construct_t@0@$$QEAV?$tuple@AEBV?$basic_string@DU?$char_traits@D@std@@V?$allocator@D@2@@std@@@0@$$QEAV?$tuple@$$V@0@@Z
       1222  4C5 00002E80 ??$construct_at@U_Container_proxy@std@@PEAU_Container_base12@2@$0A@@std@@YAPEAU_Container_proxy@0@QEAU10@$$QEAPEAU_Container_base12@0@@Z
       1223  4C6 00002460 ??$construct_at@V?$_List_unchecked_iterator@V?$_List_val@U?$_List_simple_types@U?$pair@$$CBHV?$unique_ptr@VBehaviorTree@pineBT@@U?$default_delete@VBehaviorTree@pineBT@@@std@@@std@@@std@@@std@@@std@@@std@@AEBV12@$0A@@std@@YAPEAV?$_List_unchecked_iterator@V?$_List_val@U?$_List_simple_types@U?$pair@$$CBHV?$unique_ptr@VBehaviorTree@pineBT@@U?$default_delete@VBehaviorTree@pineBT@@@std@@@std@@@std@@@std@@@std@@@0@QEAV10@AEBV10@@Z
       1224  4C7 00002460 ??$construct_at@V?$_List_unchecked_iterator@V?$_List_val@U?$_List_simple_types@U?$pair@$$CBIW4Result@Behavior@pineBT@@@std@@@std@@@std@@@std@@AEBV12@$0A@@std@@YAPEAV?$_List_unchecked_iterator@V?$_List_val@U?$_List_simple_types@U?$pair@$$CBIW4Result@Behavior@pineBT@@@std@@@std@@@std@@@0@QEAV10@AEBV10@@Z
       1225  4C8 00002460 ??$construct_at@V?$_List_unchecked_iterator@V?$_List_val@U?$_List_simple_types@U?$pair@$$CBV?$basic_string@DU?$char_traits@D@std@@V?$allocator@D@2@@std@@H@std@@@std@@@std@@@std@@AEBV12@$0A@@std@@YAPEAV?$_List_unchecked_iterator@V?$_List_val@U?$_List_simple_types@U?$pair@$$CBV?$basic_string@DU?$char_traits@D@std@@V?$allocator@D@2@@std@@H@std@@@std@@@std@@@0@QEAV10@AEBV10@@Z
       1226  4C9 00002460 ??$construct_at@V?$_List_unchecked_iterator@V?$_List_val@U?$_List_simple_types@U?$pair@$$CBV?$basic_string@DU?$char_traits@D@std@@V?$allocator@D@2@@std@@UBehaviorSchema@pineBT@@@std@@@std@@@std@@@std@@AEBV12@$0A@@std@@YAPEAV?$_List_unchecked_iterator@V?$_List_val@U?$_List_simple_types@U?$pair@$$CBV?$basic_string@DU?$char_traits@D@std@@V?$allocator@D@2@@std@@UBehaviorSchema@pineBT@@@std@@@std@@@std@@@0@QEAV10@AEBV10@@Z
       1227  4CA 00002460 ??$construct_at@V?$_List_unchecked_iterator@V?$_List_val@U?$_List_simple_types@U?$pair@$$CBV?$basic_string@DU?$char_traits@D@std@@V?$allocator@D@2@@std@@V?$function@$$A6APEAVBehavior@pineBT@@AEBV?$basic_string@DU?$char_traits@D@std@@V?$allocator@D@2@@std@@AEAVBehaviorTree@2@@Z@2@@std@@@std@@@std@@@std@@AEBV12@$0A@@std@@YAPEAV?$_List_unchecked_iterator@V?$_List_val@U?$_List_simple_types@U?$pair@$$CBV?$basic_string@DU?$char_traits@D@std@@V?$allocator@D@2@@std@@V?$function@$$A6APEAVBehavior@pineBT@@AEBV?$basic_string@DU?$char_traits@D@std@@V?$allocator@D@2@@std@@AEAVBehaviorTree@2@@Z@2@@std@@@std@@@std@@@0@QEAV10@AEBV10@@Z
       1228  4CB 00031360 ??$construct_at@V?$basic_json@Vmap@std@@Vvector@2@V?$basic_string@DU?$char_traits@D@std@@V?$allocator@D@2@@2@_N_J_KNVallocator@2@Uadl_serializer@json_abi_v3_11_2@nlohmann@@V?$vector@EV?$allocator@E@std@@@2@@json_abi_v3_11_2@nlohmann@@$$T$0A@@std@@YAPEAV?$basic_json@Vmap@std@@Vvector@2@V?$basic_string@DU?$char_traits@D@std@@V?$allocator@D@2@@2@_N_J_KNVallocator@2@Uadl_serializer@json_abi_v3_11_2@nlohmann@@V?$vector@EV?$allocator@E@std@@@2@@json_abi_v3_11_2@nlohmann@@QEAV123@$$QEA$$T@Z
       1229  4CC 00031360 ??$construct_at@V?$basic_json@Vmap@std@@Vvector@2@V?$basic_string@DU?$char_traits@D@std@@V?$allocator@D@2@@2@_N_J_KNVallocator@2@Uadl_serializer@json_abi_v3_11_2@nlohmann@@V?$vector@EV?$allocator@E@std@@@2@@json_abi_v3_11_2@nlohmann@@$$V$0A@@std@@YAPEAV?$basic_json@Vmap@std@@Vvector@2@V?$basic_string@DU?$char_traits@D@std@@V?$allocator@D@2@@2@_N_J_KNVallocator@2@Uadl_serializer@json_abi_v3_11_2@nlohmann@@V?$vector@EV?$allocator@E@std@@@2@@json_abi_v3_11_2@nlohmann@@QEAV123@@Z
       1230  4CD 0002D800 ??$construct_at@V?$basic_json@Vmap@std@@Vvector@2@V?$basic_string@DU?$char_traits@D@std@@V?$allocator@D@2@@2@_N_J_KNVallocator@2@Uadl_serializer@json_abi_v3_11_2@nlohmann@@V?$vector@EV?$allocator@E@std@@@2@@json_abi_v3_11_2@nlohmann@@AEAN$0A@@std@@YAPEAV?$basic_json@Vmap@std@@Vvector@2@V?$basic_string@DU?$char_traits@D@std@@V?$allocator@D@2@@2@_N_J_KNVallocator@2@Uadl_serializer@json_abi_v3_11_2@nlohmann@@V?$vector@EV?$allocator@E@std@@@2@@json_abi_v3_11_2@nlohmann@@QEAV123@AEAN@Z
       1231  4CE 00019710 ??$construct_at@V?$basic_json@Vmap@std@@Vvector@2@V?$basic_string@DU?$char_traits@D@std@@V?$allocator@D@2@@2@_N_J_KNVallocator@2@Uadl_serializer@json_abi_v3_11_2@nlohmann@@V?$vector@EV?$allocator@E@std@@@2@@json_abi_v3_11_2@nlohmann@@AEAV123@$0A@@std@@YAPEAV?$basic_json@Vmap@std@@Vvector@2@V?$basic_string@DU?$char_traits@D@std@@V?$allocator@D@2@@2@_N_J_KNVallocator@2@Uadl_serializer@json_abi_v3_11_2@nlohmann@@V?$vector@EV?$allocator@E@std@@@2@@json_abi_v3_11_2@nlohmann@@QEAV123@AEAV123@@Z
       1232  4CF 00008C50 ??$construct_at@V?$basic_json@Vmap@std@@Vvector@2@V?$basic_string@DU?$char_traits@D@std@@V?$allocator@D@2@@2@_N_J_KNVallocator@2@Uadl_serializer@json_abi_v3_11_2@nlohmann@@V?$vector@EV?$allocator@E@std@@@2@@json_abi_v3_11_2@nlohmann@@AEAV?$basic_string@DU?$char_traits@D@std@@V?$allocator@D@2@@std@@$0A@@std@@YAPEAV?$basic_json@Vmap@std@@Vvector@2@V?$basic_string@DU?$char_traits@D@std@@V?$allocator@D@2@@2@_N_J_KNVallocator@2@Uadl_serializer@json_abi_v3_11_2@nlohmann@@V?$vector@EV?$allocator@E@std@@@2@@json_abi_v3_11_2@nlohmann@@QEAV123@AEAV?$basic_string@DU?$char_traits@D@std@@V?$allocator@D@2@@0@@Z
       1233  4D0 0002D850 ??$construct_at@V?$basic_json@Vmap@std@@Vvector@2@V?$basic_string@DU?$char_traits@D@std@@V?$allocator@D@2@@2@_N_J_KNVallocator@2@Uadl_serializer@json_abi_v3_11_2@nlohmann@@V?$vector@EV?$allocator@E@std@@@2@@json_abi_v3_11_2@nlohmann@@AEA_J$0A@@std@@YAPEAV?$basic_json@Vmap@std@@Vvector@2@V?$basic_string@DU?$char_traits@D@std@@V?$allocator@D@2@@2@_N_J_KNVallocator@2@Uadl_serializer@json_abi_v3_11_2@nlohmann@@V?$vector@EV?$allocator@E@std@@@2@@json_abi_v3_11_2@nlohmann@@QEAV123@AEA_J@Z
       1234  4D1 0002D8A0 ??$construct_at@V?$basic_json@Vmap@std@@Vvector@2@V?$basic_string@DU?$char_traits@D@std@@V?$allocator@D@2@@2@_N_J_KNVallocator@2@Uadl_serializer@json_abi_v3_11_2@nlohmann@@V?$vector@EV?$allocator@E@std@@@2@@json_abi_v3_11_2@nlohmann@@AEA_K$0A@@std@@YAPEAV?$basic_json@Vmap@std@@Vvector@2@V?$basic_string@DU?$char_traits@D@std@@V?$allocator@D@2@@2@_N_J_KNVallocator@2@Uadl_serializer@json_abi_v3_11_2@nlohmann@@V?$vector@EV?$allocator@E@std@@@2@@json_abi_v3_11_2@nlohmann@@QEAV123@AEA_K@Z
       1235  4D2 0002D8F0 ??$construct_at@V?$basic_json@Vmap@std@@Vvector@2@V?$basic_string@DU?$char_traits@D@std@@V?$allocator@D@2@@2@_N_J_KNVallocator@2@Uadl_serializer@json_abi_v3_11_2@nlohmann@@V?$vector@EV?$allocator@E@std@@@2@@json_abi_v3_11_2@nlohmann@@AEA_N$0A@@std@@YAPEAV?$basic_json@Vmap@std@@Vvector@2@V?$basic_string@DU?$char_traits@D@std@@V?$allocator@D@2@@2@_N_J_KNVallocator@2@Uadl_serializer@json_abi_v3_11_2@nlohmann@@V?$vector@EV?$allocator@E@std@@@2@@json_abi_v3_11_2@nlohmann@@QEAV123@AEA_N@Z
       1236  4D3 00019720 ??$construct_at@V?$basic_json@Vmap@std@@Vvector@2@V?$basic_string@DU?$char_traits@D@std@@V?$allocator@D@2@@2@_N_J_KNVallocator@2@Uadl_serializer@json_abi_v3_11_2@nlohmann@@V?$vector@EV?$allocator@E@std@@@2@@json_abi_v3_11_2@nlohmann@@V123@$0A@@std@@YAPEAV?$basic_json@Vmap@std@@Vvector@2@V?$basic_string@DU?$char_traits@D@std@@V?$allocator@D@2@@2@_N_J_KNVallocator@2@Uadl_serializer@json_abi_v3_11_2@nlohmann@@V?$vector@EV?$allocator@E@std@@@2@@json_abi_v3_11_2@nlohmann@@QEAV123@$$QEAV123@@Z
       1237  4D4 00031380 ??$construct_at@V?$basic_json@Vmap@std@@Vvector@2@V?$basic_string@DU?$char_traits@D@std@@V?$allocator@D@2@@2@_N_J_KNVallocator@2@Uadl_serializer@json_abi_v3_11_2@nlohmann@@V?$vector@EV?$allocator@E@std@@@2@@json_abi_v3_11_2@nlohmann@@W4value_t@detail@23@$0A@@std@@YAPEAV?$basic_json@Vmap@std@@Vvector@2@V?$basic_string@DU?$char_traits@D@std@@V?$allocator@D@2@@2@_N_J_KNVallocator@2@Uadl_serializer@json_abi_v3_11_2@nlohmann@@V?$vector@EV?$allocator@E@std@@@2@@json_abi_v3_11_2@nlohmann@@QEAV123@$$QEAW4value_t@detail@23@@Z
       1238  4D5 00006C60 ??$construct_at@V?$basic_string@DU?$char_traits@D@std@@V?$allocator@D@2@@std@@AEAV12@$0A@@std@@YAPEAV?$basic_string@DU?$char_traits@D@std@@V?$allocator@D@2@@0@QEAV10@AEAV10@@Z
       1239  4D6 00002490 ??$construct_at@V?$basic_string@DU?$char_traits@D@std@@V?$allocator@D@2@@std@@AEAY00$$CBD$0A@@std@@YAPEAV?$basic_string@DU?$char_traits@D@std@@V?$allocator@D@2@@0@QEAV10@AEAY00$$CBD@Z
       1240  4D7 00002490 ??$construct_at@V?$basic_string@DU?$char_traits@D@std@@V?$allocator@D@2@@std@@AEAY03$$CBD$0A@@std@@YAPEAV?$basic_string@DU?$char_traits@D@std@@V?$allocator@D@2@@0@QEAV10@AEAY03$$CBD@Z
       1241  4D8 00002490 ??$construct_at@V?$basic_string@DU?$char_traits@D@std@@V?$allocator@D@2@@std@@AEAY04$$CBD$0A@@std@@YAPEAV?$basic_string@DU?$char_traits@D@std@@V?$allocator@D@2@@0@QEAV10@AEAY04$$CBD@Z
       1242  4D9 00002490 ??$construct_at@V?$basic_string@DU?$char_traits@D@std@@V?$allocator@D@2@@std@@AEAY06$$CBD$0A@@std@@YAPEAV?$basic_string@DU?$char_traits@D@std@@V?$allocator@D@2@@0@QEAV10@AEAY06$$CBD@Z
       1243  4DA 00002490 ??$construct_at@V?$basic_string@DU?$char_traits@D@std@@V?$allocator@D@2@@std@@AEAY07$$CBD$0A@@std@@YAPEAV?$basic_string@DU?$char_traits@D@std@@V?$allocator@D@2@@0@QEAV10@AEAY07$$CBD@Z
       1244  4DB 00006C60 ??$construct_at@V?$basic_string@DU?$char_traits@D@std@@V?$allocator@D@2@@std@@AEBV12@$0A@@std@@YAPEAV?$basic_string@DU?$char_traits@D@std@@V?$allocator@D@2@@0@QEAV10@AEBV10@@Z
       1245  4DC 00006C70 ??$construct_at@V?$basic_string@DU?$char_traits@D@std@@V?$allocator@D@2@@std@@V12@$0A@@std@@YAPEAV?$basic_string@DU?$char_traits@D@std@@V?$allocator@D@2@@0@QEAV10@$$QEAV10@@Z
       1246  4DD 00019740 ??$construct_at@V?$byte_container_with_subtype@V?$vector@EV?$allocator@E@std@@@std@@@json_abi_v3_11_2@nlohmann@@$$V$0A@@std@@YAPEAV?$byte_container_with_subtype@V?$vector@EV?$allocator@E@std@@@std@@@json_abi_v3_11_2@nlohmann@@QEAV123@@Z
       1247  4DE 00019760 ??$construct_at@V?$byte_container_with_subtype@V?$vector@EV?$allocator@E@std@@@std@@@json_abi_v3_11_2@nlohmann@@AEBV123@$0A@@std@@YAPEAV?$byte_container_with_subtype@V?$vector@EV?$allocator@E@std@@@std@@@json_abi_v3_11_2@nlohmann@@QEAV123@AEBV123@@Z
       1248  4DF 00019770 ??$construct_at@V?$map@V?$basic_string@DU?$char_traits@D@std@@V?$allocator@D@2@@std@@V?$basic_json@Vmap@std@@Vvector@2@V?$basic_string@DU?$char_traits@D@std@@V?$allocator@D@2@@2@_N_J_KNVallocator@2@Uadl_serializer@json_abi_v3_11_2@nlohmann@@V?$vector@EV?$allocator@E@std@@@2@@json_abi_v3_11_2@nlohmann@@U?$less@X@2@V?$allocator@U?$pair@$$CBV?$basic_string@DU?$char_traits@D@std@@V?$allocator@D@2@@std@@V?$basic_json@Vmap@std@@Vvector@2@V?$basic_string@DU?$char_traits@D@std@@V?$allocator@D@2@@2@_N_J_KNVallocator@2@Uadl_serializer@json_abi_v3_11_2@nlohmann@@V?$vector@EV?$allocator@E@std@@@2@@json_abi_v3_11_2@nlohmann@@@std@@@2@@std@@$$V$0A@@std@@YAPEAV?$map@V?$basic_string@DU?$char_traits@D@std@@V?$allocator@D@2@@std@@V?$basic_json@Vmap@std@@Vvector@2@V?$basic_string@DU?$char_traits@D@std@@V?$allocator@D@2@@2@_N_J_KNVallocator@2@Uadl_serializer@json_abi_v3_11_2@nlohmann@@V?$vector@EV?$allocator@E@std@@@2@@json_abi_v3_11_2@nlohmann@@U?$less@X@2@V?$allocator@U?$pair@$$CBV?$basic_string@DU?$char_traits@D@std@@V?$allocator@D@2@@std@@V?$basic_json@Vmap@std@@Vvector@2@V?$basic_string@DU?$char_traits@D@std@@V?$allocator@D@2@@2@_N_J_KNVallocator@2@Uadl_serializer@json_abi_v3_11_2@nlohmann@@V?$vector@EV?$allocator@E@std@@@2@@json_abi_v3_11_2@nlohmann@@@std@@@2@@0@QEAV10@@Z
       1249  4E0 000197B0 ??$construct_at@V?$map@V?$basic_string@DU?$char_traits@D@std@@V?$allocator@D@2@@std@@V?$basic_json@Vmap@std@@Vvector@2@V?$basic_string@DU?$char_traits@D@std@@V?$allocator@D@2@@2@_N_J_KNVallocator@2@Uadl_serializer@json_abi_v3_11_2@nlohmann@@V?$vector@EV?$allocator@E@std@@@2@@json_abi_v3_11_2@nlohmann@@U?$less@X@2@V?$allocator@U?$pair@$$CBV?$basic_string@DU?$char_traits@D@std@@V?$allocator@D@2@@std@@V?$basic_json@Vmap@std@@Vvector@2@V?$basic_string@DU?$char_traits@D@std@@V?$allocator@D@2@@2@_N_J_KNVallocator@2@Uadl_serializer@json_abi_v3_11_2@nlohmann@@V?$vector@EV?$allocator@E@std@@@2@@json_abi_v3_11_2@nlohmann@@@std@@@2@@std@@AEBV12@$0A@@std@@YAPEAV?$map@V?$basic_string@DU?$char_traits@D@std@@V?$allocator@D@2@@std@@V?$basic_json@Vmap@std@@Vvector@2@V?$basic_string@DU?$char_traits@D@std@@V?$allocator@D@2@@2@_N_J_KNVallocator@2@Uadl_serializer@json_abi_v3_11_2@nlohmann@@V?$vector@EV?$allocator@E@std@@@2@@json_abi_v3_11_2@nlohmann@@U?$less@X@2@V?$allocator@U?$pair@$$CBV?$basic_string@DU?$char_traits@D@std@@V?$allocator@D@2@@std@@V?$basic_json@Vmap@std@@Vvector@2@V?$basic_string@DU?$char_traits@D@std@@V?$allocator@D@2@@2@_N_J_KNVallocator@2@Uadl_serializer@json_abi_v3_11_2@nlohmann@@V?$vector@EV?$allocator@E@std@@@2@@json_abi_v3_11_2@nlohmann@@@std@@@2@@0@QEAV10@AEBV10@@Z
       1250  4E1 000197C0 ??$construct_at@V?$output_string_adapter@DV?$basic_string@DU?$char_traits@D@std@@V?$allocator@D@2@@std@@@detail@json_abi_v3_11_2@nlohmann@@AEAV?$basic_string@DU?$char_traits@D@std@@V?$allocator@D@2@@std@@$0A@@std@@YAPEAV?$output_string_adapter@DV?$basic_string@DU?$char_traits@D@std@@V?$allocator@D@2@@std@@@detail@json_abi_v3_11_2@nlohmann@@QEAV1234@AEAV?$basic_string@DU?$char_traits@D@std@@V?$allocator@D@2@@0@@Z
       1251  4E2 0002ADC0 ??$construct_at@V?$unique_ptr@UBehaviorTreeBuilderContext@pineBT@@U?$default_delete@UBehaviorTreeBuilderContext@pineBT@@@std@@@std@@V12@$0A@@std@@YAPEAV?$unique_ptr@UBehaviorTreeBuilderContext@pineBT@@U?$default_delete@UBehaviorTreeBuilderContext@pineBT@@@std@@@0@QEAV10@$$QEAV10@@Z
       1252  4E3 00003E40 ??$construct_at@V?$vector@V?$basic_json@Vmap@std@@Vvector@2@V?$basic_string@DU?$char_traits@D@std@@V?$allocator@D@2@@2@_N_J_KNVallocator@2@Uadl_serializer@json_abi_v3_11_2@nlohmann@@V?$vector@EV?$allocator@E@std@@@2@@json_abi_v3_11_2@nlohmann@@V?$allocator@V?$basic_json@Vmap@std@@Vvector@2@V?$basic_string@DU?$char_traits@D@std@@V?$allocator@D@2@@2@_N_J_KNVallocator@2@Uadl_serializer@json_abi_v3_11_2@nlohmann@@V?$vector@EV?$allocator@E@std@@@2@@json_abi_v3_11_2@nlohmann@@@std@@@std@@$$V$0A@@std@@YAPEAV?$vector@V?$basic_json@Vmap@std@@Vvector@2@V?$basic_string@DU?$char_traits@D@std@@V?$allocator@D@2@@2@_N_J_KNVallocator@2@Uadl_serializer@json_abi_v3_11_2@nlohmann@@V?$vector@EV?$allocator@E@std@@@2@@json_abi_v3_11_2@nlohmann@@V?$allocator@V?$basic_json@Vmap@std@@Vvector@2@V?$basic_string@DU?$char_traits@D@std@@V?$allocator@D@2@@2@_N_J_KNVallocator@2@Uadl_serializer@json_abi_v3_11_2@nlohmann@@V?$vector@EV?$allocator@E@std@@@2@@json_abi_v3_11_2@nlohmann@@@std@@@0@QEAV10@@Z
       1253  4E4 000197E0 ??$construct_at@V?$vector@V?$basic_json@Vmap@std@@Vvector@2@V?$basic_string@DU?$char_traits@D@std@@V?$allocator@D@2@@2@_N_J_KNVallocator@2@Uadl_serializer@json_abi_v3_11_2@nlohmann@@V?$vector@EV?$allocator@E@std@@@2@@json_abi_v3_11_2@nlohmann@@V?$allocator@V?$basic_json@Vmap@std@@Vvector@2@V?$basic_string@DU?$char_traits@D@std@@V?$allocator@D@2@@2@_N_J_KNVallocator@2@Uadl_serializer@json_abi_v3_11_2@nlohmann@@V?$vector@EV?$allocator@E@std@@@2@@json_abi_v3_11_2@nlohmann@@@std@@@std@@AEBV12@$0A@@std@@YAPEAV?$vector@V?$basic_json@Vmap@std@@Vvector@2@V?$basic_string@DU?$char_traits@D@std@@V?$allocator@D@2@@2@_N_J_KNVallocator@2@Uadl_serializer@json_abi_v3_11_2@nlohmann@@V?$vector@EV?$allocator@E@std@@@2@@json_abi_v3_11_2@nlohmann@@V?$allocator@V?$basic_json@Vmap@std@@Vvector@2@V?$basic_string@DU?$char_traits@D@std@@V?$allocator@D@2@@2@_N_J_KNVallocator@2@Uadl_serializer@json_abi_v3_11_2@nlohmann@@V?$vector@EV?$allocator@E@std@@@2@@json_abi_v3_11_2@nlohmann@@@std@@@0@QEAV10@AEBV10@@Z
       1254  4E5 00031390 ??$contains@AEAY02$$CBD$0A@@?$basic_json@Vmap@std@@Vvector@2@V?$basic_string@DU?$char_traits@D@std@@V?$allocator@D@2@@2@_N_J_KNVallocator@2@Uadl_serializer@json_abi_v3_11_2@nlohmann@@V?$vector@EV?$allocator@E@std@@@2@@json_abi_v3_11_2@nlohmann@@QEBA_NAEAY02$$CBD@Z
       1255  4E6 00031390 ??$contains@AEAY04$$CBD$0A@@?$basic_json@Vmap@std@@Vvector@2@V?$basic_string@DU?$char_traits@D@std@@V?$allocator@D@2@@2@_N_J_KNVallocator@2@Uadl_serializer@json_abi_v3_11_2@nlohmann@@V?$vector@EV?$allocator@E@std@@@2@@json_abi_v3_11_2@nlohmann@@QEBA_NAEAY04$$CBD@Z
       1256  4E7 00031390 ??$contains@AEAY07$$CBD$0A@@?$basic_json@Vmap@std@@Vvector@2@V?$basic_string@DU?$char_traits@D@std@@V?$allocator@D@2@@2@_N_J_KNVallocator@2@Uadl_serializer@json_abi_v3_11_2@nlohmann@@V?$vector@EV?$allocator@E@std@@@2@@json_abi_v3_11_2@nlohmann@@QEBA_NAEAY07$$CBD@Z
       1257  4E8 00031390 ??$contains@AEAY08$$CBD$0A@@?$basic_json@Vmap@std@@Vvector@2@V?$basic_string@DU?$char_traits@D@std@@V?$allocator@D@2@@2@_N_J_KNVallocator@2@Uadl_serializer@json_abi_v3_11_2@nlohmann@@V?$vector@EV?$allocator@E@std@@@2@@json_abi_v3_11_2@nlohmann@@QEBA_NAEAY08$$CBD@Z
       1258  4E9 00031430 ??$copy@V?$_Vb_iterator@U?$_Wrap_alloc@V?$allocator@I@std@@@std@@@std@@V12@@std@@YA?AV?$_Vb_iterator@U?$_Wrap_alloc@V?$allocator@I@std@@@std@@@0@V10@00@Z
       1259  4EA 000314E0 ??$copy_backward@V?$_Vb_iterator@U?$_Wrap_alloc@V?$allocator@I@std@@@std@@@std@@V12@@std@@YA?AV?$_Vb_iterator@U?$_Wrap_alloc@V?$allocator@I@std@@@std@@@0@V10@00@Z
       1260  4EB 0000AFA0 ??$countl_zero@_K$0A@@std@@YAH_K@Z
       1261  4EC 000197F0 ??$create@$$T$0A@@other_error@detail@json_abi_v3_11_2@nlohmann@@SA?AV0123@HAEBV?$basic_string@DU?$char_traits@D@std@@V?$allocator@D@2@@std@@$$T@Z
       1262  4ED 00031590 ??$create@$$T$0A@@out_of_range@detail@json_abi_v3_11_2@nlohmann@@SA?AV0123@HAEBV?$basic_string@DU?$char_traits@D@std@@V?$allocator@D@2@@std@@$$T@Z
       1263  4EE 000317B0 ??$create@$$T$0A@@parse_error@detail@json_abi_v3_11_2@nlohmann@@SA?AV0123@HAEBUposition_t@123@AEBV?$basic_string@DU?$char_traits@D@std@@V?$allocator@D@2@@std@@$$T@Z
       1264  4EF 00019A20 ??$create@$$T$0A@@type_error@detail@json_abi_v3_11_2@nlohmann@@SA?AV0123@HAEBV?$basic_string@DU?$char_traits@D@std@@V?$allocator@D@2@@std@@$$T@Z
       1265  4F0 00031A30 ??$create@PEAV?$basic_json@Vmap@std@@Vvector@2@V?$basic_string@DU?$char_traits@D@std@@V?$allocator@D@2@@2@_N_J_KNVallocator@2@Uadl_serializer@json_abi_v3_11_2@nlohmann@@V?$vector@EV?$allocator@E@std@@@2@@json_abi_v3_11_2@nlohmann@@$0A@@invalid_iterator@detail@json_abi_v3_11_2@nlohmann@@SA?AV0123@HAEBV?$basic_string@DU?$char_traits@D@std@@V?$allocator@D@2@@std@@PEAV?$basic_json@Vmap@std@@Vvector@2@V?$basic_string@DU?$char_traits@D@std@@V?$allocator@D@2@@2@_N_J_KNVallocator@2@Uadl_serializer@json_abi_v3_11_2@nlohmann@@V?$vector@EV?$allocator@E@std@@@2@@23@@Z
       1266  4F1 00031590 ??$create@PEAV?$basic_json@Vmap@std@@Vvector@2@V?$basic_string@DU?$char_traits@D@std@@V?$allocator@D@2@@2@_N_J_KNVallocator@2@Uadl_serializer@json_abi_v3_11_2@nlohmann@@V?$vector@EV?$allocator@E@std@@@2@@json_abi_v3_11_2@nlohmann@@$0A@@out_of_range@detail@json_abi_v3_11_2@nlohmann@@SA?AV0123@HAEBV?$basic_string@DU?$char_traits@D@std@@V?$allocator@D@2@@std@@PEAV?$basic_json@Vmap@std@@Vvector@2@V?$basic_string@DU?$char_traits@D@std@@V?$allocator@D@2@@2@_N_J_KNVallocator@2@Uadl_serializer@json_abi_v3_11_2@nlohmann@@V?$vector@EV?$allocator@E@std@@@2@@23@@Z
       1267  4F2 00019A20 ??$create@PEAV?$basic_json@Vmap@std@@Vvector@2@V?$basic_string@DU?$char_traits@D@std@@V?$allocator@D@2@@2@_N_J_KNVallocator@2@Uadl_serializer@json_abi_v3_11_2@nlohmann@@V?$vector@EV?$allocator@E@std@@@2@@json_abi_v3_11_2@nlohmann@@$0A@@type_error@detail@json_abi_v3_11_2@nlohmann@@SA?AV0123@HAEBV?$basic_string@DU?$char_traits@D@std@@V?$allocator@D@2@@std@@PEAV?$basic_json@Vmap@std@@Vvector@2@V?$basic_string@DU?$char_traits@D@std@@V?$allocator@D@2@@2@_N_J_KNVallocator@2@Uadl_serializer@json_abi_v3_11_2@nlohmann@@V?$vector@EV?$allocator@E@std@@@2@@23@@Z
       1268  4F3 00031A30 ??$create@PEBV?$basic_json@Vmap@std@@Vvector@2@V?$basic_string@DU?$char_traits@D@std@@V?$allocator@D@2@@2@_N_J_KNVallocator@2@Uadl_serializer@json_abi_v3_11_2@nlohmann@@V?$vector@EV?$allocator@E@std@@@2@@json_abi_v3_11_2@nlohmann@@$0A@@invalid_iterator@detail@json_abi_v3_11_2@nlohmann@@SA?AV0123@HAEBV?$basic_string@DU?$char_traits@D@std@@V?$allocator@D@2@@std@@PEBV?$basic_json@Vmap@std@@Vvector@2@V?$basic_string@DU?$char_traits@D@std@@V?$allocator@D@2@@2@_N_J_KNVallocator@2@Uadl_serializer@json_abi_v3_11_2@nlohmann@@V?$vector@EV?$allocator@E@std@@@2@@23@@Z
       1269  4F4 00031590 ??$create@PEBV?$basic_json@Vmap@std@@Vvector@2@V?$basic_string@DU?$char_traits@D@std@@V?$allocator@D@2@@2@_N_J_KNVallocator@2@Uadl_serializer@json_abi_v3_11_2@nlohmann@@V?$vector@EV?$allocator@E@std@@@2@@json_abi_v3_11_2@nlohmann@@$0A@@out_of_range@detail@json_abi_v3_11_2@nlohmann@@SA?AV0123@HAEBV?$basic_string@DU?$char_traits@D@std@@V?$allocator@D@2@@std@@PEBV?$basic_json@Vmap@std@@Vvector@2@V?$basic_string@DU?$char_traits@D@std@@V?$allocator@D@2@@2@_N_J_KNVallocator@2@Uadl_serializer@json_abi_v3_11_2@nlohmann@@V?$vector@EV?$allocator@E@std@@@2@@23@@Z
       1270  4F5 00019A20 ??$create@PEBV?$basic_json@Vmap@std@@Vvector@2@V?$basic_string@DU?$char_traits@D@std@@V?$allocator@D@2@@2@_N_J_KNVallocator@2@Uadl_serializer@json_abi_v3_11_2@nlohmann@@V?$vector@EV?$allocator@E@std@@@2@@json_abi_v3_11_2@nlohmann@@$0A@@type_error@detail@json_abi_v3_11_2@nlohmann@@SA?AV0123@HAEBV?$basic_string@DU?$char_traits@D@std@@V?$allocator@D@2@@std@@PEBV?$basic_json@Vmap@std@@Vvector@2@V?$basic_string@DU?$char_traits@D@std@@V?$allocator@D@2@@2@_N_J_KNVallocator@2@Uadl_serializer@json_abi_v3_11_2@nlohmann@@V?$vector@EV?$allocator@E@std@@@2@@23@@Z
       1271  4F6 00019C50 ??$create@V?$basic_string@DU?$char_traits@D@std@@V?$allocator@D@2@@std@@AEAY00$$CBD@?$basic_json@Vmap@std@@Vvector@2@V?$basic_string@DU?$char_traits@D@std@@V?$allocator@D@2@@2@_N_J_KNVallocator@2@Uadl_serializer@json_abi_v3_11_2@nlohmann@@V?$vector@EV?$allocator@E@std@@@2@@json_abi_v3_11_2@nlohmann@@CAPEAV?$basic_string@DU?$char_traits@D@std@@V?$allocator@D@2@@std@@AEAY00$$CBD@Z
       1272  4F7 00019C50 ??$create@V?$basic_string@DU?$char_traits@D@std@@V?$allocator@D@2@@std@@AEAY03$$CBD@?$basic_json@Vmap@std@@Vvector@2@V?$basic_string@DU?$char_traits@D@std@@V?$allocator@D@2@@2@_N_J_KNVallocator@2@Uadl_serializer@json_abi_v3_11_2@nlohmann@@V?$vector@EV?$allocator@E@std@@@2@@json_abi_v3_11_2@nlohmann@@CAPEAV?$basic_string@DU?$char_traits@D@std@@V?$allocator@D@2@@std@@AEAY03$$CBD@Z
       1273  4F8 00019C50 ??$create@V?$basic_string@DU?$char_traits@D@std@@V?$allocator@D@2@@std@@AEAY04$$CBD@?$basic_json@Vmap@std@@Vvector@2@V?$basic_string@DU?$char_traits@D@std@@V?$allocator@D@2@@2@_N_J_KNVallocator@2@Uadl_serializer@json_abi_v3_11_2@nlohmann@@V?$vector@EV?$allocator@E@std@@@2@@json_abi_v3_11_2@nlohmann@@CAPEAV?$basic_string@DU?$char_traits@D@std@@V?$allocator@D@2@@std@@AEAY04$$CBD@Z
       1274  4F9 00019C50 ??$create@V?$basic_string@DU?$char_traits@D@std@@V?$allocator@D@2@@std@@AEAY06$$CBD@?$basic_json@Vmap@std@@Vvector@2@V?$basic_string@DU?$char_traits@D@std@@V?$allocator@D@2@@2@_N_J_KNVallocator@2@Uadl_serializer@json_abi_v3_11_2@nlohmann@@V?$vector@EV?$allocator@E@std@@@2@@json_abi_v3_11_2@nlohmann@@CAPEAV?$basic_string@DU?$char_traits@D@std@@V?$allocator@D@2@@std@@AEAY06$$CBD@Z
       1275  4FA 00019C50 ??$create@V?$basic_string@DU?$char_traits@D@std@@V?$allocator@D@2@@std@@AEAY07$$CBD@?$basic_json@Vmap@std@@Vvector@2@V?$basic_string@DU?$char_traits@D@std@@V?$allocator@D@2@@2@_N_J_KNVallocator@2@Uadl_serializer@json_abi_v3_11_2@nlohmann@@V?$vector@EV?$allocator@E@std@@@2@@json_abi_v3_11_2@nlohmann@@CAPEAV?$basic_string@DU?$char_traits@D@std@@V?$allocator@D@2@@std@@AEAY07$$CBD@Z
       1276  4FB 00019CC0 ??$create@V?$basic_string@DU?$char_traits@D@std@@V?$allocator@D@2@@std@@AEBV12@@?$basic_json@Vmap@std@@Vvector@2@V?$basic_string@DU?$char_traits@D@std@@V?$allocator@D@2@@2@_N_J_KNVallocator@2@Uadl_serializer@json_abi_v3_11_2@nlohmann@@V?$vector@EV?$allocator@E@std@@@2@@json_abi_v3_11_2@nlohmann@@CAPEAV?$basic_string@DU?$char_traits@D@std@@V?$allocator@D@2@@std@@AEBV34@@Z
       1277  4FC 00040100 ??$create@V?$basic_string@DU?$char_traits@D@std@@V?$allocator@D@2@@std@@V12@@?$basic_json@Vmap@std@@Vvector@2@V?$basic_string@DU?$char_traits@D@std@@V?$allocator@D@2@@2@_N_J_KNVallocator@2@Uadl_serializer@json_abi_v3_11_2@nlohmann@@V?$vector@EV?$allocator@E@std@@@2@@json_abi_v3_11_2@nlohmann@@CAPEAV?$basic_string@DU?$char_traits@D@std@@V?$allocator@D@2@@std@@$$QEAV34@@Z
       1278  4FD 00019D10 ??$create@V?$byte_container_with_subtype@V?$vector@EV?$allocator@E@std@@@std@@@json_abi_v3_11_2@nlohmann@@$$V@?$basic_json@Vmap@std@@Vvector@2@V?$basic_string@DU?$char_traits@D@std@@V?$allocator@D@2@@2@_N_J_KNVallocator@2@Uadl_serializer@json_abi_v3_11_2@nlohmann@@V?$vector@EV?$allocator@E@std@@@2@@json_abi_v3_11_2@nlohmann@@CAPEAV?$byte_container_with_subtype@V?$vector@EV?$allocator@E@std@@@std@@@12@XZ
       1279  4FE 00019D40 ??$create@V?$byte_container_with_subtype@V?$vector@EV?$allocator@E@std@@@std@@@json_abi_v3_11_2@nlohmann@@AEBV123@@?$basic_json@Vmap@std@@Vvector@2@V?$basic_string@DU?$char_traits@D@std@@V?$allocator@D@2@@2@_N_J_KNVallocator@2@Uadl_serializer@json_abi_v3_11_2@nlohmann@@V?$vector@EV?$allocator@E@std@@@2@@json_abi_v3_11_2@nlohmann@@CAPEAV?$byte_container_with_subtype@V?$vector@EV?$allocator@E@std@@@std@@@12@AEBV312@@Z
       1280  4FF 00019D90 ??$create@V?$map@V?$basic_string@DU?$char_traits@D@std@@V?$allocator@D@2@@std@@V?$basic_json@Vmap@std@@Vvector@2@V?$basic_string@DU?$char_traits@D@std@@V?$allocator@D@2@@2@_N_J_KNVallocator@2@Uadl_serializer@json_abi_v3_11_2@nlohmann@@V?$vector@EV?$allocator@E@std@@@2@@json_abi_v3_11_2@nlohmann@@U?$less@X@2@V?$allocator@U?$pair@$$CBV?$basic_string@DU?$char_traits@D@std@@V?$allocator@D@2@@std@@V?$basic_json@Vmap@std@@Vvector@2@V?$basic_string@DU?$char_traits@D@std@@V?$allocator@D@2@@2@_N_J_KNVallocator@2@Uadl_serializer@json_abi_v3_11_2@nlohmann@@V?$vector@EV?$allocator@E@std@@@2@@json_abi_v3_11_2@nlohmann@@@std@@@2@@std@@$$V@?$basic_json@Vmap@std@@Vvector@2@V?$basic_string@DU?$char_traits@D@std@@V?$allocator@D@2@@2@_N_J_KNVallocator@2@Uadl_serializer@json_abi_v3_11_2@nlohmann@@V?$vector@EV?$allocator@E@std@@@2@@json_abi_v3_11_2@nlohmann@@CAPEAV?$map@V?$basic_string@DU?$char_traits@D@std@@V?$allocator@D@2@@std@@V?$basic_json@Vmap@std@@Vvector@2@V?$basic_string@DU?$char_traits@D@std@@V?$allocator@D@2@@2@_N_J_KNVallocator@2@Uadl_serializer@json_abi_v3_11_2@nlohmann@@V?$vector@EV?$allocator@E@std@@@2@@json_abi_v3_11_2@nlohmann@@U?$less@X@2@V?$allocator@U?$pair@$$CBV?$basic_string@DU?$char_traits@D@std@@V?$allocator@D@2@@std@@V?$basic_json@Vmap@std@@Vvector@2@V?$basic_string@DU?$char_traits@D@std@@V?$allocator@D@2@@2@_N_J_KNVallocator@2@Uadl_serializer@json_abi_v3_11_2@nlohmann@@V?$vector@EV?$allocator@E@std@@@2@@json_abi_v3_11_2@nlohmann@@@std@@@2@@std@@XZ
       1281  500 00019DE0 ??$create@V?$map@V?$basic_string@DU?$char_traits@D@std@@V?$allocator@D@2@@std@@V?$basic_json@Vmap@std@@Vvector@2@V?$basic_string@DU?$char_traits@D@std@@V?$allocator@D@2@@2@_N_J_KNVallocator@2@Uadl_serializer@json_abi_v3_11_2@nlohmann@@V?$vector@EV?$allocator@E@std@@@2@@json_abi_v3_11_2@nlohmann@@U?$less@X@2@V?$allocator@U?$pair@$$CBV?$basic_string@DU?$char_traits@D@std@@V?$allocator@D@2@@std@@V?$basic_json@Vmap@std@@Vvector@2@V?$basic_string@DU?$char_traits@D@std@@V?$allocator@D@2@@2@_N_J_KNVallocator@2@Uadl_serializer@json_abi_v3_11_2@nlohmann@@V?$vector@EV?$allocator@E@std@@@2@@json_abi_v3_11_2@nlohmann@@@std@@@2@@std@@AEBV12@@?$basic_json@Vmap@std@@Vvector@2@V?$basic_string@DU?$char_traits@D@std@@V?$allocator@D@2@@2@_N_J_KNVallocator@2@Uadl_serializer@json_abi_v3_11_2@nlohmann@@V?$vector@EV?$allocator@E@std@@@2@@json_abi_v3_11_2@nlohmann@@CAPEAV?$map@V?$basic_string@DU?$char_traits@D@std@@V?$allocator@D@2@@std@@V?$basic_json@Vmap@std@@Vvector@2@V?$basic_string@DU?$char_traits@D@std@@V?$allocator@D@2@@2@_N_J_KNVallocator@2@Uadl_serializer@json_abi_v3_11_2@nlohmann@@V?$vector@EV?$allocator@E@std@@@2@@json_abi_v3_11_2@nlohmann@@U?$less@X@2@V?$allocator@U?$pair@$$CBV?$basic_string@DU?$char_traits@D@std@@V?$allocator@D@2@@std@@V?$basic_json@Vmap@std@@Vvector@2@V?$basic_string@DU?$char_traits@D@std@@V?$allocator@D@2@@2@_N_J_KNVallocator@2@Uadl_serializer@json_abi_v3_11_2@nlohmann@@V?$vector@EV?$allocator@E@std@@@2@@json_abi_v3_11_2@nlohmann@@@std@@@2@@std@@AEBV34@@Z
       1282  501 00019E30 ??$create@V?$vector@V?$basic_json@Vmap@std@@Vvector@2@V?$basic_string@DU?$char_traits@D@std@@V?$allocator@D@2@@2@_N_J_KNVallocator@2@Uadl_serializer@json_abi_v3_11_2@nlohmann@@V?$vector@EV?$allocator@E@std@@@2@@json_abi_v3_11_2@nlohmann@@V?$allocator@V?$basic_json@Vmap@std@@Vvector@2@V?$basic_string@DU?$char_traits@D@std@@V?$allocator@D@2@@2@_N_J_KNVallocator@2@Uadl_serializer@json_abi_v3_11_2@nlohmann@@V?$vector@EV?$allocator@E@std@@@2@@json_abi_v3_11_2@nlohmann@@@std@@@std@@$$V@?$basic_json@Vmap@std@@Vvector@2@V?$basic_string@DU?$char_traits@D@std@@V?$allocator@D@2@@2@_N_J_KNVallocator@2@Uadl_serializer@json_abi_v3_11_2@nlohmann@@V?$vector@EV?$allocator@E@std@@@2@@json_abi_v3_11_2@nlohmann@@CAPEAV?$vector@V?$basic_json@Vmap@std@@Vvector@2@V?$basic_string@DU?$char_traits@D@std@@V?$allocator@D@2@@2@_N_J_KNVallocator@2@Uadl_serializer@json_abi_v3_11_2@nlohmann@@V?$vector@EV?$allocator@E@std@@@2@@json_abi_v3_11_2@nlohmann@@V?$allocator@V?$basic_json@Vmap@std@@Vvector@2@V?$basic_string@DU?$char_traits@D@std@@V?$allocator@D@2@@2@_N_J_KNVallocator@2@Uadl_serializer@json_abi_v3_11_2@nlohmann@@V?$vector@EV?$allocator@E@std@@@2@@json_abi_v3_11_2@nlohmann@@@std@@@std@@XZ
       1283  502 00019E50 ??$create@V?$vector@V?$basic_json@Vmap@std@@Vvector@2@V?$basic_string@DU?$char_traits@D@std@@V?$allocator@D@2@@2@_N_J_KNVallocator@2@Uadl_serializer@json_abi_v3_11_2@nlohmann@@V?$vector@EV?$allocator@E@std@@@2@@json_abi_v3_11_2@nlohmann@@V?$allocator@V?$basic_json@Vmap@std@@Vvector@2@V?$basic_string@DU?$char_traits@D@std@@V?$allocator@D@2@@2@_N_J_KNVallocator@2@Uadl_serializer@json_abi_v3_11_2@nlohmann@@V?$vector@EV?$allocator@E@std@@@2@@json_abi_v3_11_2@nlohmann@@@std@@@std@@AEBV12@@?$basic_json@Vmap@std@@Vvector@2@V?$basic_string@DU?$char_traits@D@std@@V?$allocator@D@2@@2@_N_J_KNVallocator@2@Uadl_serializer@json_abi_v3_11_2@nlohmann@@V?$vector@EV?$allocator@E@std@@@2@@json_abi_v3_11_2@nlohmann@@CAPEAV?$vector@V?$basic_json@Vmap@std@@Vvector@2@V?$basic_string@DU?$char_traits@D@std@@V?$allocator@D@2@@2@_N_J_KNVallocator@2@Uadl_serializer@json_abi_v3_11_2@nlohmann@@V?$vector@EV?$allocator@E@std@@@2@@json_abi_v3_11_2@nlohmann@@V?$allocator@V?$basic_json@Vmap@std@@Vvector@2@V?$basic_string@DU?$char_traits@D@std@@V?$allocator@D@2@@2@_N_J_KNVallocator@2@Uadl_serializer@json_abi_v3_11_2@nlohmann@@V?$vector@EV?$allocator@E@std@@@2@@json_abi_v3_11_2@nlohmann@@@std@@@std@@AEBV34@@Z
       1284  503 000021E0 ??$destroy@D@?$_Default_allocator_traits@V?$allocator@D@std@@@std@@SAXAEAV?$allocator@D@1@QEAD@Z
       1285  504 000021E0 ??$destroy@PEAV?$basic_json@Vmap@std@@Vvector@2@V?$basic_string@DU?$char_traits@D@std@@V?$allocator@D@2@@2@_N_J_KNVallocator@2@Uadl_serializer@json_abi_v3_11_2@nlohmann@@V?$vector@EV?$allocator@E@std@@@2@@json_abi_v3_11_2@nlohmann@@@?$_Default_allocator_traits@V?$allocator@PEAV?$basic_json@Vmap@std@@Vvector@2@V?$basic_string@DU?$char_traits@D@std@@V?$allocator@D@2@@2@_N_J_KNVallocator@2@Uadl_serializer@json_abi_v3_11_2@nlohmann@@V?$vector@EV?$allocator@E@std@@@2@@json_abi_v3_11_2@nlohmann@@@std@@@std@@SAXAEAV?$allocator@PEAV?$basic_json@Vmap@std@@Vvector@2@V?$basic_string@DU?$char_traits@D@std@@V?$allocator@D@2@@2@_N_J_KNVallocator@2@Uadl_serializer@json_abi_v3_11_2@nlohmann@@V?$vector@EV?$allocator@E@std@@@2@@json_abi_v3_11_2@nlohmann@@@1@QEAPEAV?$basic_json@Vmap@std@@Vvector@2@V?$basic_string@DU?$char_traits@D@std@@V?$allocator@D@2@@2@_N_J_KNVallocator@2@Uadl_serializer@json_abi_v3_11_2@nlohmann@@V?$vector@EV?$allocator@E@std@@@2@@json_abi_v3_11_2@nlohmann@@@Z
       1286  505 000021E0 ??$destroy@PEAVBehavior@pineBT@@@?$_Default_allocator_traits@V?$allocator@PEAVBehavior@pineBT@@@std@@@std@@SAXAEAV?$allocator@PEAVBehavior@pineBT@@@1@QEAPEAVBehavior@pineBT@@@Z
       1287  506 00040150 ??$destroy@U?$pair@$$CBHV?$unique_ptr@VBehaviorTree@pineBT@@U?$default_delete@VBehaviorTree@pineBT@@@std@@@std@@@std@@@?$_Default_allocator_traits@V?$allocator@U?$_List_node@U?$pair@$$CBHV?$unique_ptr@VBehaviorTree@pineBT@@U?$default_delete@VBehaviorTree@pineBT@@@std@@@std@@@std@@PEAX@std@@@std@@@std@@SAXAEAV?$allocator@U?$_List_node@U?$pair@$$CBHV?$unique_ptr@VBehaviorTree@pineBT@@U?$default_delete@VBehaviorTree@pineBT@@@std@@@std@@@std@@PEAX@std@@@1@QEAU?$pair@$$CBHV?$unique_ptr@VBehaviorTree@pineBT@@U?$default_delete@VBehaviorTree@pineBT@@@std@@@std@@@1@@Z
       1288  507 000021E0 ??$destroy@U?$pair@$$CBIW4Result@Behavior@pineBT@@@std@@@?$_Default_allocator_traits@V?$allocator@U?$_List_node@U?$pair@$$CBIW4Result@Behavior@pineBT@@@std@@PEAX@std@@@std@@@std@@SAXAEAV?$allocator@U?$_List_node@U?$pair@$$CBIW4Result@Behavior@pineBT@@@std@@PEAX@std@@@1@QEAU?$pair@$$CBIW4Result@Behavior@pineBT@@@1@@Z
       1289  508 000042A0 ??$destroy@U?$pair@$$CBV?$basic_string@DU?$char_traits@D@std@@V?$allocator@D@2@@std@@H@std@@@?$_Default_allocator_traits@V?$allocator@U?$_List_node@U?$pair@$$CBV?$basic_string@DU?$char_traits@D@std@@V?$allocator@D@2@@std@@H@std@@PEAX@std@@@std@@@std@@SAXAEAV?$allocator@U?$_List_node@U?$pair@$$CBV?$basic_string@DU?$char_traits@D@std@@V?$allocator@D@2@@std@@H@std@@PEAX@std@@@1@QEAU?$pair@$$CBV?$basic_string@DU?$char_traits@D@std@@V?$allocator@D@2@@std@@H@1@@Z
       1290  509 00019EA0 ??$destroy@U?$pair@$$CBV?$basic_string@DU?$char_traits@D@std@@V?$allocator@D@2@@std@@UBehaviorSchema@pineBT@@@std@@@?$_Default_allocator_traits@V?$allocator@U?$_List_node@U?$pair@$$CBV?$basic_string@DU?$char_traits@D@std@@V?$allocator@D@2@@std@@UBehaviorSchema@pineBT@@@std@@PEAX@std@@@std@@@std@@SAXAEAV?$allocator@U?$_List_node@U?$pair@$$CBV?$basic_string@DU?$char_traits@D@std@@V?$allocator@D@2@@std@@UBehaviorSchema@pineBT@@@std@@PEAX@std@@@1@QEAU?$pair@$$CBV?$basic_string@DU?$char_traits@D@std@@V?$allocator@D@2@@std@@UBehaviorSchema@pineBT@@@1@@Z
